---
triple:          'arm64-apple-darwin'
binary-path:     '/Users/saranshbogati/Desktop/Spring24/CPDP/hw2/main'
relocations:
  - { offsetInCU: 0x52, offset: 0x52, size: 0x8, addend: 0x0, symName: _timestamps, symObjAddr: 0x24FA40, symBinAddr: 0x10005C000, symSize: 0x0 }
  - { offsetInCU: 0x3728, offset: 0x3728, size: 0x8, addend: 0x0, symName: __ZNSt3__16chronogtB7v160006INS_4__fs10filesystem16_FilesystemClockENS0_8durationInNS_5ratioILl1ELl1000000000EEEEES8_EEbRKNS0_10time_pointIT_T0_EERKNS9_ISA_T1_EE, symObjAddr: 0x367C, symBinAddr: 0x100005CDC, symSize: 0x30 }
  - { offsetInCU: 0x377D, offset: 0x377D, size: 0x8, addend: 0x0, symName: __ZNSt3__16chronoltB7v160006INS_4__fs10filesystem16_FilesystemClockENS0_8durationInNS_5ratioILl1ELl1000000000EEEEES8_EEbRKNS0_10time_pointIT_T0_EERKNS9_ISA_T1_EE, symObjAddr: 0x10794, symBinAddr: 0x100012DF4, symSize: 0x64 }
  - { offsetInCU: 0x37D2, offset: 0x37D2, size: 0x8, addend: 0x0, symName: __ZNSt3__16chronoltB7v160006InNS_5ratioILl1ELl1000000000EEEnS3_EEbRKNS0_8durationIT_T0_EERKNS4_IT1_T2_EE, symObjAddr: 0x107F8, symBinAddr: 0x100012E58, symSize: 0x34 }
  - { offsetInCU: 0x4C6E, offset: 0x4C6E, size: 0x8, addend: 0x0, symName: __ZNSt3__14__fs10filesystem15last_write_timeB7v160006ERKNS1_4pathE, symObjAddr: 0x448C, symBinAddr: 0x100006AEC, symSize: 0x48 }
  - { offsetInCU: 0x4C9A, offset: 0x4C9A, size: 0x8, addend: 0x0, symName: __ZNSt3__14__fs10filesystem5beginB7v160006ENS1_18directory_iteratorE, symObjAddr: 0x4738, symBinAddr: 0x100006D98, symSize: 0x38 }
  - { offsetInCU: 0x4CC7, offset: 0x4CC7, size: 0x8, addend: 0x0, symName: __ZNSt3__14__fs10filesystem3endB7v160006ENS1_18directory_iteratorE, symObjAddr: 0x47D0, symBinAddr: 0x100006E30, symSize: 0x34 }
  - { offsetInCU: 0x4CF0, offset: 0x4CF0, size: 0x8, addend: 0x0, symName: __ZNSt3__14__fs10filesystemneB7v160006ERKNS1_18directory_iteratorES4_, symObjAddr: 0x4804, symBinAddr: 0x100006E64, symSize: 0x34 }
  - { offsetInCU: 0x4D2A, offset: 0x4D2A, size: 0x8, addend: 0x0, symName: __ZNSt3__14__fs10filesystemeqB7v160006ERKNS1_18directory_iteratorES4_, symObjAddr: 0x12B38, symBinAddr: 0x100015198, symSize: 0x30 }
  - { offsetInCU: 0x921E, offset: 0x921E, size: 0x8, addend: 0x0, symName: __ZNSt3__16ranges5__cpo9iter_moveE, symObjAddr: 0x52297, symBinAddr: 0x100055465, symSize: 0x0 }
  - { offsetInCU: 0x928F, offset: 0x928F, size: 0x8, addend: 0x0, symName: __ZNSt3__1L19piecewise_constructE, symObjAddr: 0x5229F, symBinAddr: 0x10005546D, symSize: 0x0 }
  - { offsetInCU: 0x12F3B, offset: 0x12F3B, size: 0x8, addend: 0x0, symName: __ZNSt3__115regex_constants13__get_grammarB7v160006ENS0_18syntax_option_typeE, symObjAddr: 0x16F6C, symBinAddr: 0x1000195CC, symSize: 0x18 }
  - { offsetInCU: 0x12F69, offset: 0x12F69, size: 0x8, addend: 0x0, symName: __ZNSt3__115regex_constantsoRB7v160006ERNS0_18syntax_option_typeES1_, symObjAddr: 0x16F84, symBinAddr: 0x1000195E4, symSize: 0x3C }
  - { offsetInCU: 0x12FA6, offset: 0x12FA6, size: 0x8, addend: 0x0, symName: __ZNSt3__115regex_constantsorB7v160006ENS0_18syntax_option_typeES1_, symObjAddr: 0x172F0, symBinAddr: 0x100019950, symSize: 0x20 }
  - { offsetInCU: 0x12FE3, offset: 0x12FE3, size: 0x8, addend: 0x0, symName: __ZNSt3__115regex_constantsanB7v160006ENS0_18syntax_option_typeES1_, symObjAddr: 0x1A844, symBinAddr: 0x10001CEA4, symSize: 0x20 }
  - { offsetInCU: 0x13020, offset: 0x13020, size: 0x8, addend: 0x0, symName: __ZNSt3__115regex_constantsanB7v160006ENS0_15match_flag_typeES1_, symObjAddr: 0x1AA64, symBinAddr: 0x10001D0C4, symSize: 0x20 }
  - { offsetInCU: 0x1305D, offset: 0x1305D, size: 0x8, addend: 0x0, symName: __ZNSt3__115regex_constantsorB7v160006ENS0_15match_flag_typeES1_, symObjAddr: 0x1BFF4, symBinAddr: 0x10001E654, symSize: 0x20 }
  - { offsetInCU: 0x1309A, offset: 0x1309A, size: 0x8, addend: 0x0, symName: __ZNSt3__115regex_constantscoB7v160006ENS0_15match_flag_typeE, symObjAddr: 0x1C014, symBinAddr: 0x10001E674, symSize: 0x1C }
  - { offsetInCU: 0x130C8, offset: 0x130C8, size: 0x8, addend: 0x0, symName: __ZNSt3__115regex_constantsaNB7v160006ERNS0_15match_flag_typeES1_, symObjAddr: 0x36174, symBinAddr: 0x1000387D4, symSize: 0x3C }
  - { offsetInCU: 0x13105, offset: 0x13105, size: 0x8, addend: 0x0, symName: __ZNSt3__115regex_constantsoRB7v160006ERNS0_15match_flag_typeES1_, symObjAddr: 0x36328, symBinAddr: 0x100038988, symSize: 0x3C }
  - { offsetInCU: 0x17016, offset: 0x17016, size: 0x8, addend: 0x0, symName: __ZNSt3__17advanceB7v160006IPNS_12basic_stringIcNS_11char_traitsIcEENS_9allocatorIcEEEEllvEEvRT_T0_, symObjAddr: 0x70AC, symBinAddr: 0x10000970C, symSize: 0x50 }
  - { offsetInCU: 0x17296, offset: 0x17296, size: 0x8, addend: 0x0, symName: __ZNSt3__17advanceB7v160006INS_16reverse_iteratorIPNS_12basic_stringIcNS_11char_traitsIcEENS_9allocatorIcEEEEEEllvEEvRT_T0_, symObjAddr: 0x751C, symBinAddr: 0x100009B7C, symSize: 0x50 }
  - { offsetInCU: 0x190C1, offset: 0x190C1, size: 0x8, addend: 0x0, symName: __ZNSt3__17advanceB7v160006IP5MacrollvEEvRT_T0_, symObjAddr: 0xA208, symBinAddr: 0x10000C868, symSize: 0x50 }
  - { offsetInCU: 0x19341, offset: 0x19341, size: 0x8, addend: 0x0, symName: __ZNSt3__17advanceB7v160006INS_16reverse_iteratorIP5MacroEEllvEEvRT_T0_, symObjAddr: 0xA664, symBinAddr: 0x10000CCC4, symSize: 0x50 }
  - { offsetInCU: 0x1AF31, offset: 0x1AF31, size: 0x8, addend: 0x0, symName: __ZNSt3__17advanceB7v160006IP11TargetRulesllvEEvRT_T0_, symObjAddr: 0xBFEC, symBinAddr: 0x10000E64C, symSize: 0x50 }
  - { offsetInCU: 0x1B1B1, offset: 0x1B1B1, size: 0x8, addend: 0x0, symName: __ZNSt3__17advanceB7v160006INS_16reverse_iteratorIP11TargetRulesEEllvEEvRT_T0_, symObjAddr: 0xC448, symBinAddr: 0x10000EAA8, symSize: 0x50 }
  - { offsetInCU: 0x1CBFB, offset: 0x1CBFB, size: 0x8, addend: 0x0, symName: __ZNSt3__17advanceB7v160006IP13InferenceRulellvEEvRT_T0_, symObjAddr: 0xDB24, symBinAddr: 0x100010184, symSize: 0x50 }
  - { offsetInCU: 0x1CE7B, offset: 0x1CE7B, size: 0x8, addend: 0x0, symName: __ZNSt3__17advanceB7v160006INS_16reverse_iteratorIP13InferenceRuleEEllvEEvRT_T0_, symObjAddr: 0xDF80, symBinAddr: 0x1000105E0, symSize: 0x50 }
  - { offsetInCU: 0x1CEE6, offset: 0x1CEE6, size: 0x8, addend: 0x0, symName: __ZNSt3__16copy_nB7v160006IPKcmPcEENS_9enable_ifIXsr33__is_cpp17_random_access_iteratorIT_EE5valueET1_E4typeES5_T0_S6_, symObjAddr: 0xF310, symBinAddr: 0x100011970, symSize: 0x44 }
  - { offsetInCU: 0x1F09C, offset: 0x1F09C, size: 0x8, addend: 0x0, symName: __ZNSt3__17advanceB7v160006IPNS_12basic_stringIcNS_11char_traitsIcEENS_9allocatorIcEEEEmmvEEvRT_T0_, symObjAddr: 0x13838, symBinAddr: 0x100015E98, symSize: 0x50 }
  - { offsetInCU: 0x1F734, offset: 0x1F734, size: 0x8, addend: 0x0, symName: __ZNSt3__124__put_character_sequenceB7v160006IcNS_11char_traitsIcEEEERNS_13basic_ostreamIT_T0_EES7_PKS4_m, symObjAddr: 0x15D6C, symBinAddr: 0x1000183CC, symSize: 0x1EC }
  - { offsetInCU: 0x2093A, offset: 0x2093A, size: 0x8, addend: 0x0, symName: __ZNSt3__17advanceB7v160006IPKcllvEEvRT_T0_, symObjAddr: 0x1AB1C, symBinAddr: 0x10001D17C, symSize: 0x50 }
  - { offsetInCU: 0x209A5, offset: 0x209A5, size: 0x8, addend: 0x0, symName: __ZNSt3__17advanceB7v160006INS_11__wrap_iterIPKcEEllvEEvRT_T0_, symObjAddr: 0x1ADB4, symBinAddr: 0x10001D414, symSize: 0x50 }
  - { offsetInCU: 0x2234F, offset: 0x2234F, size: 0x8, addend: 0x0, symName: __ZNSt3__17advanceB7v160006IPNS_7__stateIcEEllvEEvRT_T0_, symObjAddr: 0x1EEE4, symBinAddr: 0x100021544, symSize: 0x50 }
  - { offsetInCU: 0x225CF, offset: 0x225CF, size: 0x8, addend: 0x0, symName: __ZNSt3__17advanceB7v160006INS_16reverse_iteratorIPNS_7__stateIcEEEEllvEEvRT_T0_, symObjAddr: 0x1F340, symBinAddr: 0x1000219A0, symSize: 0x50 }
  - { offsetInCU: 0x22998, offset: 0x22998, size: 0x8, addend: 0x0, symName: __ZNSt3__17advanceB7v160006IPNS_9sub_matchIPKcEEllvEEvRT_T0_, symObjAddr: 0x20A0C, symBinAddr: 0x10002306C, symSize: 0x50 }
  - { offsetInCU: 0x22C18, offset: 0x22C18, size: 0x8, addend: 0x0, symName: __ZNSt3__17advanceB7v160006INS_16reverse_iteratorIPNS_9sub_matchIPKcEEEEllvEEvRT_T0_, symObjAddr: 0x20DF8, symBinAddr: 0x100023458, symSize: 0x50 }
  - { offsetInCU: 0x22FE1, offset: 0x22FE1, size: 0x8, addend: 0x0, symName: __ZNSt3__17advanceB7v160006IPNS_4pairImPKcEEllvEEvRT_T0_, symObjAddr: 0x221D0, symBinAddr: 0x100024830, symSize: 0x50 }
  - { offsetInCU: 0x23261, offset: 0x23261, size: 0x8, addend: 0x0, symName: __ZNSt3__17advanceB7v160006INS_16reverse_iteratorIPNS_4pairImPKcEEEEllvEEvRT_T0_, symObjAddr: 0x225B4, symBinAddr: 0x100024C14, symSize: 0x50 }
  - { offsetInCU: 0x27CA5, offset: 0x27CA5, size: 0x8, addend: 0x0, symName: __ZNSt3__17advanceB7v160006IPNS_4pairINS_12basic_stringIcNS_11char_traitsIcEENS_9allocatorIcEEEES7_EEllvEEvRT_T0_, symObjAddr: 0x2F054, symBinAddr: 0x1000316B4, symSize: 0x50 }
  - { offsetInCU: 0x27F25, offset: 0x27F25, size: 0x8, addend: 0x0, symName: __ZNSt3__17advanceB7v160006INS_16reverse_iteratorIPNS_4pairINS_12basic_stringIcNS_11char_traitsIcEENS_9allocatorIcEEEES8_EEEEllvEEvRT_T0_, symObjAddr: 0x2F440, symBinAddr: 0x100031AA0, symSize: 0x50 }
  - { offsetInCU: 0x282EE, offset: 0x282EE, size: 0x8, addend: 0x0, symName: __ZNSt3__17advanceB7v160006IPNS_4pairIccEEllvEEvRT_T0_, symObjAddr: 0x306E4, symBinAddr: 0x100032D44, symSize: 0x50 }
  - { offsetInCU: 0x2856E, offset: 0x2856E, size: 0x8, addend: 0x0, symName: __ZNSt3__17advanceB7v160006INS_16reverse_iteratorIPNS_4pairIccEEEEllvEEvRT_T0_, symObjAddr: 0x30AC8, symBinAddr: 0x100033128, symSize: 0x50 }
  - { offsetInCU: 0x2B005, offset: 0x2B005, size: 0x8, addend: 0x0, symName: __ZNSt3__17advanceB7v160006IPNS_9sub_matchIPKcEEmmvEEvRT_T0_, symObjAddr: 0x3B3D8, symBinAddr: 0x10003DA38, symSize: 0x50 }
  - { offsetInCU: 0x2B070, offset: 0x2B070, size: 0x8, addend: 0x0, symName: __ZNSt3__17advanceB7v160006IPNS_4pairImPKcEEmmvEEvRT_T0_, symObjAddr: 0x3BAAC, symBinAddr: 0x10003E10C, symSize: 0x50 }
  - { offsetInCU: 0x2B439, offset: 0x2B439, size: 0x8, addend: 0x0, symName: __ZNSt3__17advanceB7v160006IPNS_9sub_matchINS_11__wrap_iterIPKcEEEEllvEEvRT_T0_, symObjAddr: 0x3D300, symBinAddr: 0x10003F960, symSize: 0x50 }
  - { offsetInCU: 0x2B6B9, offset: 0x2B6B9, size: 0x8, addend: 0x0, symName: __ZNSt3__17advanceB7v160006INS_16reverse_iteratorIPNS_9sub_matchINS_11__wrap_iterIPKcEEEEEEllvEEvRT_T0_, symObjAddr: 0x3D6EC, symBinAddr: 0x10003FD4C, symSize: 0x50 }
  - { offsetInCU: 0x36124, offset: 0x36124, size: 0x8, addend: 0x0, symName: __ZNSt3__1lsB7v160006IcNS_11char_traitsIcEENS_9allocatorIcEEEERNS_13basic_ostreamIT_T0_EES9_RKNS_12basic_stringIS6_S7_T1_EE, symObjAddr: 0x44, symBinAddr: 0x1000026A4, symSize: 0x4C }
  - { offsetInCU: 0x3617C, offset: 0x3617C, size: 0x8, addend: 0x0, symName: __ZNSt3__1lsB7v160006INS_11char_traitsIcEEEERNS_13basic_ostreamIcT_EES6_PKc, symObjAddr: 0x90, symBinAddr: 0x1000026F0, symSize: 0x48 }
  - { offsetInCU: 0x361C2, offset: 0x361C2, size: 0x8, addend: 0x0, symName: __ZNSt3__14endlB7v160006IcNS_11char_traitsIcEEEERNS_13basic_ostreamIT_T0_EES7_, symObjAddr: 0x104, symBinAddr: 0x100002764, symSize: 0x58 }
  - { offsetInCU: 0x36ADA, offset: 0x36ADA, size: 0x8, addend: 0x0, symName: __ZNSt3__17getlineB7v160006IcNS_11char_traitsIcEENS_9allocatorIcEEEERNS_13basic_istreamIT_T0_EES9_RNS_12basic_stringIS6_S7_T1_EES6_, symObjAddr: 0x3F8, symBinAddr: 0x100002A58, symSize: 0x234 }
  - { offsetInCU: 0x36B98, offset: 0x36B98, size: 0x8, addend: 0x0, symName: __ZNSt3__12wsB7v160006IcNS_11char_traitsIcEEEERNS_13basic_istreamIT_T0_EES7_, symObjAddr: 0x658, symBinAddr: 0x100002CB8, symSize: 0x23C }
  - { offsetInCU: 0x36C2B, offset: 0x36C2B, size: 0x8, addend: 0x0, symName: __ZNSt3__1rsB7v160006IcNS_11char_traitsIcEENS_9allocatorIcEEEERNS_13basic_istreamIT_T0_EES9_RNS_12basic_stringIS6_S7_T1_EE, symObjAddr: 0xDD0, symBinAddr: 0x100003430, symSize: 0x308 }
  - { offsetInCU: 0x36CF8, offset: 0x36CF8, size: 0x8, addend: 0x0, symName: __ZNSt3__1eqB7v160006IcNS_11char_traitsIcEENS_9allocatorIcEEEEbRKNS_12basic_stringIT_T0_T1_EEPKS6_, symObjAddr: 0x10D8, symBinAddr: 0x100003738, symSize: 0x5C }
  - { offsetInCU: 0x36D50, offset: 0x36D50, size: 0x8, addend: 0x0, symName: __ZNSt3__17getlineB7v160006IcNS_11char_traitsIcEENS_9allocatorIcEEEERNS_13basic_istreamIT_T0_EES9_RNS_12basic_stringIS6_S7_T1_EE, symObjAddr: 0x1134, symBinAddr: 0x100003794, symSize: 0x5C }
  - { offsetInCU: 0x3761C, offset: 0x3761C, size: 0x8, addend: 0x0, symName: __ZNSt3__1neB7v160006IPK5MacroEEbRKNS_11__wrap_iterIT_EES8_, symObjAddr: 0x2688, symBinAddr: 0x100004CE8, symSize: 0x34 }
  - { offsetInCU: 0x3765F, offset: 0x3765F, size: 0x8, addend: 0x0, symName: __ZNSt3__1plB7v160006IcNS_11char_traitsIcEENS_9allocatorIcEEEENS_12basic_stringIT_T0_T1_EEOS9_PKS6_, symObjAddr: 0x26D4, symBinAddr: 0x100004D34, symSize: 0x40 }
  - { offsetInCU: 0x376B7, offset: 0x376B7, size: 0x8, addend: 0x0, symName: __ZNSt3__113regex_replaceB7v160006INS_12regex_traitsIcEEcNS_11char_traitsIcEENS_9allocatorIcEES4_S6_EENS_12basic_stringIT0_T1_T2_EERKSB_RKNS_11basic_regexIS8_T_EERKNS7_IS8_T3_T4_EENS_15regex_constants15match_flag_typeE, symObjAddr: 0x2750, symBinAddr: 0x100004DB0, symSize: 0x108 }
  - { offsetInCU: 0x37758, offset: 0x37758, size: 0x8, addend: 0x0, symName: __ZNSt3__1neB7v160006IPKNS_12basic_stringIcNS_11char_traitsIcEENS_9allocatorIcEEEEEEbRKNS_11__wrap_iterIT_EESD_, symObjAddr: 0x2940, symBinAddr: 0x100004FA0, symSize: 0x34 }
  - { offsetInCU: 0x3779B, offset: 0x3779B, size: 0x8, addend: 0x0, symName: __ZNSt3__1plB7v160006IcNS_11char_traitsIcEENS_9allocatorIcEEEENS_12basic_stringIT_T0_T1_EERKS9_PKS6_, symObjAddr: 0x298C, symBinAddr: 0x100004FEC, symSize: 0x11C }
  - { offsetInCU: 0x3832A, offset: 0x3832A, size: 0x8, addend: 0x0, symName: __ZNSt3__1neB7v160006ERKNS_20__map_const_iteratorINS_21__tree_const_iteratorINS_12__value_typeINS_12basic_stringIcNS_11char_traitsIcEENS_9allocatorIcEEEENS_6vectorIS8_NS6_IS8_EEEEEEPNS_11__tree_nodeISC_PvEElEEEESK_, symObjAddr: 0x3160, symBinAddr: 0x1000057C0, symSize: 0x30 }
  - { offsetInCU: 0x38367, offset: 0x38367, size: 0x8, addend: 0x0, symName: __ZNSt3__13getB7v160006ILm0EKNS_12basic_stringIcNS_11char_traitsIcEENS_9allocatorIcEEEENS_6vectorIS6_NS4_IS6_EEEEEERKNS_13tuple_elementIXT_ENS_4pairIT0_T1_EEE4typeERKSF_, symObjAddr: 0x31B8, symBinAddr: 0x100005818, symSize: 0x24 }
  - { offsetInCU: 0x383B1, offset: 0x383B1, size: 0x8, addend: 0x0, symName: __ZNSt3__13getB7v160006ILm1EKNS_12basic_stringIcNS_11char_traitsIcEENS_9allocatorIcEEEENS_6vectorIS6_NS4_IS6_EEEEEERKNS_13tuple_elementIXT_ENS_4pairIT0_T1_EEE4typeERKSF_, symObjAddr: 0x31DC, symBinAddr: 0x10000583C, symSize: 0x24 }
  - { offsetInCU: 0x383FB, offset: 0x383FB, size: 0x8, addend: 0x0, symName: __ZNSt3__1neB7v160006IPNS_12basic_stringIcNS_11char_traitsIcEENS_9allocatorIcEEEEEEbRKNS_11__wrap_iterIT_EESC_, symObjAddr: 0x3630, symBinAddr: 0x100005C90, symSize: 0x34 }
  - { offsetInCU: 0x3843E, offset: 0x3843E, size: 0x8, addend: 0x0, symName: __ZNSt3__1neB7v160006IP11TargetRulesEEbRKNS_11__wrap_iterIT_EES7_, symObjAddr: 0x3984, symBinAddr: 0x100005FE4, symSize: 0x34 }
  - { offsetInCU: 0x38481, offset: 0x38481, size: 0x8, addend: 0x0, symName: __ZNSt3__1eqB7v160006INS_9allocatorIcEEEEbRKNS_12basic_stringIcNS_11char_traitsIcEET_EES9_, symObjAddr: 0x39D0, symBinAddr: 0x100006030, symSize: 0x148 }
  - { offsetInCU: 0x384F4, offset: 0x384F4, size: 0x8, addend: 0x0, symName: __ZNSt3__1plB7v160006IcNS_11char_traitsIcEENS_9allocatorIcEEEENS_12basic_stringIT_T0_T1_EERKS9_S6_, symObjAddr: 0x3B4C, symBinAddr: 0x1000061AC, symSize: 0x110 }
  - { offsetInCU: 0x38586, offset: 0x38586, size: 0x8, addend: 0x0, symName: __ZNSt3__1eqB7v160006ERKNS_14__map_iteratorINS_15__tree_iteratorINS_12__value_typeINS_12basic_stringIcNS_11char_traitsIcEENS_9allocatorIcEEEENS_6vectorIS8_NS6_IS8_EEEEEEPNS_11__tree_nodeISC_PvEElEEEESK_, symObjAddr: 0x5790, symBinAddr: 0x100007DF0, symSize: 0x30 }
  - { offsetInCU: 0x385C4, offset: 0x385C4, size: 0x8, addend: 0x0, symName: __ZNSt3__119__debug_db_insert_cB7v160006INS_12basic_stringIcNS_11char_traitsIcEENS_9allocatorIcEEEEEEvPT_, symObjAddr: 0x5960, symBinAddr: 0x100007FC0, symSize: 0x10 }
  - { offsetInCU: 0x385F6, offset: 0x385F6, size: 0x8, addend: 0x0, symName: __ZNSt3__119__debug_db_insert_cB7v160006INS_6vectorINS_12basic_stringIcNS_11char_traitsIcEENS_9allocatorIcEEEENS5_IS7_EEEEEEvPT_, symObjAddr: 0x5B38, symBinAddr: 0x100008198, symSize: 0x10 }
  - { offsetInCU: 0x38628, offset: 0x38628, size: 0x8, addend: 0x0, symName: __ZNSt3__112__to_addressB7v160006INS_12basic_stringIcNS_11char_traitsIcEENS_9allocatorIcEEEEEEPT_S8_, symObjAddr: 0x5E6C, symBinAddr: 0x1000084CC, symSize: 0x14 }
  - { offsetInCU: 0x38684, offset: 0x38684, size: 0x8, addend: 0x0, symName: __ZNSt3__112construct_atB7v160006INS_12basic_stringIcNS_11char_traitsIcEENS_9allocatorIcEEEEJRKS6_EPS6_EEPT_SB_DpOT0_, symObjAddr: 0x5EF8, symBinAddr: 0x100008558, symSize: 0x3C }
  - { offsetInCU: 0x386F6, offset: 0x386F6, size: 0x8, addend: 0x0, symName: __ZNSt3__13maxB7v160006ImEERKT_S3_S3_, symObjAddr: 0x62AC, symBinAddr: 0x10000890C, symSize: 0x2C }
  - { offsetInCU: 0x38739, offset: 0x38739, size: 0x8, addend: 0x0, symName: __ZNSt3__13minB7v160006ImEERKT_S3_S3_, symObjAddr: 0x62D8, symBinAddr: 0x100008938, symSize: 0x2C }
  - { offsetInCU: 0x38966, offset: 0x38966, size: 0x8, addend: 0x0, symName: __ZNSt3__13minB7v160006ImNS_6__lessImmEEEERKT_S5_S5_T0_, symObjAddr: 0x6368, symBinAddr: 0x1000089C8, symSize: 0x54 }
  - { offsetInCU: 0x389FC, offset: 0x389FC, size: 0x8, addend: 0x0, symName: __ZNSt3__120__throw_length_errorB7v160006EPKc, symObjAddr: 0x644C, symBinAddr: 0x100008AAC, symSize: 0x64 }
  - { offsetInCU: 0x38A24, offset: 0x38A24, size: 0x8, addend: 0x0, symName: __ZNSt3__13maxB7v160006ImNS_6__lessImmEEEERKT_S5_S5_T0_, symObjAddr: 0x6590, symBinAddr: 0x100008BF0, symSize: 0x54 }
  - { offsetInCU: 0x38A7E, offset: 0x38A7E, size: 0x8, addend: 0x0, symName: __ZNSt3__119__allocate_at_leastB7v160006INS_9allocatorINS_12basic_stringIcNS_11char_traitsIcEENS1_IcEEEEEEEENS_19__allocation_resultINS_16allocator_traitsIT_E7pointerEEERSA_m, symObjAddr: 0x6700, symBinAddr: 0x100008D60, symSize: 0x40 }
  - { offsetInCU: 0x38AC1, offset: 0x38AC1, size: 0x8, addend: 0x0, symName: __ZNSt3__117__libcpp_allocateB7v160006Emm, symObjAddr: 0x6888, symBinAddr: 0x100008EE8, symSize: 0x60 }
  - { offsetInCU: 0x38B1C, offset: 0x38B1C, size: 0x8, addend: 0x0, symName: __ZNSt3__124__is_overaligned_for_newB7v160006Em, symObjAddr: 0x68E8, symBinAddr: 0x100008F48, symSize: 0x20 }
  - { offsetInCU: 0x38B4A, offset: 0x38B4A, size: 0x8, addend: 0x0, symName: __ZNSt3__121__libcpp_operator_newB7v160006IJmSt11align_val_tEEEPvDpT_, symObjAddr: 0x6908, symBinAddr: 0x100008F68, symSize: 0x2C }
  - { offsetInCU: 0x38B97, offset: 0x38B97, size: 0x8, addend: 0x0, symName: __ZNSt3__121__libcpp_operator_newB7v160006IJmEEEPvDpT_, symObjAddr: 0x6934, symBinAddr: 0x100008F94, symSize: 0x24 }
  - { offsetInCU: 0x38BD0, offset: 0x38BD0, size: 0x8, addend: 0x0, symName: __ZNSt3__142__uninitialized_allocator_move_if_noexceptB7v160006INS_9allocatorINS_12basic_stringIcNS_11char_traitsIcEENS1_IcEEEEEENS_16reverse_iteratorIPS6_EESA_SA_EET2_RT_T0_T1_SB_, symObjAddr: 0x6A90, symBinAddr: 0x1000090F0, symSize: 0x12C }
  - { offsetInCU: 0x38C71, offset: 0x38C71, size: 0x8, addend: 0x0, symName: __ZNSt3__14swapB7v160006IPNS_12basic_stringIcNS_11char_traitsIcEENS_9allocatorIcEEEEEENS_9enable_ifIXaasr21is_move_constructibleIT_EE5valuesr18is_move_assignableIS9_EE5valueEvE4typeERS9_SC_, symObjAddr: 0x6C08, symBinAddr: 0x100009268, symSize: 0x3C }
  - { offsetInCU: 0x38CC3, offset: 0x38CC3, size: 0x8, addend: 0x0, symName: __ZNSt3__125__debug_db_invalidate_allB7v160006INS_6vectorINS_12basic_stringIcNS_11char_traitsIcEENS_9allocatorIcEEEENS5_IS7_EEEEEEvPT_, symObjAddr: 0x6D0C, symBinAddr: 0x10000936C, symSize: 0x10 }
  - { offsetInCU: 0x38CF4, offset: 0x38CF4, size: 0x8, addend: 0x0, symName: __ZNSt3__122__make_exception_guardB7v160006INS_29_AllocatorDestroyRangeReverseINS_9allocatorINS_12basic_stringIcNS_11char_traitsIcEENS2_IcEEEEEENS_16reverse_iteratorIPS7_EEEEEENS_28__exception_guard_exceptionsIT_EESE_, symObjAddr: 0x6D64, symBinAddr: 0x1000093C4, symSize: 0x4C }
  - { offsetInCU: 0x38D2A, offset: 0x38D2A, size: 0x8, addend: 0x0, symName: __ZNSt3__1neB7v160006IPNS_12basic_stringIcNS_11char_traitsIcEENS_9allocatorIcEEEES7_EEbRKNS_16reverse_iteratorIT_EERKNS8_IT0_EE, symObjAddr: 0x6DF4, symBinAddr: 0x100009454, symSize: 0x48 }
  - { offsetInCU: 0x38D76, offset: 0x38D76, size: 0x8, addend: 0x0, symName: __ZNSt3__112__to_addressB7v160006INS_16reverse_iteratorIPNS_12basic_stringIcNS_11char_traitsIcEENS_9allocatorIcEEEEEEvEENS_5decayIDTclsr19__to_address_helperIT_EE6__callclsr3stdE7declvalIRKSB_EEEEE4typeESD_, symObjAddr: 0x6E6C, symBinAddr: 0x1000094CC, symSize: 0x24 }
  - { offsetInCU: 0x38DAC, offset: 0x38DAC, size: 0x8, addend: 0x0, symName: __ZNSt3__112construct_atB7v160006INS_12basic_stringIcNS_11char_traitsIcEENS_9allocatorIcEEEEJS6_EPS6_EEPT_S9_DpOT0_, symObjAddr: 0x6FBC, symBinAddr: 0x10000961C, symSize: 0x3C }
  - { offsetInCU: 0x38E47, offset: 0x38E47, size: 0x8, addend: 0x0, symName: __ZNSt3__14prevB7v160006IPNS_12basic_stringIcNS_11char_traitsIcEENS_9allocatorIcEEEEEENS_9enable_ifIXsr25__is_cpp17_input_iteratorIT_EE5valueES9_E4typeES9_NS_15iterator_traitsIS9_E15difference_typeE, symObjAddr: 0x705C, symBinAddr: 0x1000096BC, symSize: 0x50 }
  - { offsetInCU: 0x38E8B, offset: 0x38E8B, size: 0x8, addend: 0x0, symName: __ZNSt3__121__convert_to_integralB7v160006El, symObjAddr: 0x70FC, symBinAddr: 0x10000975C, symSize: 0x14 }
  - { offsetInCU: 0x38EB8, offset: 0x38EB8, size: 0x8, addend: 0x0, symName: __ZNSt3__19__advanceB7v160006IPNS_12basic_stringIcNS_11char_traitsIcEENS_9allocatorIcEEEEEEvRT_NS_15iterator_traitsIS8_E15difference_typeENS_26random_access_iterator_tagE, symObjAddr: 0x7110, symBinAddr: 0x100009770, symSize: 0x30 }
  - { offsetInCU: 0x38F02, offset: 0x38F02, size: 0x8, addend: 0x0, symName: __ZNSt3__119__allocator_destroyB7v160006INS_9allocatorINS_12basic_stringIcNS_11char_traitsIcEENS1_IcEEEEEENS_16reverse_iteratorINS8_IPS6_EEEESB_EEvRT_T0_T1_, symObjAddr: 0x7244, symBinAddr: 0x1000098A4, symSize: 0x70 }
  - { offsetInCU: 0x38F67, offset: 0x38F67, size: 0x8, addend: 0x0, symName: __ZNSt3__1neB7v160006INS_16reverse_iteratorIPNS_12basic_stringIcNS_11char_traitsIcEENS_9allocatorIcEEEEEES9_EEbRKNS1_IT_EERKNS1_IT0_EE, symObjAddr: 0x72F0, symBinAddr: 0x100009950, symSize: 0x60 }
  - { offsetInCU: 0x38FB3, offset: 0x38FB3, size: 0x8, addend: 0x0, symName: __ZNSt3__112__to_addressB7v160006INS_16reverse_iteratorINS1_IPNS_12basic_stringIcNS_11char_traitsIcEENS_9allocatorIcEEEEEEEEvEENS_5decayIDTclsr19__to_address_helperIT_EE6__callclsr3stdE7declvalIRKSC_EEEEE4typeESE_, symObjAddr: 0x7378, symBinAddr: 0x1000099D8, symSize: 0x24 }
  - { offsetInCU: 0x38FE9, offset: 0x38FE9, size: 0x8, addend: 0x0, symName: __ZNSt3__110destroy_atB7v160006INS_12basic_stringIcNS_11char_traitsIcEENS_9allocatorIcEEEELi0EEEvPT_, symObjAddr: 0x73F0, symBinAddr: 0x100009A50, symSize: 0x24 }
  - { offsetInCU: 0x39020, offset: 0x39020, size: 0x8, addend: 0x0, symName: __ZNSt3__112__destroy_atB7v160006INS_12basic_stringIcNS_11char_traitsIcEENS_9allocatorIcEEEELi0EEEvPT_, symObjAddr: 0x7414, symBinAddr: 0x100009A74, symSize: 0x24 }
  - { offsetInCU: 0x39080, offset: 0x39080, size: 0x8, addend: 0x0, symName: __ZNSt3__14prevB7v160006INS_16reverse_iteratorIPNS_12basic_stringIcNS_11char_traitsIcEENS_9allocatorIcEEEEEEEENS_9enable_ifIXsr25__is_cpp17_input_iteratorIT_EE5valueESB_E4typeESB_NS_15iterator_traitsISB_E15difference_typeE, symObjAddr: 0x74BC, symBinAddr: 0x100009B1C, symSize: 0x60 }
  - { offsetInCU: 0x390C3, offset: 0x390C3, size: 0x8, addend: 0x0, symName: __ZNSt3__19__advanceB7v160006INS_16reverse_iteratorIPNS_12basic_stringIcNS_11char_traitsIcEENS_9allocatorIcEEEEEEEEvRT_NS_15iterator_traitsISA_E15difference_typeENS_26random_access_iterator_tagE, symObjAddr: 0x756C, symBinAddr: 0x100009BCC, symSize: 0x2C }
  - { offsetInCU: 0x3910D, offset: 0x3910D, size: 0x8, addend: 0x0, symName: __ZNSt3__119__libcpp_deallocateB7v160006EPvmm, symObjAddr: 0x7854, symBinAddr: 0x100009EB4, symSize: 0x60 }
  - { offsetInCU: 0x39174, offset: 0x39174, size: 0x8, addend: 0x0, symName: __ZNSt3__127__do_deallocate_handle_sizeB7v160006IJSt11align_val_tEEEvPvmDpT_, symObjAddr: 0x78B4, symBinAddr: 0x100009F14, symSize: 0x30 }
  - { offsetInCU: 0x391C8, offset: 0x391C8, size: 0x8, addend: 0x0, symName: __ZNSt3__127__do_deallocate_handle_sizeB7v160006IJEEEvPvmDpT_, symObjAddr: 0x78E4, symBinAddr: 0x100009F44, symSize: 0x28 }
  - { offsetInCU: 0x39207, offset: 0x39207, size: 0x8, addend: 0x0, symName: __ZNSt3__124__libcpp_operator_deleteB7v160006IJPvSt11align_val_tEEEvDpT_, symObjAddr: 0x790C, symBinAddr: 0x100009F6C, symSize: 0x2C }
  - { offsetInCU: 0x39251, offset: 0x39251, size: 0x8, addend: 0x0, symName: __ZNSt3__124__libcpp_operator_deleteB7v160006IJPvEEEvDpT_, symObjAddr: 0x7938, symBinAddr: 0x100009F98, symSize: 0x24 }
  - { offsetInCU: 0x39287, offset: 0x39287, size: 0x8, addend: 0x0, symName: __ZNSt3__118__debug_db_erase_cB7v160006INS_6vectorINS_12basic_stringIcNS_11char_traitsIcEENS_9allocatorIcEEEENS5_IS7_EEEEEEvPT_, symObjAddr: 0x7ADC, symBinAddr: 0x10000A13C, symSize: 0x10 }
  - { offsetInCU: 0x392B8, offset: 0x392B8, size: 0x8, addend: 0x0, symName: __ZNSt3__123__str_find_first_not_ofB7v160006IcmNS_11char_traitsIcEELm18446744073709551615EEET0_PKT_S3_S6_S3_S3_, symObjAddr: 0x7CA0, symBinAddr: 0x10000A300, symSize: 0xDC }
  - { offsetInCU: 0x3938C, offset: 0x3938C, size: 0x8, addend: 0x0, symName: __ZNSt3__123__constexpr_char_memchrB7v160006EPKcim, symObjAddr: 0x7E48, symBinAddr: 0x10000A4A8, symSize: 0x34 }
  - { offsetInCU: 0x393D5, offset: 0x393D5, size: 0x8, addend: 0x0, symName: __ZNSt3__112__to_addressB7v160006IKcEEPT_S3_, symObjAddr: 0x7E7C, symBinAddr: 0x10000A4DC, symSize: 0x14 }
  - { offsetInCU: 0x39448, offset: 0x39448, size: 0x8, addend: 0x0, symName: __ZNSt3__118__constexpr_strlenB7v160006EPKc, symObjAddr: 0x7FB8, symBinAddr: 0x10000A618, symSize: 0x24 }
  - { offsetInCU: 0x39474, offset: 0x39474, size: 0x8, addend: 0x0, symName: __ZNSt3__122__str_find_last_not_ofB7v160006IcmNS_11char_traitsIcEELm18446744073709551615EEET0_PKT_S3_S6_S3_S3_, symObjAddr: 0x7FDC, symBinAddr: 0x10000A63C, symSize: 0xDC }
  - { offsetInCU: 0x3952A, offset: 0x3952A, size: 0x8, addend: 0x0, symName: __ZNSt3__1eqB7v160006IcNS_11char_traitsIcEEEEbNS_17basic_string_viewIT_T0_EES6_, symObjAddr: 0x8144, symBinAddr: 0x10000A7A4, symSize: 0xB0 }
  - { offsetInCU: 0x39579, offset: 0x39579, size: 0x8, addend: 0x0, symName: __ZNSt3__118__constexpr_memcmpB7v160006IcEEiPKT_S3_m, symObjAddr: 0x8450, symBinAddr: 0x10000AAB0, symSize: 0x34 }
  - { offsetInCU: 0x395CA, offset: 0x395CA, size: 0x8, addend: 0x0, symName: __ZNSt3__128__char_traits_length_checkedB7v160006INS_11char_traitsIcEEEEmPKNT_9char_typeE, symObjAddr: 0x8554, symBinAddr: 0x10000ABB4, symSize: 0x24 }
  - { offsetInCU: 0x39600, offset: 0x39600, size: 0x8, addend: 0x0, symName: __ZNSt3__112__to_addressB7v160006I5MacroEEPT_S3_, symObjAddr: 0x8818, symBinAddr: 0x10000AE78, symSize: 0x14 }
  - { offsetInCU: 0x3965C, offset: 0x3965C, size: 0x8, addend: 0x0, symName: __ZNSt3__112construct_atB7v160006I5MacroJRKS1_EPS1_EEPT_S6_DpOT0_, symObjAddr: 0x88A4, symBinAddr: 0x10000AF04, symSize: 0x3C }
  - { offsetInCU: 0x396CE, offset: 0x396CE, size: 0x8, addend: 0x0, symName: __ZNSt3__122__make_exception_guardB7v160006INS_6vectorINS_12basic_stringIcNS_11char_traitsIcEENS_9allocatorIcEEEENS5_IS7_EEE16__destroy_vectorEEENS_28__exception_guard_exceptionsIT_EESC_, symObjAddr: 0x8B4C, symBinAddr: 0x10000B1AC, symSize: 0x40 }
  - { offsetInCU: 0x39703, offset: 0x39703, size: 0x8, addend: 0x0, symName: __ZNSt3__130__uninitialized_allocator_copyB7v160006INS_9allocatorINS_12basic_stringIcNS_11char_traitsIcEENS1_IcEEEEEEPS6_S8_S8_EET2_RT_T0_T1_S9_, symObjAddr: 0x8DC8, symBinAddr: 0x10000B428, symSize: 0xF4 }
  - { offsetInCU: 0x397A1, offset: 0x397A1, size: 0x8, addend: 0x0, symName: __ZNSt3__122__make_exception_guardB7v160006INS_29_AllocatorDestroyRangeReverseINS_9allocatorINS_12basic_stringIcNS_11char_traitsIcEENS2_IcEEEEEEPS7_EEEENS_28__exception_guard_exceptionsIT_EESC_, symObjAddr: 0x8EBC, symBinAddr: 0x10000B51C, symSize: 0x4C }
  - { offsetInCU: 0x397D7, offset: 0x397D7, size: 0x8, addend: 0x0, symName: __ZNSt3__112construct_atB7v160006INS_12basic_stringIcNS_11char_traitsIcEENS_9allocatorIcEEEEJRS6_EPS6_EEPT_SA_DpOT0_, symObjAddr: 0x9060, symBinAddr: 0x10000B6C0, symSize: 0x3C }
  - { offsetInCU: 0x3984A, offset: 0x3984A, size: 0x8, addend: 0x0, symName: __ZNSt3__119__allocator_destroyB7v160006INS_9allocatorINS_12basic_stringIcNS_11char_traitsIcEENS1_IcEEEEEENS_16reverse_iteratorIPS6_EESA_EEvRT_T0_T1_, symObjAddr: 0x9154, symBinAddr: 0x10000B7B4, symSize: 0x70 }
  - { offsetInCU: 0x398AD, offset: 0x398AD, size: 0x8, addend: 0x0, symName: __ZNSt3__119__allocate_at_leastB7v160006INS_9allocatorI5MacroEEEENS_19__allocation_resultINS_16allocator_traitsIT_E7pointerEEERS6_m, symObjAddr: 0x9790, symBinAddr: 0x10000BDF0, symSize: 0x40 }
  - { offsetInCU: 0x398F0, offset: 0x398F0, size: 0x8, addend: 0x0, symName: __ZNSt3__142__uninitialized_allocator_move_if_noexceptB7v160006INS_9allocatorI5MacroEENS_16reverse_iteratorIPS2_EES6_S6_EET2_RT_T0_T1_S7_, symObjAddr: 0x9A38, symBinAddr: 0x10000C098, symSize: 0x12C }
  - { offsetInCU: 0x39991, offset: 0x39991, size: 0x8, addend: 0x0, symName: __ZNSt3__14swapB7v160006IP5MacroEENS_9enable_ifIXaasr21is_move_constructibleIT_EE5valuesr18is_move_assignableIS4_EE5valueEvE4typeERS4_S7_, symObjAddr: 0x9BB0, symBinAddr: 0x10000C210, symSize: 0x3C }
  - { offsetInCU: 0x399E3, offset: 0x399E3, size: 0x8, addend: 0x0, symName: __ZNSt3__125__debug_db_invalidate_allB7v160006INS_6vectorI5MacroNS_9allocatorIS2_EEEEEEvPT_, symObjAddr: 0x9CB4, symBinAddr: 0x10000C314, symSize: 0x10 }
  - { offsetInCU: 0x39A14, offset: 0x39A14, size: 0x8, addend: 0x0, symName: __ZNSt3__122__make_exception_guardB7v160006INS_29_AllocatorDestroyRangeReverseINS_9allocatorI5MacroEENS_16reverse_iteratorIPS3_EEEEEENS_28__exception_guard_exceptionsIT_EESA_, symObjAddr: 0x9D0C, symBinAddr: 0x10000C36C, symSize: 0x4C }
  - { offsetInCU: 0x39A4A, offset: 0x39A4A, size: 0x8, addend: 0x0, symName: __ZNSt3__1neB7v160006IP5MacroS2_EEbRKNS_16reverse_iteratorIT_EERKNS3_IT0_EE, symObjAddr: 0x9D9C, symBinAddr: 0x10000C3FC, symSize: 0x48 }
  - { offsetInCU: 0x39A96, offset: 0x39A96, size: 0x8, addend: 0x0, symName: __ZNSt3__112__to_addressB7v160006INS_16reverse_iteratorIP5MacroEEvEENS_5decayIDTclsr19__to_address_helperIT_EE6__callclsr3stdE7declvalIRKS6_EEEEE4typeES8_, symObjAddr: 0x9E14, symBinAddr: 0x10000C474, symSize: 0x24 }
  - { offsetInCU: 0x39ACC, offset: 0x39ACC, size: 0x8, addend: 0x0, symName: __ZNSt3__112construct_atB7v160006I5MacroJS1_EPS1_EEPT_S4_DpOT0_, symObjAddr: 0x9F64, symBinAddr: 0x10000C5C4, symSize: 0x3C }
  - { offsetInCU: 0x39B3F, offset: 0x39B3F, size: 0x8, addend: 0x0, symName: __ZNSt3__115__debug_db_swapB7v160006INS_6vectorINS_12basic_stringIcNS_11char_traitsIcEENS_9allocatorIcEEEENS5_IS7_EEEEEEvPT_SB_, symObjAddr: 0xA140, symBinAddr: 0x10000C7A0, symSize: 0x14 }
  - { offsetInCU: 0x39BA7, offset: 0x39BA7, size: 0x8, addend: 0x0, symName: __ZNSt3__14prevB7v160006IP5MacroEENS_9enable_ifIXsr25__is_cpp17_input_iteratorIT_EE5valueES4_E4typeES4_NS_15iterator_traitsIS4_E15difference_typeE, symObjAddr: 0xA1B8, symBinAddr: 0x10000C818, symSize: 0x50 }
  - { offsetInCU: 0x39BEB, offset: 0x39BEB, size: 0x8, addend: 0x0, symName: __ZNSt3__19__advanceB7v160006IP5MacroEEvRT_NS_15iterator_traitsIS3_E15difference_typeENS_26random_access_iterator_tagE, symObjAddr: 0xA258, symBinAddr: 0x10000C8B8, symSize: 0x30 }
  - { offsetInCU: 0x39C35, offset: 0x39C35, size: 0x8, addend: 0x0, symName: __ZNSt3__119__allocator_destroyB7v160006INS_9allocatorI5MacroEENS_16reverse_iteratorINS4_IPS2_EEEES7_EEvRT_T0_T1_, symObjAddr: 0xA38C, symBinAddr: 0x10000C9EC, symSize: 0x70 }
  - { offsetInCU: 0x39C9A, offset: 0x39C9A, size: 0x8, addend: 0x0, symName: __ZNSt3__1neB7v160006INS_16reverse_iteratorIP5MacroEES4_EEbRKNS1_IT_EERKNS1_IT0_EE, symObjAddr: 0xA438, symBinAddr: 0x10000CA98, symSize: 0x60 }
  - { offsetInCU: 0x39CE6, offset: 0x39CE6, size: 0x8, addend: 0x0, symName: __ZNSt3__112__to_addressB7v160006INS_16reverse_iteratorINS1_IP5MacroEEEEvEENS_5decayIDTclsr19__to_address_helperIT_EE6__callclsr3stdE7declvalIRKS7_EEEEE4typeES9_, symObjAddr: 0xA4C0, symBinAddr: 0x10000CB20, symSize: 0x24 }
  - { offsetInCU: 0x39D1C, offset: 0x39D1C, size: 0x8, addend: 0x0, symName: __ZNSt3__110destroy_atB7v160006I5MacroLi0EEEvPT_, symObjAddr: 0xA538, symBinAddr: 0x10000CB98, symSize: 0x24 }
  - { offsetInCU: 0x39D53, offset: 0x39D53, size: 0x8, addend: 0x0, symName: __ZNSt3__112__destroy_atB7v160006I5MacroLi0EEEvPT_, symObjAddr: 0xA55C, symBinAddr: 0x10000CBBC, symSize: 0x24 }
  - { offsetInCU: 0x39DB3, offset: 0x39DB3, size: 0x8, addend: 0x0, symName: __ZNSt3__14prevB7v160006INS_16reverse_iteratorIP5MacroEEEENS_9enable_ifIXsr25__is_cpp17_input_iteratorIT_EE5valueES6_E4typeES6_NS_15iterator_traitsIS6_E15difference_typeE, symObjAddr: 0xA604, symBinAddr: 0x10000CC64, symSize: 0x60 }
  - { offsetInCU: 0x39DF6, offset: 0x39DF6, size: 0x8, addend: 0x0, symName: __ZNSt3__19__advanceB7v160006INS_16reverse_iteratorIP5MacroEEEEvRT_NS_15iterator_traitsIS5_E15difference_typeENS_26random_access_iterator_tagE, symObjAddr: 0xA6B4, symBinAddr: 0x10000CD14, symSize: 0x2C }
  - { offsetInCU: 0x39E40, offset: 0x39E40, size: 0x8, addend: 0x0, symName: __ZNSt3__112__to_addressB7v160006I11TargetRulesEEPT_S3_, symObjAddr: 0xB054, symBinAddr: 0x10000D6B4, symSize: 0x14 }
  - { offsetInCU: 0x39E9C, offset: 0x39E9C, size: 0x8, addend: 0x0, symName: __ZNSt3__112construct_atB7v160006I11TargetRulesJRKS1_EPS1_EEPT_S6_DpOT0_, symObjAddr: 0xB0E0, symBinAddr: 0x10000D740, symSize: 0x3C }
  - { offsetInCU: 0x39F0E, offset: 0x39F0E, size: 0x8, addend: 0x0, symName: __ZNSt3__119__allocate_at_leastB7v160006INS_9allocatorI11TargetRulesEEEENS_19__allocation_resultINS_16allocator_traitsIT_E7pointerEEERS6_m, symObjAddr: 0xB698, symBinAddr: 0x10000DCF8, symSize: 0x40 }
  - { offsetInCU: 0x39F51, offset: 0x39F51, size: 0x8, addend: 0x0, symName: __ZNSt3__142__uninitialized_allocator_move_if_noexceptB7v160006INS_9allocatorI11TargetRulesEENS_16reverse_iteratorIPS2_EES6_S6_EET2_RT_T0_T1_S7_, symObjAddr: 0xB940, symBinAddr: 0x10000DFA0, symSize: 0x12C }
  - { offsetInCU: 0x39FF2, offset: 0x39FF2, size: 0x8, addend: 0x0, symName: __ZNSt3__14swapB7v160006IP11TargetRulesEENS_9enable_ifIXaasr21is_move_constructibleIT_EE5valuesr18is_move_assignableIS4_EE5valueEvE4typeERS4_S7_, symObjAddr: 0xBAB8, symBinAddr: 0x10000E118, symSize: 0x3C }
  - { offsetInCU: 0x3A044, offset: 0x3A044, size: 0x8, addend: 0x0, symName: __ZNSt3__125__debug_db_invalidate_allB7v160006INS_6vectorI11TargetRulesNS_9allocatorIS2_EEEEEEvPT_, symObjAddr: 0xBBBC, symBinAddr: 0x10000E21C, symSize: 0x10 }
  - { offsetInCU: 0x3A075, offset: 0x3A075, size: 0x8, addend: 0x0, symName: __ZNSt3__122__make_exception_guardB7v160006INS_29_AllocatorDestroyRangeReverseINS_9allocatorI11TargetRulesEENS_16reverse_iteratorIPS3_EEEEEENS_28__exception_guard_exceptionsIT_EESA_, symObjAddr: 0xBC14, symBinAddr: 0x10000E274, symSize: 0x4C }
  - { offsetInCU: 0x3A0AB, offset: 0x3A0AB, size: 0x8, addend: 0x0, symName: __ZNSt3__1neB7v160006IP11TargetRulesS2_EEbRKNS_16reverse_iteratorIT_EERKNS3_IT0_EE, symObjAddr: 0xBCA4, symBinAddr: 0x10000E304, symSize: 0x48 }
  - { offsetInCU: 0x3A0F7, offset: 0x3A0F7, size: 0x8, addend: 0x0, symName: __ZNSt3__112__to_addressB7v160006INS_16reverse_iteratorIP11TargetRulesEEvEENS_5decayIDTclsr19__to_address_helperIT_EE6__callclsr3stdE7declvalIRKS6_EEEEE4typeES8_, symObjAddr: 0xBD1C, symBinAddr: 0x10000E37C, symSize: 0x24 }
  - { offsetInCU: 0x3A12D, offset: 0x3A12D, size: 0x8, addend: 0x0, symName: __ZNSt3__112construct_atB7v160006I11TargetRulesJS1_EPS1_EEPT_S4_DpOT0_, symObjAddr: 0xBE6C, symBinAddr: 0x10000E4CC, symSize: 0x3C }
  - { offsetInCU: 0x3A1C8, offset: 0x3A1C8, size: 0x8, addend: 0x0, symName: __ZNSt3__14prevB7v160006IP11TargetRulesEENS_9enable_ifIXsr25__is_cpp17_input_iteratorIT_EE5valueES4_E4typeES4_NS_15iterator_traitsIS4_E15difference_typeE, symObjAddr: 0xBF9C, symBinAddr: 0x10000E5FC, symSize: 0x50 }
  - { offsetInCU: 0x3A20C, offset: 0x3A20C, size: 0x8, addend: 0x0, symName: __ZNSt3__19__advanceB7v160006IP11TargetRulesEEvRT_NS_15iterator_traitsIS3_E15difference_typeENS_26random_access_iterator_tagE, symObjAddr: 0xC03C, symBinAddr: 0x10000E69C, symSize: 0x30 }
  - { offsetInCU: 0x3A256, offset: 0x3A256, size: 0x8, addend: 0x0, symName: __ZNSt3__119__allocator_destroyB7v160006INS_9allocatorI11TargetRulesEENS_16reverse_iteratorINS4_IPS2_EEEES7_EEvRT_T0_T1_, symObjAddr: 0xC170, symBinAddr: 0x10000E7D0, symSize: 0x70 }
  - { offsetInCU: 0x3A2BB, offset: 0x3A2BB, size: 0x8, addend: 0x0, symName: __ZNSt3__1neB7v160006INS_16reverse_iteratorIP11TargetRulesEES4_EEbRKNS1_IT_EERKNS1_IT0_EE, symObjAddr: 0xC21C, symBinAddr: 0x10000E87C, symSize: 0x60 }
  - { offsetInCU: 0x3A307, offset: 0x3A307, size: 0x8, addend: 0x0, symName: __ZNSt3__112__to_addressB7v160006INS_16reverse_iteratorINS1_IP11TargetRulesEEEEvEENS_5decayIDTclsr19__to_address_helperIT_EE6__callclsr3stdE7declvalIRKS7_EEEEE4typeES9_, symObjAddr: 0xC2A4, symBinAddr: 0x10000E904, symSize: 0x24 }
  - { offsetInCU: 0x3A33D, offset: 0x3A33D, size: 0x8, addend: 0x0, symName: __ZNSt3__110destroy_atB7v160006I11TargetRulesLi0EEEvPT_, symObjAddr: 0xC31C, symBinAddr: 0x10000E97C, symSize: 0x24 }
  - { offsetInCU: 0x3A374, offset: 0x3A374, size: 0x8, addend: 0x0, symName: __ZNSt3__112__destroy_atB7v160006I11TargetRulesLi0EEEvPT_, symObjAddr: 0xC340, symBinAddr: 0x10000E9A0, symSize: 0x24 }
  - { offsetInCU: 0x3A3D4, offset: 0x3A3D4, size: 0x8, addend: 0x0, symName: __ZNSt3__14prevB7v160006INS_16reverse_iteratorIP11TargetRulesEEEENS_9enable_ifIXsr25__is_cpp17_input_iteratorIT_EE5valueES6_E4typeES6_NS_15iterator_traitsIS6_E15difference_typeE, symObjAddr: 0xC3E8, symBinAddr: 0x10000EA48, symSize: 0x60 }
  - { offsetInCU: 0x3A417, offset: 0x3A417, size: 0x8, addend: 0x0, symName: __ZNSt3__19__advanceB7v160006INS_16reverse_iteratorIP11TargetRulesEEEEvRT_NS_15iterator_traitsIS5_E15difference_typeENS_26random_access_iterator_tagE, symObjAddr: 0xC498, symBinAddr: 0x10000EAF8, symSize: 0x2C }
  - { offsetInCU: 0x3A461, offset: 0x3A461, size: 0x8, addend: 0x0, symName: __ZNSt3__112__to_addressB7v160006I13InferenceRuleEEPT_S3_, symObjAddr: 0xCAB0, symBinAddr: 0x10000F110, symSize: 0x14 }
  - { offsetInCU: 0x3A4BD, offset: 0x3A4BD, size: 0x8, addend: 0x0, symName: __ZNSt3__112construct_atB7v160006I13InferenceRuleJRKS1_EPS1_EEPT_S6_DpOT0_, symObjAddr: 0xCB3C, symBinAddr: 0x10000F19C, symSize: 0x3C }
  - { offsetInCU: 0x3A52F, offset: 0x3A52F, size: 0x8, addend: 0x0, symName: __ZNSt3__119__allocate_at_leastB7v160006INS_9allocatorI13InferenceRuleEEEENS_19__allocation_resultINS_16allocator_traitsIT_E7pointerEEERS6_m, symObjAddr: 0xD1D0, symBinAddr: 0x10000F830, symSize: 0x40 }
  - { offsetInCU: 0x3A572, offset: 0x3A572, size: 0x8, addend: 0x0, symName: __ZNSt3__142__uninitialized_allocator_move_if_noexceptB7v160006INS_9allocatorI13InferenceRuleEENS_16reverse_iteratorIPS2_EES6_S6_EET2_RT_T0_T1_S7_, symObjAddr: 0xD478, symBinAddr: 0x10000FAD8, symSize: 0x12C }
  - { offsetInCU: 0x3A613, offset: 0x3A613, size: 0x8, addend: 0x0, symName: __ZNSt3__14swapB7v160006IP13InferenceRuleEENS_9enable_ifIXaasr21is_move_constructibleIT_EE5valuesr18is_move_assignableIS4_EE5valueEvE4typeERS4_S7_, symObjAddr: 0xD5F0, symBinAddr: 0x10000FC50, symSize: 0x3C }
  - { offsetInCU: 0x3A665, offset: 0x3A665, size: 0x8, addend: 0x0, symName: __ZNSt3__125__debug_db_invalidate_allB7v160006INS_6vectorI13InferenceRuleNS_9allocatorIS2_EEEEEEvPT_, symObjAddr: 0xD6F4, symBinAddr: 0x10000FD54, symSize: 0x10 }
  - { offsetInCU: 0x3A696, offset: 0x3A696, size: 0x8, addend: 0x0, symName: __ZNSt3__122__make_exception_guardB7v160006INS_29_AllocatorDestroyRangeReverseINS_9allocatorI13InferenceRuleEENS_16reverse_iteratorIPS3_EEEEEENS_28__exception_guard_exceptionsIT_EESA_, symObjAddr: 0xD74C, symBinAddr: 0x10000FDAC, symSize: 0x4C }
  - { offsetInCU: 0x3A6CC, offset: 0x3A6CC, size: 0x8, addend: 0x0, symName: __ZNSt3__1neB7v160006IP13InferenceRuleS2_EEbRKNS_16reverse_iteratorIT_EERKNS3_IT0_EE, symObjAddr: 0xD7DC, symBinAddr: 0x10000FE3C, symSize: 0x48 }
  - { offsetInCU: 0x3A718, offset: 0x3A718, size: 0x8, addend: 0x0, symName: __ZNSt3__112__to_addressB7v160006INS_16reverse_iteratorIP13InferenceRuleEEvEENS_5decayIDTclsr19__to_address_helperIT_EE6__callclsr3stdE7declvalIRKS6_EEEEE4typeES8_, symObjAddr: 0xD854, symBinAddr: 0x10000FEB4, symSize: 0x24 }
  - { offsetInCU: 0x3A74E, offset: 0x3A74E, size: 0x8, addend: 0x0, symName: __ZNSt3__112construct_atB7v160006I13InferenceRuleJS1_EPS1_EEPT_S4_DpOT0_, symObjAddr: 0xD9A4, symBinAddr: 0x100010004, symSize: 0x3C }
  - { offsetInCU: 0x3A7E9, offset: 0x3A7E9, size: 0x8, addend: 0x0, symName: __ZNSt3__14prevB7v160006IP13InferenceRuleEENS_9enable_ifIXsr25__is_cpp17_input_iteratorIT_EE5valueES4_E4typeES4_NS_15iterator_traitsIS4_E15difference_typeE, symObjAddr: 0xDAD4, symBinAddr: 0x100010134, symSize: 0x50 }
  - { offsetInCU: 0x3A82D, offset: 0x3A82D, size: 0x8, addend: 0x0, symName: __ZNSt3__19__advanceB7v160006IP13InferenceRuleEEvRT_NS_15iterator_traitsIS3_E15difference_typeENS_26random_access_iterator_tagE, symObjAddr: 0xDB74, symBinAddr: 0x1000101D4, symSize: 0x30 }
  - { offsetInCU: 0x3A877, offset: 0x3A877, size: 0x8, addend: 0x0, symName: __ZNSt3__119__allocator_destroyB7v160006INS_9allocatorI13InferenceRuleEENS_16reverse_iteratorINS4_IPS2_EEEES7_EEvRT_T0_T1_, symObjAddr: 0xDCA8, symBinAddr: 0x100010308, symSize: 0x70 }
  - { offsetInCU: 0x3A8DC, offset: 0x3A8DC, size: 0x8, addend: 0x0, symName: __ZNSt3__1neB7v160006INS_16reverse_iteratorIP13InferenceRuleEES4_EEbRKNS1_IT_EERKNS1_IT0_EE, symObjAddr: 0xDD54, symBinAddr: 0x1000103B4, symSize: 0x60 }
  - { offsetInCU: 0x3A928, offset: 0x3A928, size: 0x8, addend: 0x0, symName: __ZNSt3__112__to_addressB7v160006INS_16reverse_iteratorINS1_IP13InferenceRuleEEEEvEENS_5decayIDTclsr19__to_address_helperIT_EE6__callclsr3stdE7declvalIRKS7_EEEEE4typeES9_, symObjAddr: 0xDDDC, symBinAddr: 0x10001043C, symSize: 0x24 }
  - { offsetInCU: 0x3A95E, offset: 0x3A95E, size: 0x8, addend: 0x0, symName: __ZNSt3__110destroy_atB7v160006I13InferenceRuleLi0EEEvPT_, symObjAddr: 0xDE54, symBinAddr: 0x1000104B4, symSize: 0x24 }
  - { offsetInCU: 0x3A995, offset: 0x3A995, size: 0x8, addend: 0x0, symName: __ZNSt3__112__destroy_atB7v160006I13InferenceRuleLi0EEEvPT_, symObjAddr: 0xDE78, symBinAddr: 0x1000104D8, symSize: 0x24 }
  - { offsetInCU: 0x3A9F5, offset: 0x3A9F5, size: 0x8, addend: 0x0, symName: __ZNSt3__14prevB7v160006INS_16reverse_iteratorIP13InferenceRuleEEEENS_9enable_ifIXsr25__is_cpp17_input_iteratorIT_EE5valueES6_E4typeES6_NS_15iterator_traitsIS6_E15difference_typeE, symObjAddr: 0xDF20, symBinAddr: 0x100010580, symSize: 0x60 }
  - { offsetInCU: 0x3AA38, offset: 0x3AA38, size: 0x8, addend: 0x0, symName: __ZNSt3__19__advanceB7v160006INS_16reverse_iteratorIP13InferenceRuleEEEEvRT_NS_15iterator_traitsIS5_E15difference_typeENS_26random_access_iterator_tagE, symObjAddr: 0xDFD0, symBinAddr: 0x100010630, symSize: 0x2C }
  - { offsetInCU: 0x3AA81, offset: 0x3AA81, size: 0x8, addend: 0x0, symName: __ZNSt3__1eqB7v160006IPK5MacroEEbRKNS_11__wrap_iterIT_EES8_, symObjAddr: 0xE970, symBinAddr: 0x100010FD0, symSize: 0x48 }
  - { offsetInCU: 0x3AAC5, offset: 0x3AAC5, size: 0x8, addend: 0x0, symName: __ZNSt3__134__libcpp_atomic_refcount_decrementB7v160006IlEET_RS1_, symObjAddr: 0xEB6C, symBinAddr: 0x1000111CC, symSize: 0x30 }
  - { offsetInCU: 0x3AAFA, offset: 0x3AAFA, size: 0x8, addend: 0x0, symName: __ZNSt3__1eqB7v160006IPKNS_12basic_stringIcNS_11char_traitsIcEENS_9allocatorIcEEEEEEbRKNS_11__wrap_iterIT_EESD_, symObjAddr: 0xEC5C, symBinAddr: 0x1000112BC, symSize: 0x48 }
  - { offsetInCU: 0x3AB3E, offset: 0x3AB3E, size: 0x8, addend: 0x0, symName: __ZNSt3__112__to_addressB7v160006IcEEPT_S2_, symObjAddr: 0xED2C, symBinAddr: 0x10001138C, symSize: 0x14 }
  - { offsetInCU: 0x3AB73, offset: 0x3AB73, size: 0x8, addend: 0x0, symName: __ZNSt3__14copyB7v160006IPKcPcEET0_T_S5_S4_, symObjAddr: 0xF354, symBinAddr: 0x1000119B4, symSize: 0x40 }
  - { offsetInCU: 0x3ABCD, offset: 0x3ABCD, size: 0x8, addend: 0x0, symName: __ZNSt3__16__copyB7v160006INS_17_ClassicAlgPolicyEPKcS3_PcEENS_4pairIT0_T2_EES6_T1_S7_, symObjAddr: 0xF394, symBinAddr: 0x1000119F4, symSize: 0x44 }
  - { offsetInCU: 0x3AC39, offset: 0x3AC39, size: 0x8, addend: 0x0, symName: __ZNSt3__123__dispatch_copy_or_moveB7v160006INS_17_ClassicAlgPolicyENS_11__copy_loopIS1_EENS_14__copy_trivialEPKcS6_PcEENS_4pairIT2_T4_EES9_T3_SA_, symObjAddr: 0xF3D8, symBinAddr: 0x100011A38, symSize: 0x44 }
  - { offsetInCU: 0x3ACB7, offset: 0x3ACB7, size: 0x8, addend: 0x0, symName: __ZNSt3__121__unwrap_and_dispatchB7v160006INS_10__overloadINS_11__copy_loopINS_17_ClassicAlgPolicyEEENS_14__copy_trivialEEEPKcS8_PcLi0EEENS_4pairIT0_T2_EESB_T1_SC_, symObjAddr: 0xF41C, symBinAddr: 0x100011A7C, symSize: 0xB4 }
  - { offsetInCU: 0x3AD45, offset: 0x3AD45, size: 0x8, addend: 0x0, symName: __ZNSt3__114__unwrap_rangeB7v160006IPKcS2_EEDaT_T0_, symObjAddr: 0xF4D0, symBinAddr: 0x100011B30, symSize: 0x3C }
  - { offsetInCU: 0x3AEDA, offset: 0x3AEDA, size: 0x8, addend: 0x0, symName: __ZNSt3__113__unwrap_iterB7v160006IPcNS_18__unwrap_iter_implIS1_Lb1EEELi0EEEDTclsrT0_8__unwrapclsr3stdE7declvalIT_EEEES5_, symObjAddr: 0xF554, symBinAddr: 0x100011BB4, symSize: 0x24 }
  - { offsetInCU: 0x3AF1E, offset: 0x3AF1E, size: 0x8, addend: 0x0, symName: __ZNSt3__19make_pairB7v160006IPKcPcEENS_4pairINS_18__unwrap_ref_decayIT_E4typeENS5_IT0_E4typeEEEOS6_OS9_, symObjAddr: 0xF578, symBinAddr: 0x100011BD8, symSize: 0x38 }
  - { offsetInCU: 0x3AF6D, offset: 0x3AF6D, size: 0x8, addend: 0x0, symName: __ZNSt3__114__rewrap_rangeB7v160006IPKcS2_S2_EET0_S3_T1_, symObjAddr: 0xF5B0, symBinAddr: 0x100011C10, symSize: 0x2C }
  - { offsetInCU: 0x3AFC2, offset: 0x3AFC2, size: 0x8, addend: 0x0, symName: __ZNSt3__113__rewrap_iterB7v160006IPcS1_NS_18__unwrap_iter_implIS1_Lb1EEEEET_S4_T0_, symObjAddr: 0xF5DC, symBinAddr: 0x100011C3C, symSize: 0x3C }
  - { offsetInCU: 0x3B067, offset: 0x3B067, size: 0x8, addend: 0x0, symName: __ZNSt3__113__unwrap_iterB7v160006IPKcNS_18__unwrap_iter_implIS2_Lb1EEELi0EEEDTclsrT0_8__unwrapclsr3stdE7declvalIT_EEEES6_, symObjAddr: 0xF670, symBinAddr: 0x100011CD0, symSize: 0x24 }
  - { offsetInCU: 0x3B0FE, offset: 0x3B0FE, size: 0x8, addend: 0x0, symName: __ZNSt3__119__copy_trivial_implB7v160006IKccEENS_4pairIPT_PT0_EES4_S4_S6_, symObjAddr: 0xF728, symBinAddr: 0x100011D88, symSize: 0x7C }
  - { offsetInCU: 0x3B166, offset: 0x3B166, size: 0x8, addend: 0x0, symName: __ZNSt3__19make_pairB7v160006IRPKcPcEENS_4pairINS_18__unwrap_ref_decayIT_E4typeENS6_IT0_E4typeEEEOS7_OSA_, symObjAddr: 0xF7A4, symBinAddr: 0x100011E04, symSize: 0x38 }
  - { offsetInCU: 0x3B208, offset: 0x3B208, size: 0x8, addend: 0x0, symName: __ZNSt3__113__rewrap_iterB7v160006IPKcS2_NS_18__unwrap_iter_implIS2_Lb1EEEEET_S5_T0_, symObjAddr: 0xF90C, symBinAddr: 0x100011F6C, symSize: 0x3C }
  - { offsetInCU: 0x3B25D, offset: 0x3B25D, size: 0x8, addend: 0x0, symName: __ZNSt3__16fill_nB7v160006IPcmcEET_S2_T0_RKT1_, symObjAddr: 0xF9D8, symBinAddr: 0x100012038, symSize: 0x44 }
  - { offsetInCU: 0x3B2C1, offset: 0x3B2C1, size: 0x8, addend: 0x0, symName: __ZNSt3__18__fill_nB7v160006IPcmcEET_S2_T0_RKT1_, symObjAddr: 0xFA1C, symBinAddr: 0x10001207C, symSize: 0x64 }
  - { offsetInCU: 0x3B325, offset: 0x3B325, size: 0x8, addend: 0x0, symName: __ZNSt3__121__convert_to_integralB7v160006Em, symObjAddr: 0xFA80, symBinAddr: 0x1000120E0, symSize: 0x14 }
  - { offsetInCU: 0x3B352, offset: 0x3B352, size: 0x8, addend: 0x0, symName: __ZNSt3__115__debug_db_swapB7v160006INS_12basic_stringIcNS_11char_traitsIcEENS_9allocatorIcEEEEEEvPT_S8_, symObjAddr: 0xFB60, symBinAddr: 0x1000121C0, symSize: 0x14 }
  - { offsetInCU: 0x3B40B, offset: 0x3B40B, size: 0x8, addend: 0x0, symName: __ZNSt3__1neB7v160006ERKNS_16__deque_iteratorINS_12basic_stringIcNS_11char_traitsIcEENS_9allocatorIcEEEEPS6_RS6_PS7_lLl170EEESC_, symObjAddr: 0x1001C, symBinAddr: 0x10001267C, symSize: 0x34 }
  - { offsetInCU: 0x3B448, offset: 0x3B448, size: 0x8, addend: 0x0, symName: __ZNSt3__1eqB7v160006ERKNS_16__deque_iteratorINS_12basic_stringIcNS_11char_traitsIcEENS_9allocatorIcEEEEPS6_RS6_PS7_lLl170EEESC_, symObjAddr: 0x10284, symBinAddr: 0x1000128E4, symSize: 0x30 }
  - { offsetInCU: 0x3B486, offset: 0x3B486, size: 0x8, addend: 0x0, symName: __ZNSt3__112__to_addressB7v160006IPNS_12basic_stringIcNS_11char_traitsIcEENS_9allocatorIcEEEEEEPT_S9_, symObjAddr: 0x10580, symBinAddr: 0x100012BE0, symSize: 0x14 }
  - { offsetInCU: 0x3B4BB, offset: 0x3B4BB, size: 0x8, addend: 0x0, symName: __ZNSt3__110destroy_atB7v160006IPNS_12basic_stringIcNS_11char_traitsIcEENS_9allocatorIcEEEELi0EEEvPT_, symObjAddr: 0x10594, symBinAddr: 0x100012BF4, symSize: 0x24 }
  - { offsetInCU: 0x3B4F3, offset: 0x3B4F3, size: 0x8, addend: 0x0, symName: __ZNSt3__112__destroy_atB7v160006IPNS_12basic_stringIcNS_11char_traitsIcEENS_9allocatorIcEEEELi0EEEvPT_, symObjAddr: 0x105B8, symBinAddr: 0x100012C18, symSize: 0x10 }
  - { offsetInCU: 0x3B52A, offset: 0x3B52A, size: 0x8, addend: 0x0, symName: __ZNSt3__1eqB7v160006IPNS_12basic_stringIcNS_11char_traitsIcEENS_9allocatorIcEEEEEEbRKNS_11__wrap_iterIT_EESC_, symObjAddr: 0x10734, symBinAddr: 0x100012D94, symSize: 0x48 }
  - { offsetInCU: 0x3B56D, offset: 0x3B56D, size: 0x8, addend: 0x0, symName: __ZNSt3__1eqB7v160006IP11TargetRulesEEbRKNS_11__wrap_iterIT_EES7_, symObjAddr: 0x1098C, symBinAddr: 0x100012FEC, symSize: 0x48 }
  - { offsetInCU: 0x3B5B1, offset: 0x3B5B1, size: 0x8, addend: 0x0, symName: __ZNSt3__119__debug_db_insert_cB7v160006INS_6vectorIPcNS_9allocatorIS2_EEEEEEvPT_, symObjAddr: 0x10C2C, symBinAddr: 0x10001328C, symSize: 0x10 }
  - { offsetInCU: 0x3B5E3, offset: 0x3B5E3, size: 0x8, addend: 0x0, symName: __ZNSt3__112__to_addressB7v160006IPcEEPT_S3_, symObjAddr: 0x10F60, symBinAddr: 0x1000135C0, symSize: 0x14 }
  - { offsetInCU: 0x3B640, offset: 0x3B640, size: 0x8, addend: 0x0, symName: __ZNSt3__112construct_atB7v160006IPcJRKS1_EPS1_EEPT_S6_DpOT0_, symObjAddr: 0x10FE4, symBinAddr: 0x100013644, symSize: 0x2C }
  - { offsetInCU: 0x3B6B2, offset: 0x3B6B2, size: 0x8, addend: 0x0, symName: __ZNSt3__119__allocate_at_leastB7v160006INS_9allocatorIPcEEEENS_19__allocation_resultINS_16allocator_traitsIT_E7pointerEEERS6_m, symObjAddr: 0x11580, symBinAddr: 0x100013BE0, symSize: 0x40 }
  - { offsetInCU: 0x3B6F5, offset: 0x3B6F5, size: 0x8, addend: 0x0, symName: __ZNSt3__142__uninitialized_allocator_move_if_noexceptB7v160006INS_9allocatorIPcEENS_16reverse_iteratorIPS2_EES6_S2_vEET1_RT_T0_SA_S7_, symObjAddr: 0x117EC, symBinAddr: 0x100013E4C, symSize: 0x78 }
  - { offsetInCU: 0x3B774, offset: 0x3B774, size: 0x8, addend: 0x0, symName: __ZNSt3__14swapB7v160006IPPcEENS_9enable_ifIXaasr21is_move_constructibleIT_EE5valuesr18is_move_assignableIS4_EE5valueEvE4typeERS4_S7_, symObjAddr: 0x118B0, symBinAddr: 0x100013F10, symSize: 0x3C }
  - { offsetInCU: 0x3B7C6, offset: 0x3B7C6, size: 0x8, addend: 0x0, symName: __ZNSt3__125__debug_db_invalidate_allB7v160006INS_6vectorIPcNS_9allocatorIS2_EEEEEEvPT_, symObjAddr: 0x11998, symBinAddr: 0x100013FF8, symSize: 0x10 }
  - { offsetInCU: 0x3B7F7, offset: 0x3B7F7, size: 0x8, addend: 0x0, symName: __ZNSt3__14moveB7v160006INS_16reverse_iteratorIPPcEES4_EET0_T_S6_S5_, symObjAddr: 0x119F0, symBinAddr: 0x100014050, symSize: 0x78 }
  - { offsetInCU: 0x3B851, offset: 0x3B851, size: 0x8, addend: 0x0, symName: __ZNSt3__16__moveB7v160006INS_17_ClassicAlgPolicyENS_16reverse_iteratorIPPcEES5_S5_EENS_4pairIT0_T2_EES7_T1_S8_, symObjAddr: 0x11A68, symBinAddr: 0x1000140C8, symSize: 0x64 }
  - { offsetInCU: 0x3B8BD, offset: 0x3B8BD, size: 0x8, addend: 0x0, symName: __ZNSt3__123__dispatch_copy_or_moveB7v160006INS_17_ClassicAlgPolicyENS_11__move_loopIS1_EENS_14__move_trivialENS_16reverse_iteratorIPPcEES8_S8_EENS_4pairIT2_T4_EESA_T3_SB_, symObjAddr: 0x11ACC, symBinAddr: 0x10001412C, symSize: 0x64 }
  - { offsetInCU: 0x3B93B, offset: 0x3B93B, size: 0x8, addend: 0x0, symName: __ZNSt3__121__unwrap_and_dispatchB7v160006INS_10__overloadINS_11__move_loopINS_17_ClassicAlgPolicyEEENS_14__move_trivialEEENS_16reverse_iteratorIPPcEESA_SA_Li0EEENS_4pairIT0_T2_EESC_T1_SD_, symObjAddr: 0x11B30, symBinAddr: 0x100014190, symSize: 0x12C }
  - { offsetInCU: 0x3B9CB, offset: 0x3B9CB, size: 0x8, addend: 0x0, symName: __ZNSt3__114__unwrap_rangeB7v160006INS_16reverse_iteratorIPPcEES4_EEDaT_T0_, symObjAddr: 0x11C5C, symBinAddr: 0x1000142BC, symSize: 0x4C }
  - { offsetInCU: 0x3BB85, offset: 0x3BB85, size: 0x8, addend: 0x0, symName: __ZNSt3__113__unwrap_iterB7v160006INS_16reverse_iteratorIPPcEENS_18__unwrap_iter_implIS4_Lb0EEELi0EEEDTclsrT0_8__unwrapclsr3stdE7declvalIT_EEEES8_, symObjAddr: 0x11D48, symBinAddr: 0x1000143A8, symSize: 0x44 }
  - { offsetInCU: 0x3BBC9, offset: 0x3BBC9, size: 0x8, addend: 0x0, symName: __ZNSt3__19make_pairB7v160006INS_16reverse_iteratorIPPcEES4_EENS_4pairINS_18__unwrap_ref_decayIT_E4typeENS6_IT0_E4typeEEEOS7_OSA_, symObjAddr: 0x11D8C, symBinAddr: 0x1000143EC, symSize: 0x38 }
  - { offsetInCU: 0x3BC18, offset: 0x3BC18, size: 0x8, addend: 0x0, symName: __ZNSt3__114__rewrap_rangeB7v160006INS_16reverse_iteratorIPPcEES4_S4_EET0_S5_T1_, symObjAddr: 0x11DC4, symBinAddr: 0x100014424, symSize: 0x5C }
  - { offsetInCU: 0x3BC6D, offset: 0x3BC6D, size: 0x8, addend: 0x0, symName: __ZNSt3__113__rewrap_iterB7v160006INS_16reverse_iteratorIPPcEES4_NS_18__unwrap_iter_implIS4_Lb0EEEEET_S7_T0_, symObjAddr: 0x11E20, symBinAddr: 0x100014480, symSize: 0x74 }
  - { offsetInCU: 0x3BD12, offset: 0x3BD12, size: 0x8, addend: 0x0, symName: __ZNSt3__1neB7v160006IPPcS2_EEbRKNS_16reverse_iteratorIT_EERKNS3_IT0_EE, symObjAddr: 0x11F88, symBinAddr: 0x1000145E8, symSize: 0x48 }
  - { offsetInCU: 0x3BE81, offset: 0x3BE81, size: 0x8, addend: 0x0, symName: __ZNSt3__110destroy_atB7v160006IPcLi0EEEvPT_, symObjAddr: 0x12314, symBinAddr: 0x100014974, symSize: 0x24 }
  - { offsetInCU: 0x3BEB9, offset: 0x3BEB9, size: 0x8, addend: 0x0, symName: __ZNSt3__112__destroy_atB7v160006IPcLi0EEEvPT_, symObjAddr: 0x12338, symBinAddr: 0x100014998, symSize: 0x10 }
  - { offsetInCU: 0x3BEF1, offset: 0x3BEF1, size: 0x8, addend: 0x0, symName: __ZNSt3__112construct_atB7v160006IPcJS1_EPS1_EEPT_S4_DpOT0_, symObjAddr: 0x1256C, symBinAddr: 0x100014BCC, symSize: 0x2C }
  - { offsetInCU: 0x3BF64, offset: 0x3BF64, size: 0x8, addend: 0x0, symName: __ZNSt3__118__debug_db_erase_cB7v160006INS_6vectorIPcNS_9allocatorIS2_EEEEEEvPT_, symObjAddr: 0x126CC, symBinAddr: 0x100014D2C, symSize: 0x10 }
  - { offsetInCU: 0x3BF96, offset: 0x3BF96, size: 0x8, addend: 0x0, symName: __ZNSt3__134__libcpp_atomic_refcount_incrementB7v160006IlEET_RS1_, symObjAddr: 0x129BC, symBinAddr: 0x10001501C, symSize: 0x30 }
  - { offsetInCU: 0x3BFCB, offset: 0x3BFCB, size: 0x8, addend: 0x0, symName: __ZNSt3__1eqB7v160006INS_4__fs10filesystem12__dir_streamES3_EEbRKNS_10shared_ptrIT_EERKNS4_IT0_EE, symObjAddr: 0x12B68, symBinAddr: 0x1000151C8, symSize: 0x48 }
  - { offsetInCU: 0x3C01B, offset: 0x3C01B, size: 0x8, addend: 0x0, symName: __ZNSt3__119__debug_db_insert_cB7v160006INS_6vectorI5MacroNS_9allocatorIS2_EEEEEEvPT_, symObjAddr: 0x12FAC, symBinAddr: 0x10001560C, symSize: 0x10 }
  - { offsetInCU: 0x3C04D, offset: 0x3C04D, size: 0x8, addend: 0x0, symName: __ZNSt3__119__debug_db_insert_cB7v160006INS_6vectorI11TargetRulesNS_9allocatorIS2_EEEEEEvPT_, symObjAddr: 0x130FC, symBinAddr: 0x10001575C, symSize: 0x10 }
  - { offsetInCU: 0x3C07F, offset: 0x3C07F, size: 0x8, addend: 0x0, symName: __ZNSt3__119__debug_db_insert_cB7v160006INS_6vectorI13InferenceRuleNS_9allocatorIS2_EEEEEEvPT_, symObjAddr: 0x1324C, symBinAddr: 0x1000158AC, symSize: 0x10 }
  - { offsetInCU: 0x3C0B0, offset: 0x3C0B0, size: 0x8, addend: 0x0, symName: __ZNSt3__18distanceB7v160006IPPcEENS_15iterator_traitsIT_E15difference_typeES4_S4_, symObjAddr: 0x1340C, symBinAddr: 0x100015A6C, symSize: 0x2C }
  - { offsetInCU: 0x3C0F4, offset: 0x3C0F4, size: 0x8, addend: 0x0, symName: __ZNSt3__110__distanceB7v160006IPPcEENS_15iterator_traitsIT_E15difference_typeES4_S4_NS_26random_access_iterator_tagE, symObjAddr: 0x134C4, symBinAddr: 0x100015B24, symSize: 0x28 }
  - { offsetInCU: 0x3C141, offset: 0x3C141, size: 0x8, addend: 0x0, symName: __ZNSt3__130__uninitialized_allocator_copyB7v160006INS_9allocatorINS_12basic_stringIcNS_11char_traitsIcEENS1_IcEEEEEEPPcS9_PS6_EET2_RT_T0_T1_SB_, symObjAddr: 0x134EC, symBinAddr: 0x100015B4C, symSize: 0xF4 }
  - { offsetInCU: 0x3C1DF, offset: 0x3C1DF, size: 0x8, addend: 0x0, symName: __ZNSt3__112construct_atB7v160006INS_12basic_stringIcNS_11char_traitsIcEENS_9allocatorIcEEEEJRPcEPS6_EEPT_SB_DpOT0_, symObjAddr: 0x13610, symBinAddr: 0x100015C70, symSize: 0x40 }
  - { offsetInCU: 0x3C251, offset: 0x3C251, size: 0x8, addend: 0x0, symName: __ZNSt3__18distanceB7v160006IPNS_12basic_stringIcNS_11char_traitsIcEENS_9allocatorIcEEEEEENS_15iterator_traitsIT_E15difference_typeES9_S9_, symObjAddr: 0x1380C, symBinAddr: 0x100015E6C, symSize: 0x2C }
  - { offsetInCU: 0x3C294, offset: 0x3C294, size: 0x8, addend: 0x0, symName: __ZNSt3__14copyB7v160006IPNS_12basic_stringIcNS_11char_traitsIcEENS_9allocatorIcEEEES7_EET0_T_S9_S8_, symObjAddr: 0x13888, symBinAddr: 0x100015EE8, symSize: 0x40 }
  - { offsetInCU: 0x3C2EF, offset: 0x3C2EF, size: 0x8, addend: 0x0, symName: __ZNSt3__110__distanceB7v160006IPNS_12basic_stringIcNS_11char_traitsIcEENS_9allocatorIcEEEEEENS_15iterator_traitsIT_E15difference_typeES9_S9_NS_26random_access_iterator_tagE, symObjAddr: 0x13928, symBinAddr: 0x100015F88, symSize: 0x28 }
  - { offsetInCU: 0x3C33C, offset: 0x3C33C, size: 0x8, addend: 0x0, symName: __ZNSt3__16__copyB7v160006INS_17_ClassicAlgPolicyEPNS_12basic_stringIcNS_11char_traitsIcEENS_9allocatorIcEEEES8_S8_EENS_4pairIT0_T2_EESA_T1_SB_, symObjAddr: 0x13950, symBinAddr: 0x100015FB0, symSize: 0x44 }
  - { offsetInCU: 0x3C3A8, offset: 0x3C3A8, size: 0x8, addend: 0x0, symName: __ZNSt3__123__dispatch_copy_or_moveB7v160006INS_17_ClassicAlgPolicyENS_11__copy_loopIS1_EENS_14__copy_trivialEPNS_12basic_stringIcNS_11char_traitsIcEENS_9allocatorIcEEEESB_SB_EENS_4pairIT2_T4_EESD_T3_SE_, symObjAddr: 0x13994, symBinAddr: 0x100015FF4, symSize: 0x44 }
  - { offsetInCU: 0x3C426, offset: 0x3C426, size: 0x8, addend: 0x0, symName: __ZNSt3__121__unwrap_and_dispatchB7v160006INS_10__overloadINS_11__copy_loopINS_17_ClassicAlgPolicyEEENS_14__copy_trivialEEEPNS_12basic_stringIcNS_11char_traitsIcEENS_9allocatorIcEEEESD_SD_Li0EEENS_4pairIT0_T2_EESF_T1_SG_, symObjAddr: 0x139D8, symBinAddr: 0x100016038, symSize: 0xB4 }
  - { offsetInCU: 0x3C4B4, offset: 0x3C4B4, size: 0x8, addend: 0x0, symName: __ZNSt3__114__unwrap_rangeB7v160006IPNS_12basic_stringIcNS_11char_traitsIcEENS_9allocatorIcEEEES7_EEDaT_T0_, symObjAddr: 0x13A8C, symBinAddr: 0x1000160EC, symSize: 0x3C }
  - { offsetInCU: 0x3C6E3, offset: 0x3C6E3, size: 0x8, addend: 0x0, symName: __ZNSt3__113__unwrap_iterB7v160006IPNS_12basic_stringIcNS_11char_traitsIcEENS_9allocatorIcEEEENS_18__unwrap_iter_implIS7_Lb1EEELi0EEEDTclsrT0_8__unwrapclsr3stdE7declvalIT_EEEESB_, symObjAddr: 0x13B50, symBinAddr: 0x1000161B0, symSize: 0x24 }
  - { offsetInCU: 0x3C727, offset: 0x3C727, size: 0x8, addend: 0x0, symName: __ZNSt3__19make_pairB7v160006IPNS_12basic_stringIcNS_11char_traitsIcEENS_9allocatorIcEEEES7_EENS_4pairINS_18__unwrap_ref_decayIT_E4typeENS9_IT0_E4typeEEEOSA_OSD_, symObjAddr: 0x13B74, symBinAddr: 0x1000161D4, symSize: 0x38 }
  - { offsetInCU: 0x3C776, offset: 0x3C776, size: 0x8, addend: 0x0, symName: __ZNSt3__114__rewrap_rangeB7v160006IPNS_12basic_stringIcNS_11char_traitsIcEENS_9allocatorIcEEEES7_S7_EET0_S8_T1_, symObjAddr: 0x13BAC, symBinAddr: 0x10001620C, symSize: 0x2C }
  - { offsetInCU: 0x3C7CB, offset: 0x3C7CB, size: 0x8, addend: 0x0, symName: __ZNSt3__113__rewrap_iterB7v160006IPNS_12basic_stringIcNS_11char_traitsIcEENS_9allocatorIcEEEES7_NS_18__unwrap_iter_implIS7_Lb1EEEEET_SA_T0_, symObjAddr: 0x13BD8, symBinAddr: 0x100016238, symSize: 0x3C }
  - { offsetInCU: 0x3C8C3, offset: 0x3C8C3, size: 0x8, addend: 0x0, symName: __ZNSt3__122__make_exception_guardB7v160006INS_6vectorI5MacroNS_9allocatorIS2_EEE16__destroy_vectorEEENS_28__exception_guard_exceptionsIT_EES8_, symObjAddr: 0x14090, symBinAddr: 0x1000166F0, symSize: 0x40 }
  - { offsetInCU: 0x3C8F8, offset: 0x3C8F8, size: 0x8, addend: 0x0, symName: __ZNSt3__130__uninitialized_allocator_copyB7v160006INS_9allocatorI5MacroEEPS2_S4_S4_EET2_RT_T0_T1_S5_, symObjAddr: 0x14360, symBinAddr: 0x1000169C0, symSize: 0xF4 }
  - { offsetInCU: 0x3C996, offset: 0x3C996, size: 0x8, addend: 0x0, symName: __ZNSt3__122__make_exception_guardB7v160006INS_29_AllocatorDestroyRangeReverseINS_9allocatorI5MacroEEPS3_EEEENS_28__exception_guard_exceptionsIT_EES8_, symObjAddr: 0x14454, symBinAddr: 0x100016AB4, symSize: 0x4C }
  - { offsetInCU: 0x3C9CC, offset: 0x3C9CC, size: 0x8, addend: 0x0, symName: __ZNSt3__112construct_atB7v160006I5MacroJRS1_EPS1_EEPT_S5_DpOT0_, symObjAddr: 0x145F8, symBinAddr: 0x100016C58, symSize: 0x3C }
  - { offsetInCU: 0x3CA3F, offset: 0x3CA3F, size: 0x8, addend: 0x0, symName: __ZNSt3__119__allocator_destroyB7v160006INS_9allocatorI5MacroEENS_16reverse_iteratorIPS2_EES6_EEvRT_T0_T1_, symObjAddr: 0x146EC, symBinAddr: 0x100016D4C, symSize: 0x70 }
  - { offsetInCU: 0x3CAA3, offset: 0x3CAA3, size: 0x8, addend: 0x0, symName: __ZNSt3__118__debug_db_erase_cB7v160006INS_6vectorI5MacroNS_9allocatorIS2_EEEEEEvPT_, symObjAddr: 0x14848, symBinAddr: 0x100016EA8, symSize: 0x10 }
  - { offsetInCU: 0x3CAD4, offset: 0x3CAD4, size: 0x8, addend: 0x0, symName: __ZNSt3__122__make_exception_guardB7v160006INS_6vectorI11TargetRulesNS_9allocatorIS2_EEE16__destroy_vectorEEENS_28__exception_guard_exceptionsIT_EES8_, symObjAddr: 0x14A68, symBinAddr: 0x1000170C8, symSize: 0x40 }
  - { offsetInCU: 0x3CB09, offset: 0x3CB09, size: 0x8, addend: 0x0, symName: __ZNSt3__130__uninitialized_allocator_copyB7v160006INS_9allocatorI11TargetRulesEEPS2_S4_S4_EET2_RT_T0_T1_S5_, symObjAddr: 0x14D38, symBinAddr: 0x100017398, symSize: 0xF4 }
  - { offsetInCU: 0x3CBA7, offset: 0x3CBA7, size: 0x8, addend: 0x0, symName: __ZNSt3__122__make_exception_guardB7v160006INS_29_AllocatorDestroyRangeReverseINS_9allocatorI11TargetRulesEEPS3_EEEENS_28__exception_guard_exceptionsIT_EES8_, symObjAddr: 0x14E2C, symBinAddr: 0x10001748C, symSize: 0x4C }
  - { offsetInCU: 0x3CBDD, offset: 0x3CBDD, size: 0x8, addend: 0x0, symName: __ZNSt3__112construct_atB7v160006I11TargetRulesJRS1_EPS1_EEPT_S5_DpOT0_, symObjAddr: 0x14FD0, symBinAddr: 0x100017630, symSize: 0x3C }
  - { offsetInCU: 0x3CC50, offset: 0x3CC50, size: 0x8, addend: 0x0, symName: __ZNSt3__119__allocator_destroyB7v160006INS_9allocatorI11TargetRulesEENS_16reverse_iteratorIPS2_EES6_EEvRT_T0_T1_, symObjAddr: 0x150C4, symBinAddr: 0x100017724, symSize: 0x70 }
  - { offsetInCU: 0x3CCB4, offset: 0x3CCB4, size: 0x8, addend: 0x0, symName: __ZNSt3__118__debug_db_erase_cB7v160006INS_6vectorI11TargetRulesNS_9allocatorIS2_EEEEEEvPT_, symObjAddr: 0x15220, symBinAddr: 0x100017880, symSize: 0x10 }
  - { offsetInCU: 0x3CCE5, offset: 0x3CCE5, size: 0x8, addend: 0x0, symName: __ZNSt3__122__make_exception_guardB7v160006INS_6vectorI13InferenceRuleNS_9allocatorIS2_EEE16__destroy_vectorEEENS_28__exception_guard_exceptionsIT_EES8_, symObjAddr: 0x153B4, symBinAddr: 0x100017A14, symSize: 0x40 }
  - { offsetInCU: 0x3CD1A, offset: 0x3CD1A, size: 0x8, addend: 0x0, symName: __ZNSt3__130__uninitialized_allocator_copyB7v160006INS_9allocatorI13InferenceRuleEEPS2_S4_S4_EET2_RT_T0_T1_S5_, symObjAddr: 0x15684, symBinAddr: 0x100017CE4, symSize: 0xF4 }
  - { offsetInCU: 0x3CDB8, offset: 0x3CDB8, size: 0x8, addend: 0x0, symName: __ZNSt3__122__make_exception_guardB7v160006INS_29_AllocatorDestroyRangeReverseINS_9allocatorI13InferenceRuleEEPS3_EEEENS_28__exception_guard_exceptionsIT_EES8_, symObjAddr: 0x15778, symBinAddr: 0x100017DD8, symSize: 0x4C }
  - { offsetInCU: 0x3CDEE, offset: 0x3CDEE, size: 0x8, addend: 0x0, symName: __ZNSt3__112construct_atB7v160006I13InferenceRuleJRS1_EPS1_EEPT_S5_DpOT0_, symObjAddr: 0x1591C, symBinAddr: 0x100017F7C, symSize: 0x3C }
  - { offsetInCU: 0x3CE61, offset: 0x3CE61, size: 0x8, addend: 0x0, symName: __ZNSt3__119__allocator_destroyB7v160006INS_9allocatorI13InferenceRuleEENS_16reverse_iteratorIPS2_EES6_EEvRT_T0_T1_, symObjAddr: 0x15A10, symBinAddr: 0x100018070, symSize: 0x70 }
  - { offsetInCU: 0x3CEC5, offset: 0x3CEC5, size: 0x8, addend: 0x0, symName: __ZNSt3__118__debug_db_erase_cB7v160006INS_6vectorI13InferenceRuleNS_9allocatorIS2_EEEEEEvPT_, symObjAddr: 0x15B6C, symBinAddr: 0x1000181CC, symSize: 0x10 }
  - { offsetInCU: 0x3CEF6, offset: 0x3CEF6, size: 0x8, addend: 0x0, symName: __ZNSt3__116__pad_and_outputB7v160006IcNS_11char_traitsIcEEEENS_19ostreambuf_iteratorIT_T0_EES6_PKS4_S8_S8_RNS_8ios_baseES4_, symObjAddr: 0x15F74, symBinAddr: 0x1000185D4, symSize: 0x240 }
  - { offsetInCU: 0x3CFC5, offset: 0x3CFC5, size: 0x8, addend: 0x0, symName: __ZNSt3__19use_facetB7v160006INS_5ctypeIcEEEERKT_RKNS_6localeE, symObjAddr: 0x16530, symBinAddr: 0x100018B90, symSize: 0x2C }
  - { offsetInCU: 0x3CFFD, offset: 0x3CFFD, size: 0x8, addend: 0x0, symName: __ZNSt3__125__debug_db_invalidate_allB7v160006INS_12basic_stringIcNS_11char_traitsIcEENS_9allocatorIcEEEEEEvPT_, symObjAddr: 0x16B6C, symBinAddr: 0x1000191CC, symSize: 0x10 }
  - { offsetInCU: 0x3D02E, offset: 0x3D02E, size: 0x8, addend: 0x0, symName: __ZNSt3__19use_facetB7v160006INS_7collateIcEEEERKT_RKNS_6localeE, symObjAddr: 0x16F24, symBinAddr: 0x100019584, symSize: 0x2C }
  - { offsetInCU: 0x3D065, offset: 0x3D065, size: 0x8, addend: 0x0, symName: __ZNSt3__1neB7v160006IPKcEEbRKNS_11__wrap_iterIT_EES7_, symObjAddr: 0x1725C, symBinAddr: 0x1000198BC, symSize: 0x34 }
  - { offsetInCU: 0x3D0A9, offset: 0x3D0A9, size: 0x8, addend: 0x0, symName: __ZNSt3__119__throw_regex_errorB7v160006ILNS_15regex_constants10error_typeE17EEEvv, symObjAddr: 0x17290, symBinAddr: 0x1000198F0, symSize: 0x60 }
  - { offsetInCU: 0x3D53B, offset: 0x3D53B, size: 0x8, addend: 0x0, symName: __ZNSt3__119__throw_regex_errorB7v160006ILNS_15regex_constants10error_typeE14EEEvv, symObjAddr: 0x17C54, symBinAddr: 0x10001A2B4, symSize: 0x60 }
  - { offsetInCU: 0x3DF83, offset: 0x3DF83, size: 0x8, addend: 0x0, symName: __ZNSt3__14swapB7v160006IPNS_13__empty_stateIcEEEENS_9enable_ifIXaasr21is_move_constructibleIT_EE5valuesr18is_move_assignableIS5_EE5valueEvE4typeERS5_S8_, symObjAddr: 0x18BA8, symBinAddr: 0x10001B208, symSize: 0x3C }
  - { offsetInCU: 0x3DFD5, offset: 0x3DFD5, size: 0x8, addend: 0x0, symName: __ZNSt3__14swapB7v160006IPNS_19__shared_weak_countEEENS_9enable_ifIXaasr21is_move_constructibleIT_EE5valuesr18is_move_assignableIS4_EE5valueEvE4typeERS4_S7_, symObjAddr: 0x18BE4, symBinAddr: 0x10001B244, symSize: 0x3C }
  - { offsetInCU: 0x3E026, offset: 0x3E026, size: 0x8, addend: 0x0, symName: __ZNSt3__1eqB7v160006IPKcEEbRKNS_11__wrap_iterIT_EES7_, symObjAddr: 0x19194, symBinAddr: 0x10001B7F4, symSize: 0x48 }
  - { offsetInCU: 0x3E069, offset: 0x3E069, size: 0x8, addend: 0x0, symName: __ZNSt3__14nextB7v160006INS_11__wrap_iterIPKcEEEENS_9enable_ifIXsr25__is_cpp17_input_iteratorIT_EE5valueES6_E4typeES6_NS_15iterator_traitsIS6_E15difference_typeE, symObjAddr: 0x1A520, symBinAddr: 0x10001CB80, symSize: 0x50 }
  - { offsetInCU: 0x3E0AD, offset: 0x3E0AD, size: 0x8, addend: 0x0, symName: __ZNSt3__119__throw_regex_errorB7v160006ILNS_15regex_constants10error_typeE6EEEvv, symObjAddr: 0x1A730, symBinAddr: 0x10001CD90, symSize: 0x60 }
  - { offsetInCU: 0x3E158, offset: 0x3E158, size: 0x8, addend: 0x0, symName: __ZNSt3__18__is_eolB7v160006IcEEbT_, symObjAddr: 0x1AA84, symBinAddr: 0x10001D0E4, symSize: 0x48 }
  - { offsetInCU: 0x3E18F, offset: 0x3E18F, size: 0x8, addend: 0x0, symName: __ZNSt3__14prevB7v160006IPKcEENS_9enable_ifIXsr25__is_cpp17_input_iteratorIT_EE5valueES4_E4typeES4_NS_15iterator_traitsIS4_E15difference_typeE, symObjAddr: 0x1AACC, symBinAddr: 0x10001D12C, symSize: 0x50 }
  - { offsetInCU: 0x3E1D3, offset: 0x3E1D3, size: 0x8, addend: 0x0, symName: __ZNSt3__19__advanceB7v160006IPKcEEvRT_NS_15iterator_traitsIS3_E15difference_typeENS_26random_access_iterator_tagE, symObjAddr: 0x1AB6C, symBinAddr: 0x10001D1CC, symSize: 0x28 }
  - { offsetInCU: 0x3E2A2, offset: 0x3E2A2, size: 0x8, addend: 0x0, symName: __ZNSt3__19__advanceB7v160006INS_11__wrap_iterIPKcEEEEvRT_NS_15iterator_traitsIS5_E15difference_typeENS_26random_access_iterator_tagE, symObjAddr: 0x1AE04, symBinAddr: 0x10001D464, symSize: 0x2C }
  - { offsetInCU: 0x3E755, offset: 0x3E755, size: 0x8, addend: 0x0, symName: __ZNSt3__119__debug_db_insert_cB7v160006INS_6vectorINS_9sub_matchIPKcEENS_9allocatorIS5_EEEEEEvPT_, symObjAddr: 0x1C344, symBinAddr: 0x10001E9A4, symSize: 0x10 }
  - { offsetInCU: 0x3E787, offset: 0x3E787, size: 0x8, addend: 0x0, symName: __ZNSt3__118__debug_db_erase_cB7v160006INS_6vectorINS_9sub_matchIPKcEENS_9allocatorIS5_EEEEEEvPT_, symObjAddr: 0x1C620, symBinAddr: 0x10001EC80, symSize: 0x10 }
  - { offsetInCU: 0x3E7B9, offset: 0x3E7B9, size: 0x8, addend: 0x0, symName: __ZNSt3__112__to_addressB7v160006INS_9sub_matchIPKcEEEEPT_S6_, symObjAddr: 0x1C764, symBinAddr: 0x10001EDC4, symSize: 0x14 }
  - { offsetInCU: 0x3E7EE, offset: 0x3E7EE, size: 0x8, addend: 0x0, symName: __ZNSt3__110destroy_atB7v160006INS_9sub_matchIPKcEELi0EEEvPT_, symObjAddr: 0x1C82C, symBinAddr: 0x10001EE8C, symSize: 0x24 }
  - { offsetInCU: 0x3E826, offset: 0x3E826, size: 0x8, addend: 0x0, symName: __ZNSt3__112__destroy_atB7v160006INS_9sub_matchIPKcEELi0EEEvPT_, symObjAddr: 0x1C850, symBinAddr: 0x10001EEB0, symSize: 0x10 }
  - { offsetInCU: 0x3E85D, offset: 0x3E85D, size: 0x8, addend: 0x0, symName: __ZNSt3__16fill_nB7v160006IPNS_9sub_matchIPKcEEmS4_EET_S6_T0_RKT1_, symObjAddr: 0x1CA54, symBinAddr: 0x10001F0B4, symSize: 0x44 }
  - { offsetInCU: 0x3E8C1, offset: 0x3E8C1, size: 0x8, addend: 0x0, symName: __ZNSt3__125__debug_db_invalidate_allB7v160006INS_6vectorINS_9sub_matchIPKcEENS_9allocatorIS5_EEEEEEvPT_, symObjAddr: 0x1CDBC, symBinAddr: 0x10001F41C, symSize: 0x10 }
  - { offsetInCU: 0x3E8F2, offset: 0x3E8F2, size: 0x8, addend: 0x0, symName: __ZNSt3__18__fill_nB7v160006IPNS_9sub_matchIPKcEEmS4_EET_S6_T0_RKT1_, symObjAddr: 0x1CDCC, symBinAddr: 0x10001F42C, symSize: 0x6C }
  - { offsetInCU: 0x3E97D, offset: 0x3E97D, size: 0x8, addend: 0x0, symName: __ZNSt3__112construct_atB7v160006INS_9sub_matchIPKcEEJRKS4_EPS4_EEPT_S9_DpOT0_, symObjAddr: 0x1CF1C, symBinAddr: 0x10001F57C, symSize: 0x34 }
  - { offsetInCU: 0x3E9EF, offset: 0x3E9EF, size: 0x8, addend: 0x0, symName: __ZNSt3__119__allocate_at_leastB7v160006INS_9allocatorINS_9sub_matchIPKcEEEEEENS_19__allocation_resultINS_16allocator_traitsIT_E7pointerEEERS9_m, symObjAddr: 0x1D184, symBinAddr: 0x10001F7E4, symSize: 0x40 }
  - { offsetInCU: 0x3EA33, offset: 0x3EA33, size: 0x8, addend: 0x0, symName: __ZNSt3__119__throw_regex_errorB7v160006ILNS_15regex_constants10error_typeE12EEEvv, symObjAddr: 0x1D5CC, symBinAddr: 0x10001FC2C, symSize: 0x60 }
  - { offsetInCU: 0x3EA58, offset: 0x3EA58, size: 0x8, addend: 0x0, symName: __ZNSt3__14nextB7v160006IPKcEENS_9enable_ifIXsr25__is_cpp17_input_iteratorIT_EE5valueES4_E4typeES4_NS_15iterator_traitsIS4_E15difference_typeE, symObjAddr: 0x1D658, symBinAddr: 0x10001FCB8, symSize: 0x48 }
  - { offsetInCU: 0x3EA9C, offset: 0x3EA9C, size: 0x8, addend: 0x0, symName: __ZNSt3__119__throw_regex_errorB7v160006ILNS_15regex_constants10error_typeE16EEEvv, symObjAddr: 0x1D6D4, symBinAddr: 0x10001FD34, symSize: 0x60 }
  - { offsetInCU: 0x3EAC2, offset: 0x3EAC2, size: 0x8, addend: 0x0, symName: __ZNSt3__119__debug_db_insert_cB7v160006INS_6vectorINS_7__stateIcEENS_9allocatorIS3_EEEEEEvPT_, symObjAddr: 0x1D81C, symBinAddr: 0x10001FE7C, symSize: 0x10 }
  - { offsetInCU: 0x3EAF4, offset: 0x3EAF4, size: 0x8, addend: 0x0, symName: __ZNSt3__112__to_addressB7v160006INS_7__stateIcEEEEPT_S4_, symObjAddr: 0x1DB50, symBinAddr: 0x1000201B0, symSize: 0x14 }
  - { offsetInCU: 0x3EB50, offset: 0x3EB50, size: 0x8, addend: 0x0, symName: __ZNSt3__112construct_atB7v160006INS_7__stateIcEEJS2_EPS2_EEPT_S5_DpOT0_, symObjAddr: 0x1DBDC, symBinAddr: 0x10002023C, symSize: 0x3C }
  - { offsetInCU: 0x3EBC3, offset: 0x3EBC3, size: 0x8, addend: 0x0, symName: __ZNSt3__115__debug_db_swapB7v160006INS_6vectorINS_9sub_matchIPKcEENS_9allocatorIS5_EEEEEEvPT_SA_, symObjAddr: 0x1DE44, symBinAddr: 0x1000204A4, symSize: 0x14 }
  - { offsetInCU: 0x3EC03, offset: 0x3EC03, size: 0x8, addend: 0x0, symName: __ZNSt3__119__debug_db_insert_cB7v160006INS_6vectorINS_4pairImPKcEENS_9allocatorIS5_EEEEEEvPT_, symObjAddr: 0x1DFF8, symBinAddr: 0x100020658, symSize: 0x10 }
  - { offsetInCU: 0x3EC35, offset: 0x3EC35, size: 0x8, addend: 0x0, symName: __ZNSt3__115__debug_db_swapB7v160006INS_6vectorINS_4pairImPKcEENS_9allocatorIS5_EEEEEEvPT_SA_, symObjAddr: 0x1E008, symBinAddr: 0x100020668, symSize: 0x14 }
  - { offsetInCU: 0x3EC74, offset: 0x3EC74, size: 0x8, addend: 0x0, symName: __ZNSt3__119__allocate_at_leastB7v160006INS_9allocatorINS_7__stateIcEEEEEENS_19__allocation_resultINS_16allocator_traitsIT_E7pointerEEERS7_m, symObjAddr: 0x1E6A8, symBinAddr: 0x100020D08, symSize: 0x40 }
  - { offsetInCU: 0x3ECB7, offset: 0x3ECB7, size: 0x8, addend: 0x0, symName: __ZNSt3__142__uninitialized_allocator_move_if_noexceptB7v160006INS_9allocatorINS_7__stateIcEEEENS_16reverse_iteratorIPS3_EES7_S7_EET2_RT_T0_T1_S8_, symObjAddr: 0x1E934, symBinAddr: 0x100020F94, symSize: 0x12C }
  - { offsetInCU: 0x3ED58, offset: 0x3ED58, size: 0x8, addend: 0x0, symName: __ZNSt3__14swapB7v160006IPNS_7__stateIcEEEENS_9enable_ifIXaasr21is_move_constructibleIT_EE5valuesr18is_move_assignableIS5_EE5valueEvE4typeERS5_S8_, symObjAddr: 0x1EAAC, symBinAddr: 0x10002110C, symSize: 0x3C }
  - { offsetInCU: 0x3EDAA, offset: 0x3EDAA, size: 0x8, addend: 0x0, symName: __ZNSt3__125__debug_db_invalidate_allB7v160006INS_6vectorINS_7__stateIcEENS_9allocatorIS3_EEEEEEvPT_, symObjAddr: 0x1EBB0, symBinAddr: 0x100021210, symSize: 0x10 }
  - { offsetInCU: 0x3EDDB, offset: 0x3EDDB, size: 0x8, addend: 0x0, symName: __ZNSt3__122__make_exception_guardB7v160006INS_29_AllocatorDestroyRangeReverseINS_9allocatorINS_7__stateIcEEEENS_16reverse_iteratorIPS4_EEEEEENS_28__exception_guard_exceptionsIT_EESB_, symObjAddr: 0x1EC08, symBinAddr: 0x100021268, symSize: 0x4C }
  - { offsetInCU: 0x3EE11, offset: 0x3EE11, size: 0x8, addend: 0x0, symName: __ZNSt3__1neB7v160006IPNS_7__stateIcEES3_EEbRKNS_16reverse_iteratorIT_EERKNS4_IT0_EE, symObjAddr: 0x1EC98, symBinAddr: 0x1000212F8, symSize: 0x48 }
  - { offsetInCU: 0x3EE5D, offset: 0x3EE5D, size: 0x8, addend: 0x0, symName: __ZNSt3__112__to_addressB7v160006INS_16reverse_iteratorIPNS_7__stateIcEEEEvEENS_5decayIDTclsr19__to_address_helperIT_EE6__callclsr3stdE7declvalIRKS7_EEEEE4typeES9_, symObjAddr: 0x1ECE0, symBinAddr: 0x100021340, symSize: 0x24 }
  - { offsetInCU: 0x3EEBC, offset: 0x3EEBC, size: 0x8, addend: 0x0, symName: __ZNSt3__14prevB7v160006IPNS_7__stateIcEEEENS_9enable_ifIXsr25__is_cpp17_input_iteratorIT_EE5valueES5_E4typeES5_NS_15iterator_traitsIS5_E15difference_typeE, symObjAddr: 0x1EE94, symBinAddr: 0x1000214F4, symSize: 0x50 }
  - { offsetInCU: 0x3EF00, offset: 0x3EF00, size: 0x8, addend: 0x0, symName: __ZNSt3__19__advanceB7v160006IPNS_7__stateIcEEEEvRT_NS_15iterator_traitsIS4_E15difference_typeENS_26random_access_iterator_tagE, symObjAddr: 0x1EF34, symBinAddr: 0x100021594, symSize: 0x30 }
  - { offsetInCU: 0x3EF4A, offset: 0x3EF4A, size: 0x8, addend: 0x0, symName: __ZNSt3__119__allocator_destroyB7v160006INS_9allocatorINS_7__stateIcEEEENS_16reverse_iteratorINS5_IPS3_EEEES8_EEvRT_T0_T1_, symObjAddr: 0x1F068, symBinAddr: 0x1000216C8, symSize: 0x70 }
  - { offsetInCU: 0x3EFAF, offset: 0x3EFAF, size: 0x8, addend: 0x0, symName: __ZNSt3__1neB7v160006INS_16reverse_iteratorIPNS_7__stateIcEEEES5_EEbRKNS1_IT_EERKNS1_IT0_EE, symObjAddr: 0x1F114, symBinAddr: 0x100021774, symSize: 0x60 }
  - { offsetInCU: 0x3EFFB, offset: 0x3EFFB, size: 0x8, addend: 0x0, symName: __ZNSt3__112__to_addressB7v160006INS_16reverse_iteratorINS1_IPNS_7__stateIcEEEEEEvEENS_5decayIDTclsr19__to_address_helperIT_EE6__callclsr3stdE7declvalIRKS8_EEEEE4typeESA_, symObjAddr: 0x1F19C, symBinAddr: 0x1000217FC, symSize: 0x24 }
  - { offsetInCU: 0x3F031, offset: 0x3F031, size: 0x8, addend: 0x0, symName: __ZNSt3__110destroy_atB7v160006INS_7__stateIcEELi0EEEvPT_, symObjAddr: 0x1F214, symBinAddr: 0x100021874, symSize: 0x24 }
  - { offsetInCU: 0x3F068, offset: 0x3F068, size: 0x8, addend: 0x0, symName: __ZNSt3__112__destroy_atB7v160006INS_7__stateIcEELi0EEEvPT_, symObjAddr: 0x1F238, symBinAddr: 0x100021898, symSize: 0x24 }
  - { offsetInCU: 0x3F0C8, offset: 0x3F0C8, size: 0x8, addend: 0x0, symName: __ZNSt3__14prevB7v160006INS_16reverse_iteratorIPNS_7__stateIcEEEEEENS_9enable_ifIXsr25__is_cpp17_input_iteratorIT_EE5valueES7_E4typeES7_NS_15iterator_traitsIS7_E15difference_typeE, symObjAddr: 0x1F2E0, symBinAddr: 0x100021940, symSize: 0x60 }
  - { offsetInCU: 0x3F10B, offset: 0x3F10B, size: 0x8, addend: 0x0, symName: __ZNSt3__19__advanceB7v160006INS_16reverse_iteratorIPNS_7__stateIcEEEEEEvRT_NS_15iterator_traitsIS6_E15difference_typeENS_26random_access_iterator_tagE, symObjAddr: 0x1F390, symBinAddr: 0x1000219F0, symSize: 0x2C }
  - { offsetInCU: 0x3F155, offset: 0x3F155, size: 0x8, addend: 0x0, symName: __ZNSt3__118__debug_db_erase_cB7v160006INS_6vectorINS_4pairImPKcEENS_9allocatorIS5_EEEEEEvPT_, symObjAddr: 0x1FBFC, symBinAddr: 0x10002225C, symSize: 0x10 }
  - { offsetInCU: 0x3F187, offset: 0x3F187, size: 0x8, addend: 0x0, symName: __ZNSt3__112__to_addressB7v160006INS_4pairImPKcEEEEPT_S6_, symObjAddr: 0x1FD18, symBinAddr: 0x100022378, symSize: 0x14 }
  - { offsetInCU: 0x3F1BC, offset: 0x3F1BC, size: 0x8, addend: 0x0, symName: __ZNSt3__110destroy_atB7v160006INS_4pairImPKcEELi0EEEvPT_, symObjAddr: 0x1FDE0, symBinAddr: 0x100022440, symSize: 0x24 }
  - { offsetInCU: 0x3F1F4, offset: 0x3F1F4, size: 0x8, addend: 0x0, symName: __ZNSt3__112__destroy_atB7v160006INS_4pairImPKcEELi0EEEvPT_, symObjAddr: 0x1FE04, symBinAddr: 0x100022464, symSize: 0x10 }
  - { offsetInCU: 0x3F22B, offset: 0x3F22B, size: 0x8, addend: 0x0, symName: __ZNSt3__142__uninitialized_allocator_move_if_noexceptB7v160006INS_9allocatorINS_9sub_matchIPKcEEEENS_16reverse_iteratorIPS5_EES9_S9_EET2_RT_T0_T1_SA_, symObjAddr: 0x20518, symBinAddr: 0x100022B78, symSize: 0x12C }
  - { offsetInCU: 0x3F2CC, offset: 0x3F2CC, size: 0x8, addend: 0x0, symName: __ZNSt3__14swapB7v160006IPNS_9sub_matchIPKcEEEENS_9enable_ifIXaasr21is_move_constructibleIT_EE5valuesr18is_move_assignableIS7_EE5valueEvE4typeERS7_SA_, symObjAddr: 0x20690, symBinAddr: 0x100022CF0, symSize: 0x3C }
  - { offsetInCU: 0x3F31D, offset: 0x3F31D, size: 0x8, addend: 0x0, symName: __ZNSt3__122__make_exception_guardB7v160006INS_29_AllocatorDestroyRangeReverseINS_9allocatorINS_9sub_matchIPKcEEEENS_16reverse_iteratorIPS6_EEEEEENS_28__exception_guard_exceptionsIT_EESD_, symObjAddr: 0x206CC, symBinAddr: 0x100022D2C, symSize: 0x4C }
  - { offsetInCU: 0x3F353, offset: 0x3F353, size: 0x8, addend: 0x0, symName: __ZNSt3__1neB7v160006IPNS_9sub_matchIPKcEES5_EEbRKNS_16reverse_iteratorIT_EERKNS6_IT0_EE, symObjAddr: 0x2075C, symBinAddr: 0x100022DBC, symSize: 0x48 }
  - { offsetInCU: 0x3F39F, offset: 0x3F39F, size: 0x8, addend: 0x0, symName: __ZNSt3__112__to_addressB7v160006INS_16reverse_iteratorIPNS_9sub_matchIPKcEEEEvEENS_5decayIDTclsr19__to_address_helperIT_EE6__callclsr3stdE7declvalIRKS9_EEEEE4typeESB_, symObjAddr: 0x207D4, symBinAddr: 0x100022E34, symSize: 0x24 }
  - { offsetInCU: 0x3F3D6, offset: 0x3F3D6, size: 0x8, addend: 0x0, symName: __ZNSt3__112construct_atB7v160006INS_9sub_matchIPKcEEJS4_EPS4_EEPT_S7_DpOT0_, symObjAddr: 0x20924, symBinAddr: 0x100022F84, symSize: 0x34 }
  - { offsetInCU: 0x3F471, offset: 0x3F471, size: 0x8, addend: 0x0, symName: __ZNSt3__14prevB7v160006IPNS_9sub_matchIPKcEEEENS_9enable_ifIXsr25__is_cpp17_input_iteratorIT_EE5valueES7_E4typeES7_NS_15iterator_traitsIS7_E15difference_typeE, symObjAddr: 0x209BC, symBinAddr: 0x10002301C, symSize: 0x50 }
  - { offsetInCU: 0x3F4B5, offset: 0x3F4B5, size: 0x8, addend: 0x0, symName: __ZNSt3__19__advanceB7v160006IPNS_9sub_matchIPKcEEEEvRT_NS_15iterator_traitsIS6_E15difference_typeENS_26random_access_iterator_tagE, symObjAddr: 0x20A5C, symBinAddr: 0x1000230BC, symSize: 0x30 }
  - { offsetInCU: 0x3F4FF, offset: 0x3F4FF, size: 0x8, addend: 0x0, symName: __ZNSt3__119__allocator_destroyB7v160006INS_9allocatorINS_9sub_matchIPKcEEEENS_16reverse_iteratorINS7_IPS5_EEEESA_EEvRT_T0_T1_, symObjAddr: 0x20B90, symBinAddr: 0x1000231F0, symSize: 0x70 }
  - { offsetInCU: 0x3F564, offset: 0x3F564, size: 0x8, addend: 0x0, symName: __ZNSt3__1neB7v160006INS_16reverse_iteratorIPNS_9sub_matchIPKcEEEES7_EEbRKNS1_IT_EERKNS1_IT0_EE, symObjAddr: 0x20C3C, symBinAddr: 0x10002329C, symSize: 0x60 }
  - { offsetInCU: 0x3F5B0, offset: 0x3F5B0, size: 0x8, addend: 0x0, symName: __ZNSt3__112__to_addressB7v160006INS_16reverse_iteratorINS1_IPNS_9sub_matchIPKcEEEEEEvEENS_5decayIDTclsr19__to_address_helperIT_EE6__callclsr3stdE7declvalIRKSA_EEEEE4typeESC_, symObjAddr: 0x20C9C, symBinAddr: 0x1000232FC, symSize: 0x24 }
  - { offsetInCU: 0x3F60F, offset: 0x3F60F, size: 0x8, addend: 0x0, symName: __ZNSt3__14prevB7v160006INS_16reverse_iteratorIPNS_9sub_matchIPKcEEEEEENS_9enable_ifIXsr25__is_cpp17_input_iteratorIT_EE5valueES9_E4typeES9_NS_15iterator_traitsIS9_E15difference_typeE, symObjAddr: 0x20D98, symBinAddr: 0x1000233F8, symSize: 0x60 }
  - { offsetInCU: 0x3F652, offset: 0x3F652, size: 0x8, addend: 0x0, symName: __ZNSt3__19__advanceB7v160006INS_16reverse_iteratorIPNS_9sub_matchIPKcEEEEEEvRT_NS_15iterator_traitsIS8_E15difference_typeENS_26random_access_iterator_tagE, symObjAddr: 0x20E48, symBinAddr: 0x1000234A8, symSize: 0x2C }
  - { offsetInCU: 0x3F6C2, offset: 0x3F6C2, size: 0x8, addend: 0x0, symName: __ZNSt3__112construct_atB7v160006INS_4pairImPKcEEJEPS4_EEPT_S7_DpOT0_, symObjAddr: 0x216F8, symBinAddr: 0x100023D58, symSize: 0x34 }
  - { offsetInCU: 0x3F720, offset: 0x3F720, size: 0x8, addend: 0x0, symName: __ZNSt3__119__allocate_at_leastB7v160006INS_9allocatorINS_4pairImPKcEEEEEENS_19__allocation_resultINS_16allocator_traitsIT_E7pointerEEERS9_m, symObjAddr: 0x219A8, symBinAddr: 0x100024008, symSize: 0x40 }
  - { offsetInCU: 0x3F763, offset: 0x3F763, size: 0x8, addend: 0x0, symName: __ZNSt3__142__uninitialized_allocator_move_if_noexceptB7v160006INS_9allocatorINS_4pairImPKcEEEENS_16reverse_iteratorIPS5_EES9_S9_EET2_RT_T0_T1_SA_, symObjAddr: 0x21C28, symBinAddr: 0x100024288, symSize: 0x12C }
  - { offsetInCU: 0x3F804, offset: 0x3F804, size: 0x8, addend: 0x0, symName: __ZNSt3__14swapB7v160006IPNS_4pairImPKcEEEENS_9enable_ifIXaasr21is_move_constructibleIT_EE5valuesr18is_move_assignableIS7_EE5valueEvE4typeERS7_SA_, symObjAddr: 0x21DA0, symBinAddr: 0x100024400, symSize: 0x3C }
  - { offsetInCU: 0x3F856, offset: 0x3F856, size: 0x8, addend: 0x0, symName: __ZNSt3__125__debug_db_invalidate_allB7v160006INS_6vectorINS_4pairImPKcEENS_9allocatorIS5_EEEEEEvPT_, symObjAddr: 0x21E88, symBinAddr: 0x1000244E8, symSize: 0x10 }
  - { offsetInCU: 0x3F887, offset: 0x3F887, size: 0x8, addend: 0x0, symName: __ZNSt3__122__make_exception_guardB7v160006INS_29_AllocatorDestroyRangeReverseINS_9allocatorINS_4pairImPKcEEEENS_16reverse_iteratorIPS6_EEEEEENS_28__exception_guard_exceptionsIT_EESD_, symObjAddr: 0x21E98, symBinAddr: 0x1000244F8, symSize: 0x4C }
  - { offsetInCU: 0x3F8BD, offset: 0x3F8BD, size: 0x8, addend: 0x0, symName: __ZNSt3__1neB7v160006IPNS_4pairImPKcEES5_EEbRKNS_16reverse_iteratorIT_EERKNS6_IT0_EE, symObjAddr: 0x21F28, symBinAddr: 0x100024588, symSize: 0x48 }
  - { offsetInCU: 0x3F909, offset: 0x3F909, size: 0x8, addend: 0x0, symName: __ZNSt3__112__to_addressB7v160006INS_16reverse_iteratorIPNS_4pairImPKcEEEEvEENS_5decayIDTclsr19__to_address_helperIT_EE6__callclsr3stdE7declvalIRKS9_EEEEE4typeESB_, symObjAddr: 0x21FA0, symBinAddr: 0x100024600, symSize: 0x24 }
  - { offsetInCU: 0x3F940, offset: 0x3F940, size: 0x8, addend: 0x0, symName: __ZNSt3__112construct_atB7v160006INS_4pairImPKcEEJS4_EPS4_EEPT_S7_DpOT0_, symObjAddr: 0x220F0, symBinAddr: 0x100024750, symSize: 0x2C }
  - { offsetInCU: 0x3F9DB, offset: 0x3F9DB, size: 0x8, addend: 0x0, symName: __ZNSt3__14prevB7v160006IPNS_4pairImPKcEEEENS_9enable_ifIXsr25__is_cpp17_input_iteratorIT_EE5valueES7_E4typeES7_NS_15iterator_traitsIS7_E15difference_typeE, symObjAddr: 0x22180, symBinAddr: 0x1000247E0, symSize: 0x50 }
  - { offsetInCU: 0x3FA1F, offset: 0x3FA1F, size: 0x8, addend: 0x0, symName: __ZNSt3__19__advanceB7v160006IPNS_4pairImPKcEEEEvRT_NS_15iterator_traitsIS6_E15difference_typeENS_26random_access_iterator_tagE, symObjAddr: 0x22220, symBinAddr: 0x100024880, symSize: 0x28 }
  - { offsetInCU: 0x3FA69, offset: 0x3FA69, size: 0x8, addend: 0x0, symName: __ZNSt3__119__allocator_destroyB7v160006INS_9allocatorINS_4pairImPKcEEEENS_16reverse_iteratorINS7_IPS5_EEEESA_EEvRT_T0_T1_, symObjAddr: 0x2234C, symBinAddr: 0x1000249AC, symSize: 0x70 }
  - { offsetInCU: 0x3FACE, offset: 0x3FACE, size: 0x8, addend: 0x0, symName: __ZNSt3__1neB7v160006INS_16reverse_iteratorIPNS_4pairImPKcEEEES7_EEbRKNS1_IT_EERKNS1_IT0_EE, symObjAddr: 0x223F8, symBinAddr: 0x100024A58, symSize: 0x60 }
  - { offsetInCU: 0x3FB1A, offset: 0x3FB1A, size: 0x8, addend: 0x0, symName: __ZNSt3__112__to_addressB7v160006INS_16reverse_iteratorINS1_IPNS_4pairImPKcEEEEEEvEENS_5decayIDTclsr19__to_address_helperIT_EE6__callclsr3stdE7declvalIRKSA_EEEEE4typeESC_, symObjAddr: 0x22458, symBinAddr: 0x100024AB8, symSize: 0x24 }
  - { offsetInCU: 0x3FB79, offset: 0x3FB79, size: 0x8, addend: 0x0, symName: __ZNSt3__14prevB7v160006INS_16reverse_iteratorIPNS_4pairImPKcEEEEEENS_9enable_ifIXsr25__is_cpp17_input_iteratorIT_EE5valueES9_E4typeES9_NS_15iterator_traitsIS9_E15difference_typeE, symObjAddr: 0x22554, symBinAddr: 0x100024BB4, symSize: 0x60 }
  - { offsetInCU: 0x3FBBC, offset: 0x3FBBC, size: 0x8, addend: 0x0, symName: __ZNSt3__19__advanceB7v160006INS_16reverse_iteratorIPNS_4pairImPKcEEEEEEvRT_NS_15iterator_traitsIS8_E15difference_typeENS_26random_access_iterator_tagE, symObjAddr: 0x22604, symBinAddr: 0x100024C64, symSize: 0x2C }
  - { offsetInCU: 0x3FC05, offset: 0x3FC05, size: 0x8, addend: 0x0, symName: __ZNSt3__122__make_exception_guardB7v160006INS_6vectorINS_9sub_matchIPKcEENS_9allocatorIS5_EEE16__destroy_vectorEEENS_28__exception_guard_exceptionsIT_EESB_, symObjAddr: 0x22D84, symBinAddr: 0x1000253E4, symSize: 0x40 }
  - { offsetInCU: 0x3FC3A, offset: 0x3FC3A, size: 0x8, addend: 0x0, symName: __ZNSt3__130__uninitialized_allocator_copyB7v160006INS_9allocatorINS_9sub_matchIPKcEEEEPS5_S7_S7_EET2_RT_T0_T1_S8_, symObjAddr: 0x22EF0, symBinAddr: 0x100025550, symSize: 0xF4 }
  - { offsetInCU: 0x3FCD8, offset: 0x3FCD8, size: 0x8, addend: 0x0, symName: __ZNSt3__122__make_exception_guardB7v160006INS_29_AllocatorDestroyRangeReverseINS_9allocatorINS_9sub_matchIPKcEEEEPS6_EEEENS_28__exception_guard_exceptionsIT_EESB_, symObjAddr: 0x22FE4, symBinAddr: 0x100025644, symSize: 0x4C }
  - { offsetInCU: 0x3FD0F, offset: 0x3FD0F, size: 0x8, addend: 0x0, symName: __ZNSt3__112construct_atB7v160006INS_9sub_matchIPKcEEJRS4_EPS4_EEPT_S8_DpOT0_, symObjAddr: 0x23188, symBinAddr: 0x1000257E8, symSize: 0x34 }
  - { offsetInCU: 0x3FD82, offset: 0x3FD82, size: 0x8, addend: 0x0, symName: __ZNSt3__119__allocator_destroyB7v160006INS_9allocatorINS_9sub_matchIPKcEEEENS_16reverse_iteratorIPS5_EES9_EEvRT_T0_T1_, symObjAddr: 0x23274, symBinAddr: 0x1000258D4, symSize: 0x70 }
  - { offsetInCU: 0x3FDE5, offset: 0x3FDE5, size: 0x8, addend: 0x0, symName: __ZNSt3__122__make_exception_guardB7v160006INS_6vectorINS_4pairImPKcEENS_9allocatorIS5_EEE16__destroy_vectorEEENS_28__exception_guard_exceptionsIT_EESB_, symObjAddr: 0x23454, symBinAddr: 0x100025AB4, symSize: 0x40 }
  - { offsetInCU: 0x3FE1A, offset: 0x3FE1A, size: 0x8, addend: 0x0, symName: __ZNSt3__130__uninitialized_allocator_copyB7v160006INS_9allocatorINS_4pairImPKcEEEEPS5_S7_S7_EET2_RT_T0_T1_S8_, symObjAddr: 0x2366C, symBinAddr: 0x100025CCC, symSize: 0xF4 }
  - { offsetInCU: 0x3FEB8, offset: 0x3FEB8, size: 0x8, addend: 0x0, symName: __ZNSt3__122__make_exception_guardB7v160006INS_29_AllocatorDestroyRangeReverseINS_9allocatorINS_4pairImPKcEEEEPS6_EEEENS_28__exception_guard_exceptionsIT_EESB_, symObjAddr: 0x23760, symBinAddr: 0x100025DC0, symSize: 0x4C }
  - { offsetInCU: 0x3FEEF, offset: 0x3FEEF, size: 0x8, addend: 0x0, symName: __ZNSt3__112construct_atB7v160006INS_4pairImPKcEEJRS4_EPS4_EEPT_S8_DpOT0_, symObjAddr: 0x23904, symBinAddr: 0x100025F64, symSize: 0x2C }
  - { offsetInCU: 0x3FF62, offset: 0x3FF62, size: 0x8, addend: 0x0, symName: __ZNSt3__119__allocator_destroyB7v160006INS_9allocatorINS_4pairImPKcEEEENS_16reverse_iteratorIPS5_EES9_EEvRT_T0_T1_, symObjAddr: 0x239E8, symBinAddr: 0x100026048, symSize: 0x70 }
  - { offsetInCU: 0x3FFC6, offset: 0x3FFC6, size: 0x8, addend: 0x0, symName: __ZNSt3__118__debug_db_erase_cB7v160006INS_6vectorINS_7__stateIcEENS_9allocatorIS3_EEEEEEvPT_, symObjAddr: 0x23BDC, symBinAddr: 0x10002623C, symSize: 0x10 }
  - { offsetInCU: 0x3FFF8, offset: 0x3FFF8, size: 0x8, addend: 0x0, symName: __ZNSt3__119__throw_regex_errorB7v160006ILNS_15regex_constants10error_typeE11EEEvv, symObjAddr: 0x2426C, symBinAddr: 0x1000268CC, symSize: 0x60 }
  - { offsetInCU: 0x40092, offset: 0x40092, size: 0x8, addend: 0x0, symName: __ZNSt3__119__throw_regex_errorB7v160006ILNS_15regex_constants10error_typeE3EEEvv, symObjAddr: 0x245F8, symBinAddr: 0x100026C58, symSize: 0x60 }
  - { offsetInCU: 0x402A3, offset: 0x402A3, size: 0x8, addend: 0x0, symName: __ZNSt3__119__throw_regex_errorB7v160006ILNS_15regex_constants10error_typeE4EEEvv, symObjAddr: 0x2540C, symBinAddr: 0x100027A6C, symSize: 0x60 }
  - { offsetInCU: 0x406E2, offset: 0x406E2, size: 0x8, addend: 0x0, symName: __ZNSt3__15equalB7v160006IPKcS2_EEbT_S3_T0_, symObjAddr: 0x26590, symBinAddr: 0x100028BF0, symSize: 0x38 }
  - { offsetInCU: 0x4073C, offset: 0x4073C, size: 0x8, addend: 0x0, symName: __ZNSt3__15equalB7v160006IPKcS2_NS_10__equal_toEEEbT_S4_T0_T1_, symObjAddr: 0x265C8, symBinAddr: 0x100028C28, symSize: 0xA8 }
  - { offsetInCU: 0x407E9, offset: 0x407E9, size: 0x8, addend: 0x0, symName: __ZNSt3__119__debug_db_insert_cB7v160006INS_6vectorIcNS_9allocatorIcEEEEEEvPT_, symObjAddr: 0x2765C, symBinAddr: 0x100029CBC, symSize: 0x10 }
  - { offsetInCU: 0x4081B, offset: 0x4081B, size: 0x8, addend: 0x0, symName: __ZNSt3__119__debug_db_insert_cB7v160006INS_6vectorINS_4pairINS_12basic_stringIcNS_11char_traitsIcEENS_9allocatorIcEEEES8_EENS6_IS9_EEEEEEvPT_, symObjAddr: 0x2775C, symBinAddr: 0x100029DBC, symSize: 0x10 }
  - { offsetInCU: 0x4084D, offset: 0x4084D, size: 0x8, addend: 0x0, symName: __ZNSt3__119__debug_db_insert_cB7v160006INS_6vectorINS_4pairIccEENS_9allocatorIS3_EEEEEEvPT_, symObjAddr: 0x278C8, symBinAddr: 0x100029F28, symSize: 0x10 }
  - { offsetInCU: 0x4087F, offset: 0x4087F, size: 0x8, addend: 0x0, symName: __ZNSt3__118__debug_db_erase_cB7v160006INS_6vectorINS_4pairIccEENS_9allocatorIS3_EEEEEEvPT_, symObjAddr: 0x27B8C, symBinAddr: 0x10002A1EC, symSize: 0x10 }
  - { offsetInCU: 0x408B1, offset: 0x408B1, size: 0x8, addend: 0x0, symName: __ZNSt3__112__to_addressB7v160006INS_4pairIccEEEEPT_S4_, symObjAddr: 0x27CD0, symBinAddr: 0x10002A330, symSize: 0x14 }
  - { offsetInCU: 0x408E6, offset: 0x408E6, size: 0x8, addend: 0x0, symName: __ZNSt3__110destroy_atB7v160006INS_4pairIccEELi0EEEvPT_, symObjAddr: 0x27D98, symBinAddr: 0x10002A3F8, symSize: 0x24 }
  - { offsetInCU: 0x4091E, offset: 0x4091E, size: 0x8, addend: 0x0, symName: __ZNSt3__112__destroy_atB7v160006INS_4pairIccEELi0EEEvPT_, symObjAddr: 0x27DBC, symBinAddr: 0x10002A41C, symSize: 0x10 }
  - { offsetInCU: 0x40956, offset: 0x40956, size: 0x8, addend: 0x0, symName: __ZNSt3__118__debug_db_erase_cB7v160006INS_6vectorINS_4pairINS_12basic_stringIcNS_11char_traitsIcEENS_9allocatorIcEEEES8_EENS6_IS9_EEEEEEvPT_, symObjAddr: 0x280AC, symBinAddr: 0x10002A70C, symSize: 0x10 }
  - { offsetInCU: 0x40988, offset: 0x40988, size: 0x8, addend: 0x0, symName: __ZNSt3__112__to_addressB7v160006INS_4pairINS_12basic_stringIcNS_11char_traitsIcEENS_9allocatorIcEEEES7_EEEEPT_SA_, symObjAddr: 0x281F0, symBinAddr: 0x10002A850, symSize: 0x14 }
  - { offsetInCU: 0x409BD, offset: 0x409BD, size: 0x8, addend: 0x0, symName: __ZNSt3__110destroy_atB7v160006INS_4pairINS_12basic_stringIcNS_11char_traitsIcEENS_9allocatorIcEEEES7_EELi0EEEvPT_, symObjAddr: 0x282B8, symBinAddr: 0x10002A918, symSize: 0x24 }
  - { offsetInCU: 0x409F4, offset: 0x409F4, size: 0x8, addend: 0x0, symName: __ZNSt3__112__destroy_atB7v160006INS_4pairINS_12basic_stringIcNS_11char_traitsIcEENS_9allocatorIcEEEES7_EELi0EEEvPT_, symObjAddr: 0x282DC, symBinAddr: 0x10002A93C, symSize: 0x24 }
  - { offsetInCU: 0x40A2C, offset: 0x40A2C, size: 0x8, addend: 0x0, symName: __ZNSt3__118__debug_db_erase_cB7v160006INS_6vectorIcNS_9allocatorIcEEEEEEvPT_, symObjAddr: 0x2862C, symBinAddr: 0x10002AC8C, symSize: 0x10 }
  - { offsetInCU: 0x40A5D, offset: 0x40A5D, size: 0x8, addend: 0x0, symName: __ZNSt3__110destroy_atB7v160006IcLi0EEEvPT_, symObjAddr: 0x287E0, symBinAddr: 0x10002AE40, symSize: 0x24 }
  - { offsetInCU: 0x40A95, offset: 0x40A95, size: 0x8, addend: 0x0, symName: __ZNSt3__112__destroy_atB7v160006IcLi0EEEvPT_, symObjAddr: 0x28804, symBinAddr: 0x10002AE64, symSize: 0x10 }
  - { offsetInCU: 0x40ACC, offset: 0x40ACC, size: 0x8, addend: 0x0, symName: __ZNSt3__1eqB7v160006IccEEbRKNS_4pairIT_T0_EES6_, symObjAddr: 0x28998, symBinAddr: 0x10002AFF8, symSize: 0x64 }
  - { offsetInCU: 0x40B1B, offset: 0x40B1B, size: 0x8, addend: 0x0, symName: __ZNSt3__1leB7v160006ENS_15strong_orderingENS_20_CmpUnspecifiedParamE, symObjAddr: 0x28B38, symBinAddr: 0x10002B198, symSize: 0x24 }
  - { offsetInCU: 0x40B55, offset: 0x40B55, size: 0x8, addend: 0x0, symName: __ZNSt3__1ssB7v160006IcNS_11char_traitsIcEENS_9allocatorIcEEEEDaRKNS_12basic_stringIT_T0_T1_EESC_, symObjAddr: 0x28B5C, symBinAddr: 0x10002B1BC, symSize: 0x5C }
  - { offsetInCU: 0x40BC9, offset: 0x40BC9, size: 0x8, addend: 0x0, symName: __ZNSt3__14findB7v160006INS_11__wrap_iterIPKcEEcEET_S5_S5_RKT0_, symObjAddr: 0x28CD0, symBinAddr: 0x10002B330, symSize: 0x80 }
  - { offsetInCU: 0x40C41, offset: 0x40C41, size: 0x8, addend: 0x0, symName: __ZNSt3__18distanceB7v160006IPcEENS_15iterator_traitsIT_E15difference_typeES3_S3_, symObjAddr: 0x291EC, symBinAddr: 0x10002B84C, symSize: 0x2C }
  - { offsetInCU: 0x40C84, offset: 0x40C84, size: 0x8, addend: 0x0, symName: __ZNSt3__119__allocate_at_leastB7v160006INS_9allocatorIcEEEENS_19__allocation_resultINS_16allocator_traitsIT_E7pointerEEERS5_m, symObjAddr: 0x29218, symBinAddr: 0x10002B878, symSize: 0x40 }
  - { offsetInCU: 0x40CC8, offset: 0x40CC8, size: 0x8, addend: 0x0, symName: __ZNSt3__110__distanceB7v160006IPcEENS_15iterator_traitsIT_E15difference_typeES3_S3_NS_26random_access_iterator_tagE, symObjAddr: 0x29258, symBinAddr: 0x10002B8B8, symSize: 0x20 }
  - { offsetInCU: 0x40D15, offset: 0x40D15, size: 0x8, addend: 0x0, symName: __ZNSt3__1ssB7v160006IcNS_11char_traitsIcEEEEDaNS_17basic_string_viewIT_T0_EES7_, symObjAddr: 0x29278, symBinAddr: 0x10002B8D8, symSize: 0x7C }
  - { offsetInCU: 0x40D8C, offset: 0x40D8C, size: 0x8, addend: 0x0, symName: __ZNSt3__112construct_atB7v160006IcJcEPcEEPT_S3_DpOT0_, symObjAddr: 0x298B8, symBinAddr: 0x10002BF18, symSize: 0x2C }
  - { offsetInCU: 0x40DFE, offset: 0x40DFE, size: 0x8, addend: 0x0, symName: __ZNSt3__142__uninitialized_allocator_move_if_noexceptB7v160006INS_9allocatorIcEENS_16reverse_iteratorIPcEES5_cvEET1_RT_T0_S9_S6_, symObjAddr: 0x29E34, symBinAddr: 0x10002C494, symSize: 0x78 }
  - { offsetInCU: 0x40E7D, offset: 0x40E7D, size: 0x8, addend: 0x0, symName: __ZNSt3__14swapB7v160006IPcEENS_9enable_ifIXaasr21is_move_constructibleIT_EE5valuesr18is_move_assignableIS3_EE5valueEvE4typeERS3_S6_, symObjAddr: 0x29EF8, symBinAddr: 0x10002C558, symSize: 0x3C }
  - { offsetInCU: 0x40ECF, offset: 0x40ECF, size: 0x8, addend: 0x0, symName: __ZNSt3__125__debug_db_invalidate_allB7v160006INS_6vectorIcNS_9allocatorIcEEEEEEvPT_, symObjAddr: 0x29FE0, symBinAddr: 0x10002C640, symSize: 0x10 }
  - { offsetInCU: 0x40F00, offset: 0x40F00, size: 0x8, addend: 0x0, symName: __ZNSt3__14moveB7v160006INS_16reverse_iteratorIPcEES3_EET0_T_S5_S4_, symObjAddr: 0x29FF0, symBinAddr: 0x10002C650, symSize: 0x78 }
  - { offsetInCU: 0x40F5A, offset: 0x40F5A, size: 0x8, addend: 0x0, symName: __ZNSt3__16__moveB7v160006INS_17_ClassicAlgPolicyENS_16reverse_iteratorIPcEES4_S4_EENS_4pairIT0_T2_EES6_T1_S7_, symObjAddr: 0x2A068, symBinAddr: 0x10002C6C8, symSize: 0x64 }
  - { offsetInCU: 0x40FC6, offset: 0x40FC6, size: 0x8, addend: 0x0, symName: __ZNSt3__123__dispatch_copy_or_moveB7v160006INS_17_ClassicAlgPolicyENS_11__move_loopIS1_EENS_14__move_trivialENS_16reverse_iteratorIPcEES7_S7_EENS_4pairIT2_T4_EES9_T3_SA_, symObjAddr: 0x2A0CC, symBinAddr: 0x10002C72C, symSize: 0x64 }
  - { offsetInCU: 0x41044, offset: 0x41044, size: 0x8, addend: 0x0, symName: __ZNSt3__121__unwrap_and_dispatchB7v160006INS_10__overloadINS_11__move_loopINS_17_ClassicAlgPolicyEEENS_14__move_trivialEEENS_16reverse_iteratorIPcEES9_S9_Li0EEENS_4pairIT0_T2_EESB_T1_SC_, symObjAddr: 0x2A130, symBinAddr: 0x10002C790, symSize: 0x12C }
  - { offsetInCU: 0x410D4, offset: 0x410D4, size: 0x8, addend: 0x0, symName: __ZNSt3__114__unwrap_rangeB7v160006INS_16reverse_iteratorIPcEES3_EEDaT_T0_, symObjAddr: 0x2A25C, symBinAddr: 0x10002C8BC, symSize: 0x4C }
  - { offsetInCU: 0x411F4, offset: 0x411F4, size: 0x8, addend: 0x0, symName: __ZNSt3__113__unwrap_iterB7v160006INS_16reverse_iteratorIPcEENS_18__unwrap_iter_implIS3_Lb0EEELi0EEEDTclsrT0_8__unwrapclsr3stdE7declvalIT_EEEES7_, symObjAddr: 0x2A348, symBinAddr: 0x10002C9A8, symSize: 0x44 }
  - { offsetInCU: 0x41238, offset: 0x41238, size: 0x8, addend: 0x0, symName: __ZNSt3__19make_pairB7v160006INS_16reverse_iteratorIPcEES3_EENS_4pairINS_18__unwrap_ref_decayIT_E4typeENS5_IT0_E4typeEEEOS6_OS9_, symObjAddr: 0x2A38C, symBinAddr: 0x10002C9EC, symSize: 0x38 }
  - { offsetInCU: 0x41287, offset: 0x41287, size: 0x8, addend: 0x0, symName: __ZNSt3__114__rewrap_rangeB7v160006INS_16reverse_iteratorIPcEES3_S3_EET0_S4_T1_, symObjAddr: 0x2A3C4, symBinAddr: 0x10002CA24, symSize: 0x5C }
  - { offsetInCU: 0x412DC, offset: 0x412DC, size: 0x8, addend: 0x0, symName: __ZNSt3__113__rewrap_iterB7v160006INS_16reverse_iteratorIPcEES3_NS_18__unwrap_iter_implIS3_Lb0EEEEET_S6_T0_, symObjAddr: 0x2A420, symBinAddr: 0x10002CA80, symSize: 0x74 }
  - { offsetInCU: 0x41381, offset: 0x41381, size: 0x8, addend: 0x0, symName: __ZNSt3__1neB7v160006IPcS1_EEbRKNS_16reverse_iteratorIT_EERKNS2_IT0_EE, symObjAddr: 0x2A588, symBinAddr: 0x10002CBE8, symSize: 0x48 }
  - { offsetInCU: 0x4143A, offset: 0x4143A, size: 0x8, addend: 0x0, symName: __ZNSt3__112construct_atB7v160006IcJRKcEPcEEPT_S5_DpOT0_, symObjAddr: 0x2AA94, symBinAddr: 0x10002D0F4, symSize: 0x2C }
  - { offsetInCU: 0x414AD, offset: 0x414AD, size: 0x8, addend: 0x0, symName: __ZNSt3__119__debug_db_insert_iB7v160006INS_11__wrap_iterIPKcEEEEvPT_, symObjAddr: 0x2AB58, symBinAddr: 0x10002D1B8, symSize: 0x10 }
  - { offsetInCU: 0x414DE, offset: 0x414DE, size: 0x8, addend: 0x0, symName: __ZNSt3__17__is_07B7v160006Eh, symObjAddr: 0x2AC80, symBinAddr: 0x10002D2E0, symSize: 0x24 }
  - { offsetInCU: 0x4150C, offset: 0x4150C, size: 0x8, addend: 0x0, symName: __ZNSt3__17__is_89B7v160006Eh, symObjAddr: 0x2ACA4, symBinAddr: 0x10002D304, symSize: 0x24 }
  - { offsetInCU: 0x4153A, offset: 0x4153A, size: 0x8, addend: 0x0, symName: __ZNSt3__110__to_lowerB7v160006Eh, symObjAddr: 0x2ACC8, symBinAddr: 0x10002D328, symSize: 0x1C }
  - { offsetInCU: 0x41569, offset: 0x41569, size: 0x8, addend: 0x0, symName: __ZNSt3__119__throw_regex_errorB7v160006ILNS_15regex_constants10error_typeE5EEEvv, symObjAddr: 0x2ACE4, symBinAddr: 0x10002D344, symSize: 0x60 }
  - { offsetInCU: 0x4158E, offset: 0x4158E, size: 0x8, addend: 0x0, symName: __ZNSt3__16searchB7v160006INS_11__wrap_iterIPKcEEPcEET_S6_S6_T0_S7_, symObjAddr: 0x2C92C, symBinAddr: 0x10002EF8C, symSize: 0x54 }
  - { offsetInCU: 0x415F7, offset: 0x415F7, size: 0x8, addend: 0x0, symName: __ZNSt3__119__throw_regex_errorB7v160006ILNS_15regex_constants10error_typeE1EEEvv, symObjAddr: 0x2C9D0, symBinAddr: 0x10002F030, symSize: 0x60 }
  - { offsetInCU: 0x4161C, offset: 0x4161C, size: 0x8, addend: 0x0, symName: __ZNSt3__16searchB7v160006INS_11__wrap_iterIPKcEEPcNS_10__equal_toEEET_S7_S7_T0_S8_T1_, symObjAddr: 0x2CB50, symBinAddr: 0x10002F1B0, symSize: 0x7C }
  - { offsetInCU: 0x416A9, offset: 0x416A9, size: 0x8, addend: 0x0, symName: __ZNSt3__113__search_implB7v160006INS_11__wrap_iterIPKcEES4_PcS5_NS_10__equal_toENS_10__identityES7_EENS_4pairIT_S9_EES9_T0_T1_T2_RT3_RT4_RT5_PNS_9enable_ifIXaasr33__is_cpp17_random_access_iteratorIS9_EE5valuesr33__is_cpp17_random_access_iteratorISC_EE5valueEvE4typeE, symObjAddr: 0x2CBCC, symBinAddr: 0x10002F22C, symSize: 0x108 }
  - { offsetInCU: 0x4178F, offset: 0x4178F, size: 0x8, addend: 0x0, symName: __ZNSt3__19make_pairB7v160006IRNS_11__wrap_iterIPKcEES5_EENS_4pairINS_18__unwrap_ref_decayIT_E4typeENS7_IT0_E4typeEEEOS8_OSB_, symObjAddr: 0x2CCD4, symBinAddr: 0x10002F334, symSize: 0x38 }
  - { offsetInCU: 0x417DE, offset: 0x417DE, size: 0x8, addend: 0x0, symName: __ZNSt3__1miB7v160006IPKcS2_EEDTmicldtfp_4baseEcldtfp0_4baseEERKNS_11__wrap_iterIT_EERKNS4_IT0_EE, symObjAddr: 0x2CD0C, symBinAddr: 0x10002F36C, symSize: 0x40 }
  - { offsetInCU: 0x4182A, offset: 0x4182A, size: 0x8, addend: 0x0, symName: __ZNSt3__127__search_random_access_implB7v160006INS_17_ClassicAlgPolicyENS_11__wrap_iterIPKcEES5_PcS6_NS_10__equal_toENS_10__identityES8_llEENS_4pairIT0_SA_EESA_T1_T2_T3_RT4_RT5_RT6_T7_T8_, symObjAddr: 0x2CD4C, symBinAddr: 0x10002F3AC, symSize: 0x1F0 }
  - { offsetInCU: 0x4195F, offset: 0x4195F, size: 0x8, addend: 0x0, symName: __ZNSt3__18__invokeB7v160006IRNS_10__equal_toEJRKcRcEEEDTclclsr3stdE7declvalIT_EEspclsr3stdE7declvalIT0_EEEEOS6_DpOS7_, symObjAddr: 0x2D05C, symBinAddr: 0x10002F6BC, symSize: 0x38 }
  - { offsetInCU: 0x419C4, offset: 0x419C4, size: 0x8, addend: 0x0, symName: __ZNSt3__18__invokeB7v160006IRNS_10__identityEJRKcEEEDTclclsr3stdE7declvalIT_EEspclsr3stdE7declvalIT0_EEEEOS5_DpOS6_, symObjAddr: 0x2D094, symBinAddr: 0x10002F6F4, symSize: 0x2C }
  - { offsetInCU: 0x41A15, offset: 0x41A15, size: 0x8, addend: 0x0, symName: __ZNSt3__18__invokeB7v160006IRNS_10__identityEJRcEEEDTclclsr3stdE7declvalIT_EEspclsr3stdE7declvalIT0_EEEEOS4_DpOS5_, symObjAddr: 0x2D0C0, symBinAddr: 0x10002F720, symSize: 0x2C }
  - { offsetInCU: 0x41A66, offset: 0x41A66, size: 0x8, addend: 0x0, symName: __ZNSt3__19make_pairB7v160006IRNS_11__wrap_iterIPKcEES4_EENS_4pairINS_18__unwrap_ref_decayIT_E4typeENS7_IT0_E4typeEEEOS8_OSB_, symObjAddr: 0x2D0EC, symBinAddr: 0x10002F74C, symSize: 0x38 }
  - { offsetInCU: 0x41B05, offset: 0x41B05, size: 0x8, addend: 0x0, symName: __ZNSt3__18distanceB7v160006INS_11__wrap_iterIPKcEEEENS_15iterator_traitsIT_E15difference_typeES6_S6_, symObjAddr: 0x2D604, symBinAddr: 0x10002FC64, symSize: 0x3C }
  - { offsetInCU: 0x41B48, offset: 0x41B48, size: 0x8, addend: 0x0, symName: __ZNSt3__110__distanceB7v160006INS_11__wrap_iterIPKcEEEENS_15iterator_traitsIT_E15difference_typeES6_S6_NS_26random_access_iterator_tagE, symObjAddr: 0x2D640, symBinAddr: 0x10002FCA0, symSize: 0x30 }
  - { offsetInCU: 0x41B95, offset: 0x41B95, size: 0x8, addend: 0x0, symName: __ZNSt3__18distanceB7v160006INS_11__wrap_iterIPcEEEENS_15iterator_traitsIT_E15difference_typeES5_S5_, symObjAddr: 0x2DA2C, symBinAddr: 0x10003008C, symSize: 0x3C }
  - { offsetInCU: 0x41BD8, offset: 0x41BD8, size: 0x8, addend: 0x0, symName: __ZNSt3__1neB7v160006IPcEEbRKNS_11__wrap_iterIT_EES6_, symObjAddr: 0x2DA68, symBinAddr: 0x1000300C8, symSize: 0x34 }
  - { offsetInCU: 0x41C1B, offset: 0x41C1B, size: 0x8, addend: 0x0, symName: __ZNSt3__110__distanceB7v160006INS_11__wrap_iterIPcEEEENS_15iterator_traitsIT_E15difference_typeES5_S5_NS_26random_access_iterator_tagE, symObjAddr: 0x2DAD4, symBinAddr: 0x100030134, symSize: 0x30 }
  - { offsetInCU: 0x41C68, offset: 0x41C68, size: 0x8, addend: 0x0, symName: __ZNSt3__1miB7v160006IPcS1_EEDTmicldtfp_4baseEcldtfp0_4baseEERKNS_11__wrap_iterIT_EERKNS3_IT0_EE, symObjAddr: 0x2DB04, symBinAddr: 0x100030164, symSize: 0x40 }
  - { offsetInCU: 0x41CB4, offset: 0x41CB4, size: 0x8, addend: 0x0, symName: __ZNSt3__1eqB7v160006IPcEEbRKNS_11__wrap_iterIT_EES6_, symObjAddr: 0x2DB5C, symBinAddr: 0x1000301BC, symSize: 0x48 }
  - { offsetInCU: 0x41CF8, offset: 0x41CF8, size: 0x8, addend: 0x0, symName: __ZNSt3__119__throw_regex_errorB7v160006ILNS_15regex_constants10error_typeE2EEEvv, symObjAddr: 0x2DC94, symBinAddr: 0x1000302F4, symSize: 0x60 }
  - { offsetInCU: 0x41D1D, offset: 0x41D1D, size: 0x8, addend: 0x0, symName: __ZNSt3__19make_pairB7v160006INS_12basic_stringIcNS_11char_traitsIcEENS_9allocatorIcEEEES6_EENS_4pairINS_18__unwrap_ref_decayIT_E4typeENS8_IT0_E4typeEEEOS9_OSC_, symObjAddr: 0x2DFB4, symBinAddr: 0x100030614, symSize: 0x40 }
  - { offsetInCU: 0x41D6D, offset: 0x41D6D, size: 0x8, addend: 0x0, symName: __ZNSt3__119__throw_regex_errorB7v160006ILNS_15regex_constants10error_typeE9EEEvv, symObjAddr: 0x2E0F4, symBinAddr: 0x100030754, symSize: 0x60 }
  - { offsetInCU: 0x41DB9, offset: 0x41DB9, size: 0x8, addend: 0x0, symName: __ZNSt3__112construct_atB7v160006INS_4pairINS_12basic_stringIcNS_11char_traitsIcEENS_9allocatorIcEEEES7_EEJS8_EPS8_EEPT_SB_DpOT0_, symObjAddr: 0x2E400, symBinAddr: 0x100030A60, symSize: 0x3C }
  - { offsetInCU: 0x41E2B, offset: 0x41E2B, size: 0x8, addend: 0x0, symName: __ZNSt3__119__allocate_at_leastB7v160006INS_9allocatorINS_4pairINS_12basic_stringIcNS_11char_traitsIcEENS1_IcEEEES7_EEEEEENS_19__allocation_resultINS_16allocator_traitsIT_E7pointerEEERSC_m, symObjAddr: 0x2E934, symBinAddr: 0x100030F94, symSize: 0x40 }
  - { offsetInCU: 0x41E6E, offset: 0x41E6E, size: 0x8, addend: 0x0, symName: __ZNSt3__142__uninitialized_allocator_move_if_noexceptB7v160006INS_9allocatorINS_4pairINS_12basic_stringIcNS_11char_traitsIcEENS1_IcEEEES7_EEEENS_16reverse_iteratorIPS8_EESC_SC_EET2_RT_T0_T1_SD_, symObjAddr: 0x2EAEC, symBinAddr: 0x10003114C, symSize: 0x12C }
  - { offsetInCU: 0x41F0F, offset: 0x41F0F, size: 0x8, addend: 0x0, symName: __ZNSt3__14swapB7v160006IPNS_4pairINS_12basic_stringIcNS_11char_traitsIcEENS_9allocatorIcEEEES7_EEEENS_9enable_ifIXaasr21is_move_constructibleIT_EE5valuesr18is_move_assignableISB_EE5valueEvE4typeERSB_SE_, symObjAddr: 0x2EC64, symBinAddr: 0x1000312C4, symSize: 0x3C }
  - { offsetInCU: 0x41F61, offset: 0x41F61, size: 0x8, addend: 0x0, symName: __ZNSt3__125__debug_db_invalidate_allB7v160006INS_6vectorINS_4pairINS_12basic_stringIcNS_11char_traitsIcEENS_9allocatorIcEEEES8_EENS6_IS9_EEEEEEvPT_, symObjAddr: 0x2ED68, symBinAddr: 0x1000313C8, symSize: 0x10 }
  - { offsetInCU: 0x41F92, offset: 0x41F92, size: 0x8, addend: 0x0, symName: __ZNSt3__122__make_exception_guardB7v160006INS_29_AllocatorDestroyRangeReverseINS_9allocatorINS_4pairINS_12basic_stringIcNS_11char_traitsIcEENS2_IcEEEES8_EEEENS_16reverse_iteratorIPS9_EEEEEENS_28__exception_guard_exceptionsIT_EESG_, symObjAddr: 0x2ED78, symBinAddr: 0x1000313D8, symSize: 0x4C }
  - { offsetInCU: 0x41FC8, offset: 0x41FC8, size: 0x8, addend: 0x0, symName: __ZNSt3__1neB7v160006IPNS_4pairINS_12basic_stringIcNS_11char_traitsIcEENS_9allocatorIcEEEES7_EES9_EEbRKNS_16reverse_iteratorIT_EERKNSA_IT0_EE, symObjAddr: 0x2EE08, symBinAddr: 0x100031468, symSize: 0x48 }
  - { offsetInCU: 0x42014, offset: 0x42014, size: 0x8, addend: 0x0, symName: __ZNSt3__112__to_addressB7v160006INS_16reverse_iteratorIPNS_4pairINS_12basic_stringIcNS_11char_traitsIcEENS_9allocatorIcEEEES8_EEEEvEENS_5decayIDTclsr19__to_address_helperIT_EE6__callclsr3stdE7declvalIRKSD_EEEEE4typeESF_, symObjAddr: 0x2EE50, symBinAddr: 0x1000314B0, symSize: 0x24 }
  - { offsetInCU: 0x42073, offset: 0x42073, size: 0x8, addend: 0x0, symName: __ZNSt3__14prevB7v160006IPNS_4pairINS_12basic_stringIcNS_11char_traitsIcEENS_9allocatorIcEEEES7_EEEENS_9enable_ifIXsr25__is_cpp17_input_iteratorIT_EE5valueESB_E4typeESB_NS_15iterator_traitsISB_E15difference_typeE, symObjAddr: 0x2F004, symBinAddr: 0x100031664, symSize: 0x50 }
  - { offsetInCU: 0x420B7, offset: 0x420B7, size: 0x8, addend: 0x0, symName: __ZNSt3__19__advanceB7v160006IPNS_4pairINS_12basic_stringIcNS_11char_traitsIcEENS_9allocatorIcEEEES7_EEEEvRT_NS_15iterator_traitsISA_E15difference_typeENS_26random_access_iterator_tagE, symObjAddr: 0x2F0A4, symBinAddr: 0x100031704, symSize: 0x30 }
  - { offsetInCU: 0x42101, offset: 0x42101, size: 0x8, addend: 0x0, symName: __ZNSt3__119__allocator_destroyB7v160006INS_9allocatorINS_4pairINS_12basic_stringIcNS_11char_traitsIcEENS1_IcEEEES7_EEEENS_16reverse_iteratorINSA_IPS8_EEEESD_EEvRT_T0_T1_, symObjAddr: 0x2F1D8, symBinAddr: 0x100031838, symSize: 0x70 }
  - { offsetInCU: 0x42166, offset: 0x42166, size: 0x8, addend: 0x0, symName: __ZNSt3__1neB7v160006INS_16reverse_iteratorIPNS_4pairINS_12basic_stringIcNS_11char_traitsIcEENS_9allocatorIcEEEES8_EEEESB_EEbRKNS1_IT_EERKNS1_IT0_EE, symObjAddr: 0x2F284, symBinAddr: 0x1000318E4, symSize: 0x60 }
  - { offsetInCU: 0x421B2, offset: 0x421B2, size: 0x8, addend: 0x0, symName: __ZNSt3__112__to_addressB7v160006INS_16reverse_iteratorINS1_IPNS_4pairINS_12basic_stringIcNS_11char_traitsIcEENS_9allocatorIcEEEES8_EEEEEEvEENS_5decayIDTclsr19__to_address_helperIT_EE6__callclsr3stdE7declvalIRKSE_EEEEE4typeESG_, symObjAddr: 0x2F2E4, symBinAddr: 0x100031944, symSize: 0x24 }
  - { offsetInCU: 0x42211, offset: 0x42211, size: 0x8, addend: 0x0, symName: __ZNSt3__14prevB7v160006INS_16reverse_iteratorIPNS_4pairINS_12basic_stringIcNS_11char_traitsIcEENS_9allocatorIcEEEES8_EEEEEENS_9enable_ifIXsr25__is_cpp17_input_iteratorIT_EE5valueESD_E4typeESD_NS_15iterator_traitsISD_E15difference_typeE, symObjAddr: 0x2F3E0, symBinAddr: 0x100031A40, symSize: 0x60 }
  - { offsetInCU: 0x42254, offset: 0x42254, size: 0x8, addend: 0x0, symName: __ZNSt3__19__advanceB7v160006INS_16reverse_iteratorIPNS_4pairINS_12basic_stringIcNS_11char_traitsIcEENS_9allocatorIcEEEES8_EEEEEEvRT_NS_15iterator_traitsISC_E15difference_typeENS_26random_access_iterator_tagE, symObjAddr: 0x2F490, symBinAddr: 0x100031AF0, symSize: 0x2C }
  - { offsetInCU: 0x4229D, offset: 0x4229D, size: 0x8, addend: 0x0, symName: __ZNSt3__19make_pairB7v160006IccEENS_4pairINS_18__unwrap_ref_decayIT_E4typeENS2_IT0_E4typeEEEOS3_OS6_, symObjAddr: 0x2F83C, symBinAddr: 0x100031E9C, symSize: 0x34 }
  - { offsetInCU: 0x422EC, offset: 0x422EC, size: 0x8, addend: 0x0, symName: __ZNSt3__19make_pairB7v160006IRcS1_EENS_4pairINS_18__unwrap_ref_decayIT_E4typeENS3_IT0_E4typeEEEOS4_OS7_, symObjAddr: 0x2F870, symBinAddr: 0x100031ED0, symSize: 0x34 }
  - { offsetInCU: 0x42363, offset: 0x42363, size: 0x8, addend: 0x0, symName: __ZNSt3__112construct_atB7v160006INS_4pairIccEEJS2_EPS2_EEPT_S5_DpOT0_, symObjAddr: 0x2FB48, symBinAddr: 0x1000321A8, symSize: 0x2C }
  - { offsetInCU: 0x423D5, offset: 0x423D5, size: 0x8, addend: 0x0, symName: __ZNSt3__119__allocate_at_leastB7v160006INS_9allocatorINS_4pairIccEEEEEENS_19__allocation_resultINS_16allocator_traitsIT_E7pointerEEERS7_m, symObjAddr: 0x2FFE4, symBinAddr: 0x100032644, symSize: 0x40 }
  - { offsetInCU: 0x42418, offset: 0x42418, size: 0x8, addend: 0x0, symName: __ZNSt3__142__uninitialized_allocator_move_if_noexceptB7v160006INS_9allocatorINS_4pairIccEEEENS_16reverse_iteratorIPS3_EES7_S7_EET2_RT_T0_T1_S8_, symObjAddr: 0x30198, symBinAddr: 0x1000327F8, symSize: 0x12C }
  - { offsetInCU: 0x424B9, offset: 0x424B9, size: 0x8, addend: 0x0, symName: __ZNSt3__14swapB7v160006IPNS_4pairIccEEEENS_9enable_ifIXaasr21is_move_constructibleIT_EE5valuesr18is_move_assignableIS5_EE5valueEvE4typeERS5_S8_, symObjAddr: 0x30310, symBinAddr: 0x100032970, symSize: 0x3C }
  - { offsetInCU: 0x4250B, offset: 0x4250B, size: 0x8, addend: 0x0, symName: __ZNSt3__125__debug_db_invalidate_allB7v160006INS_6vectorINS_4pairIccEENS_9allocatorIS3_EEEEEEvPT_, symObjAddr: 0x303F8, symBinAddr: 0x100032A58, symSize: 0x10 }
  - { offsetInCU: 0x4253C, offset: 0x4253C, size: 0x8, addend: 0x0, symName: __ZNSt3__122__make_exception_guardB7v160006INS_29_AllocatorDestroyRangeReverseINS_9allocatorINS_4pairIccEEEENS_16reverse_iteratorIPS4_EEEEEENS_28__exception_guard_exceptionsIT_EESB_, symObjAddr: 0x30408, symBinAddr: 0x100032A68, symSize: 0x4C }
  - { offsetInCU: 0x42572, offset: 0x42572, size: 0x8, addend: 0x0, symName: __ZNSt3__1neB7v160006IPNS_4pairIccEES3_EEbRKNS_16reverse_iteratorIT_EERKNS4_IT0_EE, symObjAddr: 0x30498, symBinAddr: 0x100032AF8, symSize: 0x48 }
  - { offsetInCU: 0x425BE, offset: 0x425BE, size: 0x8, addend: 0x0, symName: __ZNSt3__112__to_addressB7v160006INS_16reverse_iteratorIPNS_4pairIccEEEEvEENS_5decayIDTclsr19__to_address_helperIT_EE6__callclsr3stdE7declvalIRKS7_EEEEE4typeES9_, symObjAddr: 0x304E0, symBinAddr: 0x100032B40, symSize: 0x24 }
  - { offsetInCU: 0x4261D, offset: 0x4261D, size: 0x8, addend: 0x0, symName: __ZNSt3__14prevB7v160006IPNS_4pairIccEEEENS_9enable_ifIXsr25__is_cpp17_input_iteratorIT_EE5valueES5_E4typeES5_NS_15iterator_traitsIS5_E15difference_typeE, symObjAddr: 0x30694, symBinAddr: 0x100032CF4, symSize: 0x50 }
  - { offsetInCU: 0x42661, offset: 0x42661, size: 0x8, addend: 0x0, symName: __ZNSt3__19__advanceB7v160006IPNS_4pairIccEEEEvRT_NS_15iterator_traitsIS4_E15difference_typeENS_26random_access_iterator_tagE, symObjAddr: 0x30734, symBinAddr: 0x100032D94, symSize: 0x28 }
  - { offsetInCU: 0x426AB, offset: 0x426AB, size: 0x8, addend: 0x0, symName: __ZNSt3__119__allocator_destroyB7v160006INS_9allocatorINS_4pairIccEEEENS_16reverse_iteratorINS5_IPS3_EEEES8_EEvRT_T0_T1_, symObjAddr: 0x30860, symBinAddr: 0x100032EC0, symSize: 0x70 }
  - { offsetInCU: 0x42710, offset: 0x42710, size: 0x8, addend: 0x0, symName: __ZNSt3__1neB7v160006INS_16reverse_iteratorIPNS_4pairIccEEEES5_EEbRKNS1_IT_EERKNS1_IT0_EE, symObjAddr: 0x3090C, symBinAddr: 0x100032F6C, symSize: 0x60 }
  - { offsetInCU: 0x4275C, offset: 0x4275C, size: 0x8, addend: 0x0, symName: __ZNSt3__112__to_addressB7v160006INS_16reverse_iteratorINS1_IPNS_4pairIccEEEEEEvEENS_5decayIDTclsr19__to_address_helperIT_EE6__callclsr3stdE7declvalIRKS8_EEEEE4typeESA_, symObjAddr: 0x3096C, symBinAddr: 0x100032FCC, symSize: 0x24 }
  - { offsetInCU: 0x427BB, offset: 0x427BB, size: 0x8, addend: 0x0, symName: __ZNSt3__14prevB7v160006INS_16reverse_iteratorIPNS_4pairIccEEEEEENS_9enable_ifIXsr25__is_cpp17_input_iteratorIT_EE5valueES7_E4typeES7_NS_15iterator_traitsIS7_E15difference_typeE, symObjAddr: 0x30A68, symBinAddr: 0x1000330C8, symSize: 0x60 }
  - { offsetInCU: 0x427FE, offset: 0x427FE, size: 0x8, addend: 0x0, symName: __ZNSt3__19__advanceB7v160006INS_16reverse_iteratorIPNS_4pairIccEEEEEEvRT_NS_15iterator_traitsIS6_E15difference_typeENS_26random_access_iterator_tagE, symObjAddr: 0x30B18, symBinAddr: 0x100033178, symSize: 0x2C }
  - { offsetInCU: 0x42954, offset: 0x42954, size: 0x8, addend: 0x0, symName: __ZNSt3__119__throw_regex_errorB7v160006ILNS_15regex_constants10error_typeE8EEEvv, symObjAddr: 0x31690, symBinAddr: 0x100033CF0, symSize: 0x60 }
  - { offsetInCU: 0x4297A, offset: 0x4297A, size: 0x8, addend: 0x0, symName: __ZNSt3__119__throw_regex_errorB7v160006ILNS_15regex_constants10error_typeE7EEEvv, symObjAddr: 0x316F0, symBinAddr: 0x100033D50, symSize: 0x60 }
  - { offsetInCU: 0x432C5, offset: 0x432C5, size: 0x8, addend: 0x0, symName: __ZNSt3__119__throw_regex_errorB7v160006ILNS_15regex_constants10error_typeE15EEEvv, symObjAddr: 0x3274C, symBinAddr: 0x100034DAC, symSize: 0x60 }
  - { offsetInCU: 0x4335E, offset: 0x4335E, size: 0x8, addend: 0x0, symName: __ZNSt3__113regex_replaceB7v160006INS_20back_insert_iteratorINS_12basic_stringIcNS_11char_traitsIcEENS_9allocatorIcEEEEEENS_11__wrap_iterIPKcEENS_12regex_traitsIcEEcEET_SF_T0_SG_RKNS_11basic_regexIT2_T1_EEPKSI_NS_15regex_constants15match_flag_typeE, symObjAddr: 0x34254, symBinAddr: 0x1000368B4, symSize: 0x340 }
  - { offsetInCU: 0x43466, offset: 0x43466, size: 0x8, addend: 0x0, symName: __ZNSt3__113back_inserterB7v160006INS_12basic_stringIcNS_11char_traitsIcEENS_9allocatorIcEEEEEENS_20back_insert_iteratorIT_EERS8_, symObjAddr: 0x34594, symBinAddr: 0x100036BF4, symSize: 0x2C }
  - { offsetInCU: 0x4399D, offset: 0x4399D, size: 0x8, addend: 0x0, symName: __ZNSt3__14copyB7v160006INS_11__wrap_iterIPKcEENS_20back_insert_iteratorINS_12basic_stringIcNS_11char_traitsIcEENS_9allocatorIcEEEEEEEET0_T_SE_SD_, symObjAddr: 0x347BC, symBinAddr: 0x100036E1C, symSize: 0x60 }
  - { offsetInCU: 0x43A03, offset: 0x43A03, size: 0x8, addend: 0x0, symName: __ZNSt3__112regex_searchB7v160006IPKcNS_9allocatorINS_9sub_matchINS_11__wrap_iterIS2_EEEEEEcNS_12regex_traitsIcEEEEbNS5_IT_EESC_RNS_13match_resultsISC_T0_EERKNS_11basic_regexIT1_T2_EENS_15regex_constants15match_flag_typeE, symObjAddr: 0x351CC, symBinAddr: 0x10003782C, symSize: 0x124 }
  - { offsetInCU: 0x43AB2, offset: 0x43AB2, size: 0x8, addend: 0x0, symName: __ZNSt3__119__debug_db_insert_cB7v160006INS_6vectorINS_9sub_matchINS_11__wrap_iterIPKcEEEENS_9allocatorIS7_EEEEEEvPT_, symObjAddr: 0x3554C, symBinAddr: 0x100037BAC, symSize: 0x10 }
  - { offsetInCU: 0x43AE4, offset: 0x43AE4, size: 0x8, addend: 0x0, symName: __ZNSt3__118__debug_db_erase_cB7v160006INS_6vectorINS_9sub_matchINS_11__wrap_iterIPKcEEEENS_9allocatorIS7_EEEEEEvPT_, symObjAddr: 0x357DC, symBinAddr: 0x100037E3C, symSize: 0x10 }
  - { offsetInCU: 0x43B16, offset: 0x43B16, size: 0x8, addend: 0x0, symName: __ZNSt3__112__to_addressB7v160006INS_9sub_matchINS_11__wrap_iterIPKcEEEEEEPT_S8_, symObjAddr: 0x35920, symBinAddr: 0x100037F80, symSize: 0x14 }
  - { offsetInCU: 0x43B4B, offset: 0x43B4B, size: 0x8, addend: 0x0, symName: __ZNSt3__110destroy_atB7v160006INS_9sub_matchINS_11__wrap_iterIPKcEEEELi0EEEvPT_, symObjAddr: 0x359E8, symBinAddr: 0x100038048, symSize: 0x24 }
  - { offsetInCU: 0x43B83, offset: 0x43B83, size: 0x8, addend: 0x0, symName: __ZNSt3__112__destroy_atB7v160006INS_9sub_matchINS_11__wrap_iterIPKcEEEELi0EEEvPT_, symObjAddr: 0x35A0C, symBinAddr: 0x10003806C, symSize: 0x10 }
  - { offsetInCU: 0x43BBA, offset: 0x43BBA, size: 0x8, addend: 0x0, symName: __ZNSt3__18distanceB7v160006IPKcEENS_15iterator_traitsIT_E15difference_typeES4_S4_, symObjAddr: 0x37038, symBinAddr: 0x100039698, symSize: 0x2C }
  - { offsetInCU: 0x43BFE, offset: 0x43BFE, size: 0x8, addend: 0x0, symName: __ZNSt3__110__distanceB7v160006IPKcEENS_15iterator_traitsIT_E15difference_typeES4_S4_NS_26random_access_iterator_tagE, symObjAddr: 0x3770C, symBinAddr: 0x100039D6C, symSize: 0x20 }
  - { offsetInCU: 0x43FF1, offset: 0x43FF1, size: 0x8, addend: 0x0, symName: __ZNSt3__14swapB7v160006IPPNS_7__stateIcEEEENS_9enable_ifIXaasr21is_move_constructibleIT_EE5valuesr18is_move_assignableIS6_EE5valueEvE4typeERS6_S9_, symObjAddr: 0x38B54, symBinAddr: 0x10003B1B4, symSize: 0x3C }
  - { offsetInCU: 0x44042, offset: 0x44042, size: 0x8, addend: 0x0, symName: __ZNSt3__14moveB7v160006IPPNS_7__stateIcEES4_EET0_T_S6_S5_, symObjAddr: 0x38C84, symBinAddr: 0x10003B2E4, symSize: 0x40 }
  - { offsetInCU: 0x4409D, offset: 0x4409D, size: 0x8, addend: 0x0, symName: __ZNSt3__112__to_addressB7v160006IPNS_7__stateIcEEEEPT_S5_, symObjAddr: 0x38E24, symBinAddr: 0x10003B484, symSize: 0x14 }
  - { offsetInCU: 0x440D2, offset: 0x440D2, size: 0x8, addend: 0x0, symName: __ZNSt3__16__moveB7v160006INS_17_ClassicAlgPolicyEPPNS_7__stateIcEES5_S5_EENS_4pairIT0_T2_EES7_T1_S8_, symObjAddr: 0x38E38, symBinAddr: 0x10003B498, symSize: 0x44 }
  - { offsetInCU: 0x4413E, offset: 0x4413E, size: 0x8, addend: 0x0, symName: __ZNSt3__123__dispatch_copy_or_moveB7v160006INS_17_ClassicAlgPolicyENS_11__move_loopIS1_EENS_14__move_trivialEPPNS_7__stateIcEES8_S8_EENS_4pairIT2_T4_EESA_T3_SB_, symObjAddr: 0x38E7C, symBinAddr: 0x10003B4DC, symSize: 0x44 }
  - { offsetInCU: 0x441BC, offset: 0x441BC, size: 0x8, addend: 0x0, symName: __ZNSt3__121__unwrap_and_dispatchB7v160006INS_10__overloadINS_11__move_loopINS_17_ClassicAlgPolicyEEENS_14__move_trivialEEEPPNS_7__stateIcEESA_SA_Li0EEENS_4pairIT0_T2_EESC_T1_SD_, symObjAddr: 0x38EC0, symBinAddr: 0x10003B520, symSize: 0xB4 }
  - { offsetInCU: 0x4424A, offset: 0x4424A, size: 0x8, addend: 0x0, symName: __ZNSt3__114__unwrap_rangeB7v160006IPPNS_7__stateIcEES4_EEDaT_T0_, symObjAddr: 0x38F74, symBinAddr: 0x10003B5D4, symSize: 0x3C }
  - { offsetInCU: 0x4444A, offset: 0x4444A, size: 0x8, addend: 0x0, symName: __ZNSt3__113__unwrap_iterB7v160006IPPNS_7__stateIcEENS_18__unwrap_iter_implIS4_Lb1EEELi0EEEDTclsrT0_8__unwrapclsr3stdE7declvalIT_EEEES8_, symObjAddr: 0x38FF8, symBinAddr: 0x10003B658, symSize: 0x24 }
  - { offsetInCU: 0x4448E, offset: 0x4448E, size: 0x8, addend: 0x0, symName: __ZNSt3__19make_pairB7v160006IPPNS_7__stateIcEES4_EENS_4pairINS_18__unwrap_ref_decayIT_E4typeENS6_IT0_E4typeEEEOS7_OSA_, symObjAddr: 0x3901C, symBinAddr: 0x10003B67C, symSize: 0x38 }
  - { offsetInCU: 0x444DD, offset: 0x444DD, size: 0x8, addend: 0x0, symName: __ZNSt3__114__rewrap_rangeB7v160006IPPNS_7__stateIcEES4_S4_EET0_S5_T1_, symObjAddr: 0x39054, symBinAddr: 0x10003B6B4, symSize: 0x2C }
  - { offsetInCU: 0x44532, offset: 0x44532, size: 0x8, addend: 0x0, symName: __ZNSt3__113__rewrap_iterB7v160006IPPNS_7__stateIcEES4_NS_18__unwrap_iter_implIS4_Lb1EEEEET_S7_T0_, symObjAddr: 0x39080, symBinAddr: 0x10003B6E0, symSize: 0x3C }
  - { offsetInCU: 0x445D7, offset: 0x445D7, size: 0x8, addend: 0x0, symName: __ZNSt3__119__copy_trivial_implB7v160006IPNS_7__stateIcEES3_EENS_4pairIPT_PT0_EES6_S6_S8_, symObjAddr: 0x39184, symBinAddr: 0x10003B7E4, symSize: 0x84 }
  - { offsetInCU: 0x4463F, offset: 0x4463F, size: 0x8, addend: 0x0, symName: __ZNSt3__19make_pairB7v160006IRPPNS_7__stateIcEES4_EENS_4pairINS_18__unwrap_ref_decayIT_E4typeENS7_IT0_E4typeEEEOS8_OSB_, symObjAddr: 0x39208, symBinAddr: 0x10003B868, symSize: 0x38 }
  - { offsetInCU: 0x446E1, offset: 0x446E1, size: 0x8, addend: 0x0, symName: __ZNSt3__18distanceB7v160006INS_13move_iteratorIPPNS_7__stateIcEEEEEENS_15iterator_traitsIT_E15difference_typeES8_S8_, symObjAddr: 0x39350, symBinAddr: 0x10003B9B0, symSize: 0x3C }
  - { offsetInCU: 0x44724, offset: 0x44724, size: 0x8, addend: 0x0, symName: __ZNSt3__110__distanceB7v160006INS_13move_iteratorIPPNS_7__stateIcEEEEEENS_15iterator_traitsIT_E15difference_typeES8_S8_NS_26random_access_iterator_tagE, symObjAddr: 0x39498, symBinAddr: 0x10003BAF8, symSize: 0x30 }
  - { offsetInCU: 0x44771, offset: 0x44771, size: 0x8, addend: 0x0, symName: __ZNSt3__1miB7v160006IPPNS_7__stateIcEES4_EEDTmicldtfp_4baseEcldtfp0_4baseEERKNS_13move_iteratorIT_EERKNS6_IT0_EE, symObjAddr: 0x394C8, symBinAddr: 0x10003BB28, symSize: 0x4C }
  - { offsetInCU: 0x447E8, offset: 0x447E8, size: 0x8, addend: 0x0, symName: __ZNSt3__112construct_atB7v160006IPNS_7__stateIcEEJS3_EPS3_EEPT_S6_DpOT0_, symObjAddr: 0x3956C, symBinAddr: 0x10003BBCC, symSize: 0x2C }
  - { offsetInCU: 0x4485B, offset: 0x4485B, size: 0x8, addend: 0x0, symName: __ZNSt3__112construct_atB7v160006IPNS_7__stateIcEEJRKS3_EPS3_EEPT_S8_DpOT0_, symObjAddr: 0x39634, symBinAddr: 0x10003BC94, symSize: 0x2C }
  - { offsetInCU: 0x448CD, offset: 0x448CD, size: 0x8, addend: 0x0, symName: __ZNSt3__113move_backwardB7v160006IPPNS_7__stateIcEES4_EET0_T_S6_S5_, symObjAddr: 0x396C0, symBinAddr: 0x10003BD20, symSize: 0x40 }
  - { offsetInCU: 0x44927, offset: 0x44927, size: 0x8, addend: 0x0, symName: __ZNSt3__115__move_backwardB7v160006INS_17_ClassicAlgPolicyEPPNS_7__stateIcEES5_S5_EENS_4pairIT0_T2_EES7_T1_S8_, symObjAddr: 0x39700, symBinAddr: 0x10003BD60, symSize: 0x44 }
  - { offsetInCU: 0x44993, offset: 0x44993, size: 0x8, addend: 0x0, symName: __ZNSt3__123__dispatch_copy_or_moveB7v160006INS_17_ClassicAlgPolicyENS_20__move_backward_loopIS1_EENS_23__move_backward_trivialEPPNS_7__stateIcEES8_S8_EENS_4pairIT2_T4_EESA_T3_SB_, symObjAddr: 0x39744, symBinAddr: 0x10003BDA4, symSize: 0x44 }
  - { offsetInCU: 0x44A11, offset: 0x44A11, size: 0x8, addend: 0x0, symName: __ZNSt3__121__unwrap_and_dispatchB7v160006INS_10__overloadINS_20__move_backward_loopINS_17_ClassicAlgPolicyEEENS_23__move_backward_trivialEEEPPNS_7__stateIcEESA_SA_Li0EEENS_4pairIT0_T2_EESC_T1_SD_, symObjAddr: 0x39788, symBinAddr: 0x10003BDE8, symSize: 0xB4 }
  - { offsetInCU: 0x44B21, offset: 0x44B21, size: 0x8, addend: 0x0, symName: __ZNSt3__128__copy_backward_trivial_implB7v160006IPNS_7__stateIcEES3_EENS_4pairIPT_PT0_EES6_S6_S8_, symObjAddr: 0x39884, symBinAddr: 0x10003BEE4, symSize: 0x94 }
  - { offsetInCU: 0x44B89, offset: 0x44B89, size: 0x8, addend: 0x0, symName: __ZNSt3__19make_pairB7v160006IRPPNS_7__stateIcEES5_EENS_4pairINS_18__unwrap_ref_decayIT_E4typeENS7_IT0_E4typeEEEOS8_OSB_, symObjAddr: 0x39918, symBinAddr: 0x10003BF78, symSize: 0x38 }
  - { offsetInCU: 0x44BD8, offset: 0x44BD8, size: 0x8, addend: 0x0, symName: __ZNSt3__119__allocate_at_leastB7v160006INS_9allocatorIPNS_7__stateIcEEEEEENS_19__allocation_resultINS_16allocator_traitsIT_E7pointerEEERS8_m, symObjAddr: 0x39B08, symBinAddr: 0x10003C168, symSize: 0x40 }
  - { offsetInCU: 0x44C1B, offset: 0x44C1B, size: 0x8, addend: 0x0, symName: __ZNSt3__110destroy_atB7v160006IPNS_7__stateIcEELi0EEEvPT_, symObjAddr: 0x3A128, symBinAddr: 0x10003C788, symSize: 0x24 }
  - { offsetInCU: 0x44C53, offset: 0x44C53, size: 0x8, addend: 0x0, symName: __ZNSt3__112__destroy_atB7v160006IPNS_7__stateIcEELi0EEEvPT_, symObjAddr: 0x3A14C, symBinAddr: 0x10003C7AC, symSize: 0x10 }
  - { offsetInCU: 0x44C8A, offset: 0x44C8A, size: 0x8, addend: 0x0, symName: __ZNSt3__1neB7v160006ERKNS_16__deque_iteratorINS_7__stateIcEEPS2_RS2_PS3_lLl42EEES8_, symObjAddr: 0x3A538, symBinAddr: 0x10003CB98, symSize: 0x34 }
  - { offsetInCU: 0x44CC7, offset: 0x44CC7, size: 0x8, addend: 0x0, symName: __ZNSt3__1eqB7v160006ERKNS_16__deque_iteratorINS_7__stateIcEEPS2_RS2_PS3_lLl42EEES8_, symObjAddr: 0x3A5DC, symBinAddr: 0x10003CC3C, symSize: 0x30 }
  - { offsetInCU: 0x44D04, offset: 0x44D04, size: 0x8, addend: 0x0, symName: __ZNSt3__18distanceB7v160006IPNS_9sub_matchIPKcEEEENS_15iterator_traitsIT_E15difference_typeES7_S7_, symObjAddr: 0x3B3AC, symBinAddr: 0x10003DA0C, symSize: 0x2C }
  - { offsetInCU: 0x44D47, offset: 0x44D47, size: 0x8, addend: 0x0, symName: __ZNSt3__14copyB7v160006IPNS_9sub_matchIPKcEES5_EET0_T_S7_S6_, symObjAddr: 0x3B428, symBinAddr: 0x10003DA88, symSize: 0x40 }
  - { offsetInCU: 0x44DA2, offset: 0x44DA2, size: 0x8, addend: 0x0, symName: __ZNSt3__110__distanceB7v160006IPNS_9sub_matchIPKcEEEENS_15iterator_traitsIT_E15difference_typeES7_S7_NS_26random_access_iterator_tagE, symObjAddr: 0x3B468, symBinAddr: 0x10003DAC8, symSize: 0x28 }
  - { offsetInCU: 0x44DEF, offset: 0x44DEF, size: 0x8, addend: 0x0, symName: __ZNSt3__16__copyB7v160006INS_17_ClassicAlgPolicyEPNS_9sub_matchIPKcEES6_S6_EENS_4pairIT0_T2_EES8_T1_S9_, symObjAddr: 0x3B490, symBinAddr: 0x10003DAF0, symSize: 0x44 }
  - { offsetInCU: 0x44E5B, offset: 0x44E5B, size: 0x8, addend: 0x0, symName: __ZNSt3__123__dispatch_copy_or_moveB7v160006INS_17_ClassicAlgPolicyENS_11__copy_loopIS1_EENS_14__copy_trivialEPNS_9sub_matchIPKcEES9_S9_EENS_4pairIT2_T4_EESB_T3_SC_, symObjAddr: 0x3B4D4, symBinAddr: 0x10003DB34, symSize: 0x44 }
  - { offsetInCU: 0x44ED9, offset: 0x44ED9, size: 0x8, addend: 0x0, symName: __ZNSt3__121__unwrap_and_dispatchB7v160006INS_10__overloadINS_11__copy_loopINS_17_ClassicAlgPolicyEEENS_14__copy_trivialEEEPNS_9sub_matchIPKcEESB_SB_Li0EEENS_4pairIT0_T2_EESD_T1_SE_, symObjAddr: 0x3B518, symBinAddr: 0x10003DB78, symSize: 0xB4 }
  - { offsetInCU: 0x44F67, offset: 0x44F67, size: 0x8, addend: 0x0, symName: __ZNSt3__114__unwrap_rangeB7v160006IPNS_9sub_matchIPKcEES5_EEDaT_T0_, symObjAddr: 0x3B5CC, symBinAddr: 0x10003DC2C, symSize: 0x3C }
  - { offsetInCU: 0x45087, offset: 0x45087, size: 0x8, addend: 0x0, symName: __ZNSt3__113__unwrap_iterB7v160006IPNS_9sub_matchIPKcEENS_18__unwrap_iter_implIS5_Lb1EEELi0EEEDTclsrT0_8__unwrapclsr3stdE7declvalIT_EEEES9_, symObjAddr: 0x3B690, symBinAddr: 0x10003DCF0, symSize: 0x24 }
  - { offsetInCU: 0x450CB, offset: 0x450CB, size: 0x8, addend: 0x0, symName: __ZNSt3__19make_pairB7v160006IPNS_9sub_matchIPKcEES5_EENS_4pairINS_18__unwrap_ref_decayIT_E4typeENS7_IT0_E4typeEEEOS8_OSB_, symObjAddr: 0x3B6B4, symBinAddr: 0x10003DD14, symSize: 0x38 }
  - { offsetInCU: 0x4511A, offset: 0x4511A, size: 0x8, addend: 0x0, symName: __ZNSt3__114__rewrap_rangeB7v160006IPNS_9sub_matchIPKcEES5_S5_EET0_S6_T1_, symObjAddr: 0x3B6EC, symBinAddr: 0x10003DD4C, symSize: 0x2C }
  - { offsetInCU: 0x4516F, offset: 0x4516F, size: 0x8, addend: 0x0, symName: __ZNSt3__113__rewrap_iterB7v160006IPNS_9sub_matchIPKcEES5_NS_18__unwrap_iter_implIS5_Lb1EEEEET_S8_T0_, symObjAddr: 0x3B718, symBinAddr: 0x10003DD78, symSize: 0x3C }
  - { offsetInCU: 0x45267, offset: 0x45267, size: 0x8, addend: 0x0, symName: __ZNSt3__18distanceB7v160006IPNS_4pairImPKcEEEENS_15iterator_traitsIT_E15difference_typeES7_S7_, symObjAddr: 0x3BA80, symBinAddr: 0x10003E0E0, symSize: 0x2C }
  - { offsetInCU: 0x452AA, offset: 0x452AA, size: 0x8, addend: 0x0, symName: __ZNSt3__14copyB7v160006IPNS_4pairImPKcEES5_EET0_T_S7_S6_, symObjAddr: 0x3BAFC, symBinAddr: 0x10003E15C, symSize: 0x40 }
  - { offsetInCU: 0x45305, offset: 0x45305, size: 0x8, addend: 0x0, symName: __ZNSt3__110__distanceB7v160006IPNS_4pairImPKcEEEENS_15iterator_traitsIT_E15difference_typeES7_S7_NS_26random_access_iterator_tagE, symObjAddr: 0x3BBC8, symBinAddr: 0x10003E228, symSize: 0x28 }
  - { offsetInCU: 0x45352, offset: 0x45352, size: 0x8, addend: 0x0, symName: __ZNSt3__16__copyB7v160006INS_17_ClassicAlgPolicyEPNS_4pairImPKcEES6_S6_EENS2_IT0_T2_EES7_T1_S8_, symObjAddr: 0x3BBF0, symBinAddr: 0x10003E250, symSize: 0x44 }
  - { offsetInCU: 0x453BE, offset: 0x453BE, size: 0x8, addend: 0x0, symName: __ZNSt3__123__dispatch_copy_or_moveB7v160006INS_17_ClassicAlgPolicyENS_11__copy_loopIS1_EENS_14__copy_trivialEPNS_4pairImPKcEES9_S9_EENS5_IT2_T4_EESA_T3_SB_, symObjAddr: 0x3BC34, symBinAddr: 0x10003E294, symSize: 0x44 }
  - { offsetInCU: 0x4543C, offset: 0x4543C, size: 0x8, addend: 0x0, symName: __ZNSt3__121__unwrap_and_dispatchB7v160006INS_10__overloadINS_11__copy_loopINS_17_ClassicAlgPolicyEEENS_14__copy_trivialEEEPNS_4pairImPKcEESB_SB_Li0EEENS7_IT0_T2_EESC_T1_SD_, symObjAddr: 0x3BC78, symBinAddr: 0x10003E2D8, symSize: 0xB4 }
  - { offsetInCU: 0x454CA, offset: 0x454CA, size: 0x8, addend: 0x0, symName: __ZNSt3__114__unwrap_rangeB7v160006IPNS_4pairImPKcEES5_EEDaT_T0_, symObjAddr: 0x3BD2C, symBinAddr: 0x10003E38C, symSize: 0x3C }
  - { offsetInCU: 0x455EA, offset: 0x455EA, size: 0x8, addend: 0x0, symName: __ZNSt3__113__unwrap_iterB7v160006IPNS_4pairImPKcEENS_18__unwrap_iter_implIS5_Lb1EEELi0EEEDTclsrT0_8__unwrapclsr3stdE7declvalIT_EEEES9_, symObjAddr: 0x3BDF0, symBinAddr: 0x10003E450, symSize: 0x24 }
  - { offsetInCU: 0x4562E, offset: 0x4562E, size: 0x8, addend: 0x0, symName: __ZNSt3__19make_pairB7v160006IPNS_4pairImPKcEES5_EENS1_INS_18__unwrap_ref_decayIT_E4typeENS6_IT0_E4typeEEEOS7_OSA_, symObjAddr: 0x3BE14, symBinAddr: 0x10003E474, symSize: 0x38 }
  - { offsetInCU: 0x4567D, offset: 0x4567D, size: 0x8, addend: 0x0, symName: __ZNSt3__114__rewrap_rangeB7v160006IPNS_4pairImPKcEES5_S5_EET0_S6_T1_, symObjAddr: 0x3BE4C, symBinAddr: 0x10003E4AC, symSize: 0x2C }
  - { offsetInCU: 0x456D2, offset: 0x456D2, size: 0x8, addend: 0x0, symName: __ZNSt3__113__rewrap_iterB7v160006IPNS_4pairImPKcEES5_NS_18__unwrap_iter_implIS5_Lb1EEEEET_S8_T0_, symObjAddr: 0x3BE78, symBinAddr: 0x10003E4D8, symSize: 0x3C }
  - { offsetInCU: 0x457F1, offset: 0x457F1, size: 0x8, addend: 0x0, symName: __ZNSt3__112construct_atB7v160006INS_9sub_matchINS_11__wrap_iterIPKcEEEEJEPS6_EEPT_S9_DpOT0_, symObjAddr: 0x3C834, symBinAddr: 0x10003EE94, symSize: 0x34 }
  - { offsetInCU: 0x4584F, offset: 0x4584F, size: 0x8, addend: 0x0, symName: __ZNSt3__119__allocate_at_leastB7v160006INS_9allocatorINS_9sub_matchINS_11__wrap_iterIPKcEEEEEEEENS_19__allocation_resultINS_16allocator_traitsIT_E7pointerEEERSB_m, symObjAddr: 0x3CAA8, symBinAddr: 0x10003F108, symSize: 0x40 }
  - { offsetInCU: 0x45892, offset: 0x45892, size: 0x8, addend: 0x0, symName: __ZNSt3__142__uninitialized_allocator_move_if_noexceptB7v160006INS_9allocatorINS_9sub_matchINS_11__wrap_iterIPKcEEEEEENS_16reverse_iteratorIPS7_EESB_SB_EET2_RT_T0_T1_SC_, symObjAddr: 0x3CD34, symBinAddr: 0x10003F394, symSize: 0x12C }
  - { offsetInCU: 0x45933, offset: 0x45933, size: 0x8, addend: 0x0, symName: __ZNSt3__14swapB7v160006IPNS_9sub_matchINS_11__wrap_iterIPKcEEEEEENS_9enable_ifIXaasr21is_move_constructibleIT_EE5valuesr18is_move_assignableIS9_EE5valueEvE4typeERS9_SC_, symObjAddr: 0x3CEAC, symBinAddr: 0x10003F50C, symSize: 0x3C }
  - { offsetInCU: 0x45985, offset: 0x45985, size: 0x8, addend: 0x0, symName: __ZNSt3__125__debug_db_invalidate_allB7v160006INS_6vectorINS_9sub_matchINS_11__wrap_iterIPKcEEEENS_9allocatorIS7_EEEEEEvPT_, symObjAddr: 0x3CFB0, symBinAddr: 0x10003F610, symSize: 0x10 }
  - { offsetInCU: 0x459B6, offset: 0x459B6, size: 0x8, addend: 0x0, symName: __ZNSt3__122__make_exception_guardB7v160006INS_29_AllocatorDestroyRangeReverseINS_9allocatorINS_9sub_matchINS_11__wrap_iterIPKcEEEEEENS_16reverse_iteratorIPS8_EEEEEENS_28__exception_guard_exceptionsIT_EESF_, symObjAddr: 0x3CFC0, symBinAddr: 0x10003F620, symSize: 0x4C }
  - { offsetInCU: 0x459EC, offset: 0x459EC, size: 0x8, addend: 0x0, symName: __ZNSt3__1neB7v160006IPNS_9sub_matchINS_11__wrap_iterIPKcEEEES7_EEbRKNS_16reverse_iteratorIT_EERKNS8_IT0_EE, symObjAddr: 0x3D050, symBinAddr: 0x10003F6B0, symSize: 0x48 }
  - { offsetInCU: 0x45A38, offset: 0x45A38, size: 0x8, addend: 0x0, symName: __ZNSt3__112__to_addressB7v160006INS_16reverse_iteratorIPNS_9sub_matchINS_11__wrap_iterIPKcEEEEEEvEENS_5decayIDTclsr19__to_address_helperIT_EE6__callclsr3stdE7declvalIRKSB_EEEEE4typeESD_, symObjAddr: 0x3D0C8, symBinAddr: 0x10003F728, symSize: 0x24 }
  - { offsetInCU: 0x45A6F, offset: 0x45A6F, size: 0x8, addend: 0x0, symName: __ZNSt3__112construct_atB7v160006INS_9sub_matchINS_11__wrap_iterIPKcEEEEJS6_EPS6_EEPT_S9_DpOT0_, symObjAddr: 0x3D218, symBinAddr: 0x10003F878, symSize: 0x34 }
  - { offsetInCU: 0x45B0A, offset: 0x45B0A, size: 0x8, addend: 0x0, symName: __ZNSt3__14prevB7v160006IPNS_9sub_matchINS_11__wrap_iterIPKcEEEEEENS_9enable_ifIXsr25__is_cpp17_input_iteratorIT_EE5valueES9_E4typeES9_NS_15iterator_traitsIS9_E15difference_typeE, symObjAddr: 0x3D2B0, symBinAddr: 0x10003F910, symSize: 0x50 }
  - { offsetInCU: 0x45B4E, offset: 0x45B4E, size: 0x8, addend: 0x0, symName: __ZNSt3__19__advanceB7v160006IPNS_9sub_matchINS_11__wrap_iterIPKcEEEEEEvRT_NS_15iterator_traitsIS8_E15difference_typeENS_26random_access_iterator_tagE, symObjAddr: 0x3D350, symBinAddr: 0x10003F9B0, symSize: 0x30 }
  - { offsetInCU: 0x45B98, offset: 0x45B98, size: 0x8, addend: 0x0, symName: __ZNSt3__119__allocator_destroyB7v160006INS_9allocatorINS_9sub_matchINS_11__wrap_iterIPKcEEEEEENS_16reverse_iteratorINS9_IPS7_EEEESC_EEvRT_T0_T1_, symObjAddr: 0x3D484, symBinAddr: 0x10003FAE4, symSize: 0x70 }
  - { offsetInCU: 0x45BFD, offset: 0x45BFD, size: 0x8, addend: 0x0, symName: __ZNSt3__1neB7v160006INS_16reverse_iteratorIPNS_9sub_matchINS_11__wrap_iterIPKcEEEEEES9_EEbRKNS1_IT_EERKNS1_IT0_EE, symObjAddr: 0x3D530, symBinAddr: 0x10003FB90, symSize: 0x60 }
  - { offsetInCU: 0x45C49, offset: 0x45C49, size: 0x8, addend: 0x0, symName: __ZNSt3__112__to_addressB7v160006INS_16reverse_iteratorINS1_IPNS_9sub_matchINS_11__wrap_iterIPKcEEEEEEEEvEENS_5decayIDTclsr19__to_address_helperIT_EE6__callclsr3stdE7declvalIRKSC_EEEEE4typeESE_, symObjAddr: 0x3D590, symBinAddr: 0x10003FBF0, symSize: 0x24 }
  - { offsetInCU: 0x45CA8, offset: 0x45CA8, size: 0x8, addend: 0x0, symName: __ZNSt3__14prevB7v160006INS_16reverse_iteratorIPNS_9sub_matchINS_11__wrap_iterIPKcEEEEEEEENS_9enable_ifIXsr25__is_cpp17_input_iteratorIT_EE5valueESB_E4typeESB_NS_15iterator_traitsISB_E15difference_typeE, symObjAddr: 0x3D68C, symBinAddr: 0x10003FCEC, symSize: 0x60 }
  - { offsetInCU: 0x45CEB, offset: 0x45CEB, size: 0x8, addend: 0x0, symName: __ZNSt3__19__advanceB7v160006INS_16reverse_iteratorIPNS_9sub_matchINS_11__wrap_iterIPKcEEEEEEEEvRT_NS_15iterator_traitsISA_E15difference_typeENS_26random_access_iterator_tagE, symObjAddr: 0x3D73C, symBinAddr: 0x10003FD9C, symSize: 0x2C }
  - { offsetInCU: 0x45D34, offset: 0x45D34, size: 0x8, addend: 0x0, symName: __ZNSt3__1eqB7v160006INS_11__wrap_iterIPKcEEEEbRKNS_9sub_matchIT_EES9_, symObjAddr: 0x3DB84, symBinAddr: 0x1000401E4, symSize: 0x38 }
  - { offsetInCU: 0x45D9E, offset: 0x45D9E, size: 0x8, addend: 0x0, symName: __ZNSt3__16__copyB7v160006INS_17_ClassicAlgPolicyENS_11__wrap_iterIPKcEES5_NS_20back_insert_iteratorINS_12basic_stringIcNS_11char_traitsIcEENS_9allocatorIcEEEEEEEENS_4pairIT0_T2_EESF_T1_SG_, symObjAddr: 0x3DEEC, symBinAddr: 0x10004054C, symSize: 0x5C }
  - { offsetInCU: 0x45E0A, offset: 0x45E0A, size: 0x8, addend: 0x0, symName: __ZNSt3__123__dispatch_copy_or_moveB7v160006INS_17_ClassicAlgPolicyENS_11__copy_loopIS1_EENS_14__copy_trivialENS_11__wrap_iterIPKcEES8_NS_20back_insert_iteratorINS_12basic_stringIcNS_11char_traitsIcEENS_9allocatorIcEEEEEEEENS_4pairIT2_T4_EESI_T3_SJ_, symObjAddr: 0x3DF48, symBinAddr: 0x1000405A8, symSize: 0x5C }
  - { offsetInCU: 0x45E88, offset: 0x45E88, size: 0x8, addend: 0x0, symName: __ZNSt3__121__unwrap_and_dispatchB7v160006INS_10__overloadINS_11__copy_loopINS_17_ClassicAlgPolicyEEENS_14__copy_trivialEEENS_11__wrap_iterIPKcEESA_NS_20back_insert_iteratorINS_12basic_stringIcNS_11char_traitsIcEENS_9allocatorIcEEEEEELi0EEENS_4pairIT0_T2_EESK_T1_SL_, symObjAddr: 0x3DFA4, symBinAddr: 0x100040604, symSize: 0xE8 }
  - { offsetInCU: 0x45F17, offset: 0x45F17, size: 0x8, addend: 0x0, symName: __ZNSt3__114__unwrap_rangeB7v160006INS_11__wrap_iterIPKcEES4_EEDaT_T0_, symObjAddr: 0x3E08C, symBinAddr: 0x1000406EC, symSize: 0x4C }
  - { offsetInCU: 0x46037, offset: 0x46037, size: 0x8, addend: 0x0, symName: __ZNSt3__113__unwrap_iterB7v160006INS_20back_insert_iteratorINS_12basic_stringIcNS_11char_traitsIcEENS_9allocatorIcEEEEEENS_18__unwrap_iter_implIS8_Lb0EEELi0EEEDTclsrT0_8__unwrapclsr3stdE7declvalIT_EEEESC_, symObjAddr: 0x3E16C, symBinAddr: 0x1000407CC, symSize: 0x34 }
  - { offsetInCU: 0x4607B, offset: 0x4607B, size: 0x8, addend: 0x0, symName: __ZNSt3__19make_pairB7v160006INS_11__wrap_iterIPKcEENS_20back_insert_iteratorINS_12basic_stringIcNS_11char_traitsIcEENS_9allocatorIcEEEEEEEENS_4pairINS_18__unwrap_ref_decayIT_E4typeENSE_IT0_E4typeEEEOSF_OSI_, symObjAddr: 0x3E1A0, symBinAddr: 0x100040800, symSize: 0x38 }
  - { offsetInCU: 0x460CA, offset: 0x460CA, size: 0x8, addend: 0x0, symName: __ZNSt3__114__rewrap_rangeB7v160006INS_11__wrap_iterIPKcEES4_S3_EET0_S5_T1_, symObjAddr: 0x3E1D8, symBinAddr: 0x100040838, symSize: 0x3C }
  - { offsetInCU: 0x4611F, offset: 0x4611F, size: 0x8, addend: 0x0, symName: __ZNSt3__113__rewrap_iterB7v160006INS_20back_insert_iteratorINS_12basic_stringIcNS_11char_traitsIcEENS_9allocatorIcEEEEEES8_NS_18__unwrap_iter_implIS8_Lb0EEEEET_SB_T0_, symObjAddr: 0x3E214, symBinAddr: 0x100040874, symSize: 0x54 }
  - { offsetInCU: 0x461C4, offset: 0x461C4, size: 0x8, addend: 0x0, symName: __ZNSt3__113__unwrap_iterB7v160006INS_11__wrap_iterIPKcEENS_18__unwrap_iter_implIS4_Lb1EEELi0EEEDTclsrT0_8__unwrapclsr3stdE7declvalIT_EEEES8_, symObjAddr: 0x3E2D0, symBinAddr: 0x100040930, symSize: 0x2C }
  - { offsetInCU: 0x4625B, offset: 0x4625B, size: 0x8, addend: 0x0, symName: __ZNSt3__112__to_addressB7v160006INS_11__wrap_iterIPKcEEvEENS_5decayIDTclsr19__to_address_helperIT_EE6__callclsr3stdE7declvalIRKS6_EEEEE4typeES8_, symObjAddr: 0x3E324, symBinAddr: 0x100040984, symSize: 0x24 }
  - { offsetInCU: 0x462FC, offset: 0x462FC, size: 0x8, addend: 0x0, symName: __ZNSt3__19make_pairB7v160006IPKcNS_20back_insert_iteratorINS_12basic_stringIcNS_11char_traitsIcEENS_9allocatorIcEEEEEEEENS_4pairINS_18__unwrap_ref_decayIT_E4typeENSC_IT0_E4typeEEEOSD_OSG_, symObjAddr: 0x3E408, symBinAddr: 0x100040A68, symSize: 0x38 }
  - { offsetInCU: 0x46467, offset: 0x46467, size: 0x8, addend: 0x0, symName: __ZNSt3__113__rewrap_iterB7v160006INS_11__wrap_iterIPKcEES3_NS_18__unwrap_iter_implIS4_Lb1EEEEET_S7_T0_, symObjAddr: 0x3E578, symBinAddr: 0x100040BD8, symSize: 0x4C }
  - { offsetInCU: 0x464BD, offset: 0x464BD, size: 0x8, addend: 0x0, symName: __ZNSt3__115__debug_db_swapB7v160006INS_6vectorINS_9sub_matchINS_11__wrap_iterIPKcEEEENS_9allocatorIS7_EEEEEEvPT_SC_, symObjAddr: 0x3E928, symBinAddr: 0x100040F88, symSize: 0x14 }
  - { offsetInCU: 0x464FC, offset: 0x464FC, size: 0x8, addend: 0x0, symName: __ZNSt3__16searchB7v160006IPKcPcEET_S4_S4_T0_S5_, symObjAddr: 0x427E4, symBinAddr: 0x100044E44, symSize: 0x3C }
  - { offsetInCU: 0x46564, offset: 0x46564, size: 0x8, addend: 0x0, symName: __ZNSt3__16searchB7v160006IPKcPcNS_10__equal_toEEET_S5_S5_T0_S6_T1_, symObjAddr: 0x42860, symBinAddr: 0x100044EC0, symSize: 0x64 }
  - { offsetInCU: 0x465F1, offset: 0x465F1, size: 0x8, addend: 0x0, symName: __ZNSt3__113__search_implB7v160006IPKcS2_PcS3_NS_10__equal_toENS_10__identityES5_EENS_4pairIT_S7_EES7_T0_T1_T2_RT3_RT4_RT5_PNS_9enable_ifIXaasr33__is_cpp17_random_access_iteratorIS7_EE5valuesr33__is_cpp17_random_access_iteratorISA_EE5valueEvE4typeE, symObjAddr: 0x428C4, symBinAddr: 0x100044F24, symSize: 0xF8 }
  - { offsetInCU: 0x466D6, offset: 0x466D6, size: 0x8, addend: 0x0, symName: __ZNSt3__19make_pairB7v160006IRPKcS3_EENS_4pairINS_18__unwrap_ref_decayIT_E4typeENS5_IT0_E4typeEEEOS6_OS9_, symObjAddr: 0x429BC, symBinAddr: 0x10004501C, symSize: 0x38 }
  - { offsetInCU: 0x46725, offset: 0x46725, size: 0x8, addend: 0x0, symName: __ZNSt3__127__search_random_access_implB7v160006INS_17_ClassicAlgPolicyEPKcS3_PcS4_NS_10__equal_toENS_10__identityES6_llEENS_4pairIT0_S8_EES8_T1_T2_T3_RT4_RT5_RT6_T7_T8_, symObjAddr: 0x429F4, symBinAddr: 0x100045054, symSize: 0x1BC }
  - { offsetInCU: 0x46858, offset: 0x46858, size: 0x8, addend: 0x0, symName: __ZNSt3__19make_pairB7v160006IRPKcS2_EENS_4pairINS_18__unwrap_ref_decayIT_E4typeENS5_IT0_E4typeEEEOS6_OS9_, symObjAddr: 0x42C40, symBinAddr: 0x1000452A0, symSize: 0x38 }
  - { offsetInCU: 0x468A8, offset: 0x468A8, size: 0x8, addend: 0x0, symName: __ZNSt3__14findB7v160006IPKccEET_S3_S3_RKT0_, symObjAddr: 0x447B8, symBinAddr: 0x100046E18, symSize: 0x70 }
  - { offsetInCU: 0x46903, offset: 0x46903, size: 0x8, addend: 0x0, symName: __ZNSt3__119__debug_db_insert_cB7v160006INS_13unordered_mapINS_12basic_stringIcNS_11char_traitsIcEENS_9allocatorIcEEEE10VisitStateNS_4hashIS7_EENS_8equal_toIS7_EENS5_INS_4pairIKS7_S8_EEEEEEEEvPT_, symObjAddr: 0x44890, symBinAddr: 0x100046EF0, symSize: 0x10 }
  - { offsetInCU: 0x46935, offset: 0x46935, size: 0x8, addend: 0x0, symName: __ZNSt3__118__debug_db_erase_cB7v160006INS_12__hash_tableINS_17__hash_value_typeINS_12basic_stringIcNS_11char_traitsIcEENS_9allocatorIcEEEE10VisitStateEENS_22__unordered_map_hasherIS8_SA_NS_4hashIS8_EENS_8equal_toIS8_EELb1EEENS_21__unordered_map_equalIS8_SA_SF_SD_Lb1EEENS6_ISA_EEEEEEvPT_, symObjAddr: 0x44FEC, symBinAddr: 0x10004764C, symSize: 0x10 }
  - { offsetInCU: 0x46999, offset: 0x46999, size: 0x8, addend: 0x0, symName: __ZNSt3__110destroy_atB7v160006INS_4pairIKNS_12basic_stringIcNS_11char_traitsIcEENS_9allocatorIcEEEE10VisitStateEELi0EEEvPT_, symObjAddr: 0x45140, symBinAddr: 0x1000477A0, symSize: 0x24 }
  - { offsetInCU: 0x469D0, offset: 0x469D0, size: 0x8, addend: 0x0, symName: __ZNSt3__112__destroy_atB7v160006INS_4pairIKNS_12basic_stringIcNS_11char_traitsIcEENS_9allocatorIcEEEE10VisitStateEELi0EEEvPT_, symObjAddr: 0x45164, symBinAddr: 0x1000477C4, symSize: 0x24 }
  - { offsetInCU: 0x46A07, offset: 0x46A07, size: 0x8, addend: 0x0, symName: __ZNSt3__17launderB7v160006INS_4pairIKNS_12basic_stringIcNS_11char_traitsIcEENS_9allocatorIcEEEE10VisitStateEEEEPT_SC_, symObjAddr: 0x45204, symBinAddr: 0x100047864, symSize: 0x24 }
  - { offsetInCU: 0x46A3E, offset: 0x46A3E, size: 0x8, addend: 0x0, symName: __ZNSt3__19__launderB7v160006INS_4pairIKNS_12basic_stringIcNS_11char_traitsIcEENS_9allocatorIcEEEE10VisitStateEEEEPT_SC_, symObjAddr: 0x45228, symBinAddr: 0x100047888, symSize: 0x14 }
  - { offsetInCU: 0x46AA8, offset: 0x46AA8, size: 0x8, addend: 0x0, symName: __ZNSt3__1neB7v160006ERKNS_21__tree_const_iteratorINS_12__value_typeINS_12basic_stringIcNS_11char_traitsIcEENS_9allocatorIcEEEENS_6vectorIS7_NS5_IS7_EEEEEEPNS_11__tree_nodeISB_PvEElEESI_, symObjAddr: 0x45954, symBinAddr: 0x100047FB4, symSize: 0x34 }
  - { offsetInCU: 0x46AE5, offset: 0x46AE5, size: 0x8, addend: 0x0, symName: __ZNSt3__1eqB7v160006ERKNS_21__tree_const_iteratorINS_12__value_typeINS_12basic_stringIcNS_11char_traitsIcEENS_9allocatorIcEEEENS_6vectorIS7_NS5_IS7_EEEEEEPNS_11__tree_nodeISB_PvEElEESI_, symObjAddr: 0x45988, symBinAddr: 0x100047FE8, symSize: 0x30 }
  - { offsetInCU: 0x46B22, offset: 0x46B22, size: 0x8, addend: 0x0, symName: __ZNSt3__116__tree_next_iterB7v160006IPNS_15__tree_end_nodeIPNS_16__tree_node_baseIPvEEEES5_EET_T0_, symObjAddr: 0x459F0, symBinAddr: 0x100048050, symSize: 0x90 }
  - { offsetInCU: 0x46B61, offset: 0x46B61, size: 0x8, addend: 0x0, symName: __ZNSt3__110__tree_minB7v160006IPNS_16__tree_node_baseIPvEEEET_S5_, symObjAddr: 0x45A80, symBinAddr: 0x1000480E0, symSize: 0x40 }
  - { offsetInCU: 0x46B97, offset: 0x46B97, size: 0x8, addend: 0x0, symName: __ZNSt3__120__tree_is_left_childB7v160006IPNS_16__tree_node_baseIPvEEEEbT_, symObjAddr: 0x45AC0, symBinAddr: 0x100048120, symSize: 0x2C }
  - { offsetInCU: 0x46BFF, offset: 0x46BFF, size: 0x8, addend: 0x0, symName: __ZNSt3__17launderB7v160006IKNS_4pairIKNS_12basic_stringIcNS_11char_traitsIcEENS_9allocatorIcEEEENS_6vectorIS7_NS5_IS7_EEEEEEEEPT_SF_, symObjAddr: 0x45B80, symBinAddr: 0x1000481E0, symSize: 0x24 }
  - { offsetInCU: 0x46C36, offset: 0x46C36, size: 0x8, addend: 0x0, symName: __ZNSt3__19__launderB7v160006IKNS_4pairIKNS_12basic_stringIcNS_11char_traitsIcEENS_9allocatorIcEEEENS_6vectorIS7_NS5_IS7_EEEEEEEEPT_SF_, symObjAddr: 0x45BA4, symBinAddr: 0x100048204, symSize: 0x14 }
  - { offsetInCU: 0x46CA4, offset: 0x46CA4, size: 0x8, addend: 0x0, symName: __ZNSt3__116forward_as_tupleB7v160006IJRKNS_12basic_stringIcNS_11char_traitsIcEENS_9allocatorIcEEEEEEENS_5tupleIJDpOT_EEESC_, symObjAddr: 0x46088, symBinAddr: 0x1000486E8, symSize: 0x2C }
  - { offsetInCU: 0x46CDD, offset: 0x46CDD, size: 0x8, addend: 0x0, symName: __ZNSt3__116forward_as_tupleB7v160006IJEEENS_5tupleIJDpOT_EEES4_, symObjAddr: 0x460B4, symBinAddr: 0x100048714, symSize: 0x4 }
  - { offsetInCU: 0x46D02, offset: 0x46D02, size: 0x8, addend: 0x0, symName: __ZNSt3__116__constrain_hashB7v160006Emm, symObjAddr: 0x46164, symBinAddr: 0x1000487C4, symSize: 0x98 }
  - { offsetInCU: 0x46D3D, offset: 0x46D3D, size: 0x8, addend: 0x0, symName: __ZNSt3__116__is_hash_power2B7v160006Em, symObjAddr: 0x46484, symBinAddr: 0x100048AE4, symSize: 0x50 }
  - { offsetInCU: 0x46D69, offset: 0x46D69, size: 0x8, addend: 0x0, symName: __ZNSt3__116__do_string_hashB7v160006IPKcEEmT_S3_, symObjAddr: 0x466E4, symBinAddr: 0x100048D44, symSize: 0x3C }
  - { offsetInCU: 0x46DB0, offset: 0x46DB0, size: 0x8, addend: 0x0, symName: __ZNSt3__110__loadwordB7v160006ImEET_PKv, symObjAddr: 0x470D8, symBinAddr: 0x100049738, symSize: 0x20 }
  - { offsetInCU: 0x46DF4, offset: 0x46DF4, size: 0x8, addend: 0x0, symName: __ZNSt3__14swapB7v160006ImEENS_9enable_ifIXaasr21is_move_constructibleIT_EE5valuesr18is_move_assignableIS2_EE5valueEvE4typeERS2_S5_, symObjAddr: 0x47294, symBinAddr: 0x1000498F4, symSize: 0x3C }
  - { offsetInCU: 0x46E46, offset: 0x46E46, size: 0x8, addend: 0x0, symName: __ZNSt3__110__loadwordB7v160006IjEET_PKv, symObjAddr: 0x47324, symBinAddr: 0x100049984, symSize: 0x20 }
  - { offsetInCU: 0x46E89, offset: 0x46E89, size: 0x8, addend: 0x0, symName: __ZNSt3__17launderB7v160006IKNS_4pairIKNS_12basic_stringIcNS_11char_traitsIcEENS_9allocatorIcEEEE10VisitStateEEEEPT_SD_, symObjAddr: 0x47600, symBinAddr: 0x100049C60, symSize: 0x24 }
  - { offsetInCU: 0x46EC0, offset: 0x46EC0, size: 0x8, addend: 0x0, symName: __ZNSt3__19__launderB7v160006IKNS_4pairIKNS_12basic_stringIcNS_11char_traitsIcEENS_9allocatorIcEEEE10VisitStateEEEEPT_SD_, symObjAddr: 0x47624, symBinAddr: 0x100049C84, symSize: 0x14 }
  - { offsetInCU: 0x46F3C, offset: 0x46F3C, size: 0x8, addend: 0x0, symName: __ZNSt3__112construct_atB7v160006INS_4pairIKNS_12basic_stringIcNS_11char_traitsIcEENS_9allocatorIcEEEE10VisitStateEEJRKNS_21piecewise_construct_tENS_5tupleIJRS8_EEENSE_IJEEEEPSA_EEPT_SK_DpOT0_, symObjAddr: 0x4791C, symBinAddr: 0x100049F7C, symSize: 0x50 }
  - { offsetInCU: 0x46FE0, offset: 0x46FE0, size: 0x8, addend: 0x0, symName: __ZNSt3__13getB7v160006ILm0EJRKNS_12basic_stringIcNS_11char_traitsIcEENS_9allocatorIcEEEEEEERNS_13tuple_elementIXT_ENS_5tupleIJDpT0_EEEE4typeERSD_, symObjAddr: 0x47A2C, symBinAddr: 0x10004A08C, symSize: 0x24 }
  - { offsetInCU: 0x47023, offset: 0x47023, size: 0x8, addend: 0x0, symName: __ZNSt3__116__next_hash_pow2B7v160006Em, symObjAddr: 0x47F38, symBinAddr: 0x10004A598, symSize: 0x6C }
  - { offsetInCU: 0x47050, offset: 0x47050, size: 0x8, addend: 0x0, symName: __ZNSt3__125__debug_db_invalidate_allB7v160006INS_12__hash_tableINS_17__hash_value_typeINS_12basic_stringIcNS_11char_traitsIcEENS_9allocatorIcEEEE10VisitStateEENS_22__unordered_map_hasherIS8_SA_NS_4hashIS8_EENS_8equal_toIS8_EELb1EEENS_21__unordered_map_equalIS8_SA_SF_SD_Lb1EEENS6_ISA_EEEEEEvPT_, symObjAddr: 0x47FA4, symBinAddr: 0x10004A604, symSize: 0x10 }
  - { offsetInCU: 0x47082, offset: 0x47082, size: 0x8, addend: 0x0, symName: __ZNSt3__112__libcpp_clzB7v160006Em, symObjAddr: 0x480FC, symBinAddr: 0x10004A75C, symSize: 0x1C }
  - { offsetInCU: 0x474AB, offset: 0x474AB, size: 0x8, addend: 0x0, symName: __ZNSt3__14swapB7v160006IPPNS_12basic_stringIcNS_11char_traitsIcEENS_9allocatorIcEEEEEENS_9enable_ifIXaasr21is_move_constructibleIT_EE5valuesr18is_move_assignableISA_EE5valueEvE4typeERSA_SD_, symObjAddr: 0x49618, symBinAddr: 0x10004BC78, symSize: 0x3C }
  - { offsetInCU: 0x474FC, offset: 0x474FC, size: 0x8, addend: 0x0, symName: __ZNSt3__14moveB7v160006IPPNS_12basic_stringIcNS_11char_traitsIcEENS_9allocatorIcEEEES8_EET0_T_SA_S9_, symObjAddr: 0x496FC, symBinAddr: 0x10004BD5C, symSize: 0x40 }
  - { offsetInCU: 0x47556, offset: 0x47556, size: 0x8, addend: 0x0, symName: __ZNSt3__16__moveB7v160006INS_17_ClassicAlgPolicyEPPNS_12basic_stringIcNS_11char_traitsIcEENS_9allocatorIcEEEES9_S9_EENS_4pairIT0_T2_EESB_T1_SC_, symObjAddr: 0x4989C, symBinAddr: 0x10004BEFC, symSize: 0x44 }
  - { offsetInCU: 0x475C2, offset: 0x475C2, size: 0x8, addend: 0x0, symName: __ZNSt3__123__dispatch_copy_or_moveB7v160006INS_17_ClassicAlgPolicyENS_11__move_loopIS1_EENS_14__move_trivialEPPNS_12basic_stringIcNS_11char_traitsIcEENS_9allocatorIcEEEESC_SC_EENS_4pairIT2_T4_EESE_T3_SF_, symObjAddr: 0x498E0, symBinAddr: 0x10004BF40, symSize: 0x44 }
  - { offsetInCU: 0x47640, offset: 0x47640, size: 0x8, addend: 0x0, symName: __ZNSt3__121__unwrap_and_dispatchB7v160006INS_10__overloadINS_11__move_loopINS_17_ClassicAlgPolicyEEENS_14__move_trivialEEEPPNS_12basic_stringIcNS_11char_traitsIcEENS_9allocatorIcEEEESE_SE_Li0EEENS_4pairIT0_T2_EESG_T1_SH_, symObjAddr: 0x49924, symBinAddr: 0x10004BF84, symSize: 0xB4 }
  - { offsetInCU: 0x476CE, offset: 0x476CE, size: 0x8, addend: 0x0, symName: __ZNSt3__114__unwrap_rangeB7v160006IPPNS_12basic_stringIcNS_11char_traitsIcEENS_9allocatorIcEEEES8_EEDaT_T0_, symObjAddr: 0x499D8, symBinAddr: 0x10004C038, symSize: 0x3C }
  - { offsetInCU: 0x4784C, offset: 0x4784C, size: 0x8, addend: 0x0, symName: __ZNSt3__113__unwrap_iterB7v160006IPPNS_12basic_stringIcNS_11char_traitsIcEENS_9allocatorIcEEEENS_18__unwrap_iter_implIS8_Lb1EEELi0EEEDTclsrT0_8__unwrapclsr3stdE7declvalIT_EEEESC_, symObjAddr: 0x49A5C, symBinAddr: 0x10004C0BC, symSize: 0x24 }
  - { offsetInCU: 0x47890, offset: 0x47890, size: 0x8, addend: 0x0, symName: __ZNSt3__19make_pairB7v160006IPPNS_12basic_stringIcNS_11char_traitsIcEENS_9allocatorIcEEEES8_EENS_4pairINS_18__unwrap_ref_decayIT_E4typeENSA_IT0_E4typeEEEOSB_OSE_, symObjAddr: 0x49A80, symBinAddr: 0x10004C0E0, symSize: 0x38 }
  - { offsetInCU: 0x478DF, offset: 0x478DF, size: 0x8, addend: 0x0, symName: __ZNSt3__114__rewrap_rangeB7v160006IPPNS_12basic_stringIcNS_11char_traitsIcEENS_9allocatorIcEEEES8_S8_EET0_S9_T1_, symObjAddr: 0x49AB8, symBinAddr: 0x10004C118, symSize: 0x2C }
  - { offsetInCU: 0x47934, offset: 0x47934, size: 0x8, addend: 0x0, symName: __ZNSt3__113__rewrap_iterB7v160006IPPNS_12basic_stringIcNS_11char_traitsIcEENS_9allocatorIcEEEES8_NS_18__unwrap_iter_implIS8_Lb1EEEEET_SB_T0_, symObjAddr: 0x49AE4, symBinAddr: 0x10004C144, symSize: 0x3C }
  - { offsetInCU: 0x479D9, offset: 0x479D9, size: 0x8, addend: 0x0, symName: __ZNSt3__119__copy_trivial_implB7v160006IPNS_12basic_stringIcNS_11char_traitsIcEENS_9allocatorIcEEEES7_EENS_4pairIPT_PT0_EESA_SA_SC_, symObjAddr: 0x49BE8, symBinAddr: 0x10004C248, symSize: 0x84 }
  - { offsetInCU: 0x47A41, offset: 0x47A41, size: 0x8, addend: 0x0, symName: __ZNSt3__19make_pairB7v160006IRPPNS_12basic_stringIcNS_11char_traitsIcEENS_9allocatorIcEEEES8_EENS_4pairINS_18__unwrap_ref_decayIT_E4typeENSB_IT0_E4typeEEEOSC_OSF_, symObjAddr: 0x49C6C, symBinAddr: 0x10004C2CC, symSize: 0x38 }
  - { offsetInCU: 0x47AE3, offset: 0x47AE3, size: 0x8, addend: 0x0, symName: __ZNSt3__18distanceB7v160006INS_13move_iteratorIPPNS_12basic_stringIcNS_11char_traitsIcEENS_9allocatorIcEEEEEEEENS_15iterator_traitsIT_E15difference_typeESC_SC_, symObjAddr: 0x49DB4, symBinAddr: 0x10004C414, symSize: 0x3C }
  - { offsetInCU: 0x47B26, offset: 0x47B26, size: 0x8, addend: 0x0, symName: __ZNSt3__110__distanceB7v160006INS_13move_iteratorIPPNS_12basic_stringIcNS_11char_traitsIcEENS_9allocatorIcEEEEEEEENS_15iterator_traitsIT_E15difference_typeESC_SC_NS_26random_access_iterator_tagE, symObjAddr: 0x49EFC, symBinAddr: 0x10004C55C, symSize: 0x30 }
  - { offsetInCU: 0x47B73, offset: 0x47B73, size: 0x8, addend: 0x0, symName: __ZNSt3__1miB7v160006IPPNS_12basic_stringIcNS_11char_traitsIcEENS_9allocatorIcEEEES8_EEDTmicldtfp_4baseEcldtfp0_4baseEERKNS_13move_iteratorIT_EERKNSA_IT0_EE, symObjAddr: 0x49F2C, symBinAddr: 0x10004C58C, symSize: 0x4C }
  - { offsetInCU: 0x47BEA, offset: 0x47BEA, size: 0x8, addend: 0x0, symName: __ZNSt3__112construct_atB7v160006IPNS_12basic_stringIcNS_11char_traitsIcEENS_9allocatorIcEEEEJS7_EPS7_EEPT_SA_DpOT0_, symObjAddr: 0x49FD0, symBinAddr: 0x10004C630, symSize: 0x2C }
  - { offsetInCU: 0x47C5D, offset: 0x47C5D, size: 0x8, addend: 0x0, symName: __ZNSt3__112construct_atB7v160006IPNS_12basic_stringIcNS_11char_traitsIcEENS_9allocatorIcEEEEJRKS7_EPS7_EEPT_SC_DpOT0_, symObjAddr: 0x4A098, symBinAddr: 0x10004C6F8, symSize: 0x2C }
  - { offsetInCU: 0x47CCF, offset: 0x47CCF, size: 0x8, addend: 0x0, symName: __ZNSt3__113move_backwardB7v160006IPPNS_12basic_stringIcNS_11char_traitsIcEENS_9allocatorIcEEEES8_EET0_T_SA_S9_, symObjAddr: 0x4A0C4, symBinAddr: 0x10004C724, symSize: 0x40 }
  - { offsetInCU: 0x47D29, offset: 0x47D29, size: 0x8, addend: 0x0, symName: __ZNSt3__115__move_backwardB7v160006INS_17_ClassicAlgPolicyEPPNS_12basic_stringIcNS_11char_traitsIcEENS_9allocatorIcEEEES9_S9_EENS_4pairIT0_T2_EESB_T1_SC_, symObjAddr: 0x4A104, symBinAddr: 0x10004C764, symSize: 0x44 }
  - { offsetInCU: 0x47D95, offset: 0x47D95, size: 0x8, addend: 0x0, symName: __ZNSt3__123__dispatch_copy_or_moveB7v160006INS_17_ClassicAlgPolicyENS_20__move_backward_loopIS1_EENS_23__move_backward_trivialEPPNS_12basic_stringIcNS_11char_traitsIcEENS_9allocatorIcEEEESC_SC_EENS_4pairIT2_T4_EESE_T3_SF_, symObjAddr: 0x4A148, symBinAddr: 0x10004C7A8, symSize: 0x44 }
  - { offsetInCU: 0x47E13, offset: 0x47E13, size: 0x8, addend: 0x0, symName: __ZNSt3__121__unwrap_and_dispatchB7v160006INS_10__overloadINS_20__move_backward_loopINS_17_ClassicAlgPolicyEEENS_23__move_backward_trivialEEEPPNS_12basic_stringIcNS_11char_traitsIcEENS_9allocatorIcEEEESE_SE_Li0EEENS_4pairIT0_T2_EESG_T1_SH_, symObjAddr: 0x4A18C, symBinAddr: 0x10004C7EC, symSize: 0xB4 }
  - { offsetInCU: 0x47EA1, offset: 0x47EA1, size: 0x8, addend: 0x0, symName: __ZNSt3__128__copy_backward_trivial_implB7v160006IPNS_12basic_stringIcNS_11char_traitsIcEENS_9allocatorIcEEEES7_EENS_4pairIPT_PT0_EESA_SA_SC_, symObjAddr: 0x4A288, symBinAddr: 0x10004C8E8, symSize: 0x94 }
  - { offsetInCU: 0x47F09, offset: 0x47F09, size: 0x8, addend: 0x0, symName: __ZNSt3__19make_pairB7v160006IRPPNS_12basic_stringIcNS_11char_traitsIcEENS_9allocatorIcEEEES9_EENS_4pairINS_18__unwrap_ref_decayIT_E4typeENSB_IT0_E4typeEEEOSC_OSF_, symObjAddr: 0x4A31C, symBinAddr: 0x10004C97C, symSize: 0x38 }
  - { offsetInCU: 0x47F58, offset: 0x47F58, size: 0x8, addend: 0x0, symName: __ZNSt3__119__allocate_at_leastB7v160006INS_9allocatorIPNS_12basic_stringIcNS_11char_traitsIcEENS1_IcEEEEEEEENS_19__allocation_resultINS_16allocator_traitsIT_E7pointerEEERSB_m, symObjAddr: 0x4A4D4, symBinAddr: 0x10004CB34, symSize: 0x40 }
  - { offsetInCU: 0x47F9C, offset: 0x47F9C, size: 0x8, addend: 0x0, symName: __ZNSt3__120__throw_out_of_rangeB7v160006EPKc, symObjAddr: 0x4ADB8, symBinAddr: 0x10004D418, symSize: 0x64 }
  - { offsetInCU: 0x47FC6, offset: 0x47FC6, size: 0x8, addend: 0x0, symName: __ZNSt3__1ltB7v160006ENS_15strong_orderingENS_20_CmpUnspecifiedParamE, symObjAddr: 0x4B184, symBinAddr: 0x10004D7E4, symSize: 0x24 }
  - { offsetInCU: 0x48000, offset: 0x48000, size: 0x8, addend: 0x0, symName: __ZNSt3__17launderB7v160006INS_4pairIKNS_12basic_stringIcNS_11char_traitsIcEENS_9allocatorIcEEEENS_6vectorIS7_NS5_IS7_EEEEEEEEPT_SE_, symObjAddr: 0x4B260, symBinAddr: 0x10004D8C0, symSize: 0x24 }
  - { offsetInCU: 0x48037, offset: 0x48037, size: 0x8, addend: 0x0, symName: __ZNSt3__19__launderB7v160006INS_4pairIKNS_12basic_stringIcNS_11char_traitsIcEENS_9allocatorIcEEEENS_6vectorIS7_NS5_IS7_EEEEEEEEPT_SE_, symObjAddr: 0x4B284, symBinAddr: 0x10004D8E4, symSize: 0x14 }
  - { offsetInCU: 0x4806F, offset: 0x4806F, size: 0x8, addend: 0x0, symName: __ZNSt3__119__debug_db_insert_cB7v160006INS_13unordered_mapINS_12basic_stringIcNS_11char_traitsIcEENS_9allocatorIcEEEENS_6chrono10time_pointINS_4__fs10filesystem16_FilesystemClockENS8_8durationInNS_5ratioILl1ELl1000000000EEEEEEENS_4hashIS7_EENS_8equal_toIS7_EENS5_INS_4pairIKS7_SH_EEEEEEEEvPT_, symObjAddr: 0x4B300, symBinAddr: 0x10004D960, symSize: 0x10 }
  - { offsetInCU: 0x480A1, offset: 0x480A1, size: 0x8, addend: 0x0, symName: __ZNSt3__118__debug_db_erase_cB7v160006INS_12__hash_tableINS_17__hash_value_typeINS_12basic_stringIcNS_11char_traitsIcEENS_9allocatorIcEEEENS_6chrono10time_pointINS_4__fs10filesystem16_FilesystemClockENS9_8durationInNS_5ratioILl1ELl1000000000EEEEEEEEENS_22__unordered_map_hasherIS8_SJ_NS_4hashIS8_EENS_8equal_toIS8_EELb1EEENS_21__unordered_map_equalIS8_SJ_SO_SM_Lb1EEENS6_ISJ_EEEEEEvPT_, symObjAddr: 0x4BA38, symBinAddr: 0x10004E098, symSize: 0x10 }
  - { offsetInCU: 0x48105, offset: 0x48105, size: 0x8, addend: 0x0, symName: __ZNSt3__110destroy_atB7v160006INS_4pairIKNS_12basic_stringIcNS_11char_traitsIcEENS_9allocatorIcEEEENS_6chrono10time_pointINS_4__fs10filesystem16_FilesystemClockENS9_8durationInNS_5ratioILl1ELl1000000000EEEEEEEEELi0EEEvPT_, symObjAddr: 0x4BB8C, symBinAddr: 0x10004E1EC, symSize: 0x24 }
  - { offsetInCU: 0x4813C, offset: 0x4813C, size: 0x8, addend: 0x0, symName: __ZNSt3__112__destroy_atB7v160006INS_4pairIKNS_12basic_stringIcNS_11char_traitsIcEENS_9allocatorIcEEEENS_6chrono10time_pointINS_4__fs10filesystem16_FilesystemClockENS9_8durationInNS_5ratioILl1ELl1000000000EEEEEEEEELi0EEEvPT_, symObjAddr: 0x4BBB0, symBinAddr: 0x10004E210, symSize: 0x24 }
  - { offsetInCU: 0x48173, offset: 0x48173, size: 0x8, addend: 0x0, symName: __ZNSt3__17launderB7v160006INS_4pairIKNS_12basic_stringIcNS_11char_traitsIcEENS_9allocatorIcEEEENS_6chrono10time_pointINS_4__fs10filesystem16_FilesystemClockENS9_8durationInNS_5ratioILl1ELl1000000000EEEEEEEEEEEPT_SL_, symObjAddr: 0x4BC50, symBinAddr: 0x10004E2B0, symSize: 0x24 }
  - { offsetInCU: 0x481AA, offset: 0x481AA, size: 0x8, addend: 0x0, symName: __ZNSt3__19__launderB7v160006INS_4pairIKNS_12basic_stringIcNS_11char_traitsIcEENS_9allocatorIcEEEENS_6chrono10time_pointINS_4__fs10filesystem16_FilesystemClockENS9_8durationInNS_5ratioILl1ELl1000000000EEEEEEEEEEEPT_SL_, symObjAddr: 0x4BC74, symBinAddr: 0x10004E2D4, symSize: 0x14 }
  - { offsetInCU: 0x481E1, offset: 0x481E1, size: 0x8, addend: 0x0, symName: __ZNSt3__17launderB7v160006IKNS_4pairIKNS_12basic_stringIcNS_11char_traitsIcEENS_9allocatorIcEEEENS_6chrono10time_pointINS_4__fs10filesystem16_FilesystemClockENS9_8durationInNS_5ratioILl1ELl1000000000EEEEEEEEEEEPT_SM_, symObjAddr: 0x4CA18, symBinAddr: 0x10004F078, symSize: 0x24 }
  - { offsetInCU: 0x48218, offset: 0x48218, size: 0x8, addend: 0x0, symName: __ZNSt3__19__launderB7v160006IKNS_4pairIKNS_12basic_stringIcNS_11char_traitsIcEENS_9allocatorIcEEEENS_6chrono10time_pointINS_4__fs10filesystem16_FilesystemClockENS9_8durationInNS_5ratioILl1ELl1000000000EEEEEEEEEEEPT_SM_, symObjAddr: 0x4CA3C, symBinAddr: 0x10004F09C, symSize: 0x14 }
  - { offsetInCU: 0x48294, offset: 0x48294, size: 0x8, addend: 0x0, symName: __ZNSt3__112construct_atB7v160006INS_4pairIKNS_12basic_stringIcNS_11char_traitsIcEENS_9allocatorIcEEEENS_6chrono10time_pointINS_4__fs10filesystem16_FilesystemClockENS9_8durationInNS_5ratioILl1ELl1000000000EEEEEEEEEJRKNS_21piecewise_construct_tENS_5tupleIJRS8_EEENSN_IJEEEEPSJ_EEPT_ST_DpOT0_, symObjAddr: 0x4CD30, symBinAddr: 0x10004F390, symSize: 0x50 }
  - { offsetInCU: 0x4832D, offset: 0x4832D, size: 0x8, addend: 0x0, symName: __ZNSt3__125__debug_db_invalidate_allB7v160006INS_12__hash_tableINS_17__hash_value_typeINS_12basic_stringIcNS_11char_traitsIcEENS_9allocatorIcEEEENS_6chrono10time_pointINS_4__fs10filesystem16_FilesystemClockENS9_8durationInNS_5ratioILl1ELl1000000000EEEEEEEEENS_22__unordered_map_hasherIS8_SJ_NS_4hashIS8_EENS_8equal_toIS8_EELb1EEENS_21__unordered_map_equalIS8_SJ_SO_SM_Lb1EEENS6_ISJ_EEEEEEvPT_, symObjAddr: 0x4D458, symBinAddr: 0x10004FAB8, symSize: 0x10 }
  - { offsetInCU: 0x483B5, offset: 0x483B5, size: 0x8, addend: 0x0, symName: __ZNSt3__110destroy_atB7v160006INS_4pairIKNS_12basic_stringIcNS_11char_traitsIcEENS_9allocatorIcEEEENS_6vectorIS7_NS5_IS7_EEEEEELi0EEEvPT_, symObjAddr: 0x4E1DC, symBinAddr: 0x10005083C, symSize: 0x24 }
  - { offsetInCU: 0x483EC, offset: 0x483EC, size: 0x8, addend: 0x0, symName: __ZNSt3__112__destroy_atB7v160006INS_4pairIKNS_12basic_stringIcNS_11char_traitsIcEENS_9allocatorIcEEEENS_6vectorIS7_NS5_IS7_EEEEEELi0EEEvPT_, symObjAddr: 0x4E200, symBinAddr: 0x100050860, symSize: 0x24 }
  - { offsetInCU: 0x48468, offset: 0x48468, size: 0x8, addend: 0x0, symName: __ZNSt3__112construct_atB7v160006INS_4pairIKNS_12basic_stringIcNS_11char_traitsIcEENS_9allocatorIcEEEENS_6vectorIS7_NS5_IS7_EEEEEEJRKNS_21piecewise_construct_tENS_5tupleIJRS8_EEENSG_IJEEEEPSC_EEPT_SM_DpOT0_, symObjAddr: 0x4E9F0, symBinAddr: 0x100051050, symSize: 0x50 }
  - { offsetInCU: 0x48501, offset: 0x48501, size: 0x8, addend: 0x0, symName: __ZNSt3__127__tree_balance_after_insertB7v160006IPNS_16__tree_node_baseIPvEEEEvT_S5_, symObjAddr: 0x4EB7C, symBinAddr: 0x1000511DC, symSize: 0x27C }
  - { offsetInCU: 0x48580, offset: 0x48580, size: 0x8, addend: 0x0, symName: __ZNSt3__118__tree_left_rotateB7v160006IPNS_16__tree_node_baseIPvEEEEvT_, symObjAddr: 0x4EE20, symBinAddr: 0x100051480, symSize: 0xD8 }
  - { offsetInCU: 0x485C3, offset: 0x485C3, size: 0x8, addend: 0x0, symName: __ZNSt3__119__tree_right_rotateB7v160006IPNS_16__tree_node_baseIPvEEEEvT_, symObjAddr: 0x4EEF8, symBinAddr: 0x100051558, symSize: 0xCC }
  - { offsetInCU: 0x48638, offset: 0x48638, size: 0x8, addend: 0x0, symName: __ZNSt3__1neB7v160006ERKNS_15__tree_iteratorINS_12__value_typeINS_12basic_stringIcNS_11char_traitsIcEENS_9allocatorIcEEEENS_6vectorIS7_NS5_IS7_EEEEEEPNS_11__tree_nodeISB_PvEElEESI_, symObjAddr: 0x4F3CC, symBinAddr: 0x100051A2C, symSize: 0x34 }
  - { offsetInCU: 0x48675, offset: 0x48675, size: 0x8, addend: 0x0, symName: __ZNSt3__1eqB7v160006ERKNS_15__tree_iteratorINS_12__value_typeINS_12basic_stringIcNS_11char_traitsIcEENS_9allocatorIcEEEENS_6vectorIS7_NS5_IS7_EEEEEEPNS_11__tree_nodeISB_PvEElEESI_, symObjAddr: 0x4F4B0, symBinAddr: 0x100051B10, symSize: 0x30 }
  - { offsetInCU: 0x49893, offset: 0x49893, size: 0x8, addend: 0x0, symName: __ZSt28__throw_bad_array_new_lengthB7v160006v, symObjAddr: 0x6854, symBinAddr: 0x100008EB4, symSize: 0x34 }
  - { offsetInCU: 0x4A0C3, offset: 0x4A0C3, size: 0x8, addend: 0x0, symName: _currentFiles, symObjAddr: 0x24FA68, symBinAddr: 0x10005C028, symSize: 0x0 }
  - { offsetInCU: 0x4B080, offset: 0x4B080, size: 0x8, addend: 0x0, symName: __ZNSt3__16vectorINS_12basic_stringIcNS_11char_traitsIcEENS_9allocatorIcEEEENS4_IS6_EEE26__swap_out_circular_bufferERNS_14__split_bufferIS6_RS7_EE, symObjAddr: 0x60AC, symBinAddr: 0x10000870C, symSize: 0x118 }
  - { offsetInCU: 0x4B3A8, offset: 0x4B3A8, size: 0x8, addend: 0x0, symName: __ZNSt3__16vectorI5MacroNS_9allocatorIS1_EEE26__swap_out_circular_bufferERNS_14__split_bufferIS1_RS3_EE, symObjAddr: 0x938C, symBinAddr: 0x10000B9EC, symSize: 0x118 }
  - { offsetInCU: 0x4B6A5, offset: 0x4B6A5, size: 0x8, addend: 0x0, symName: __ZNSt3__16vectorI11TargetRulesNS_9allocatorIS1_EEE26__swap_out_circular_bufferERNS_14__split_bufferIS1_RS3_EE, symObjAddr: 0xB294, symBinAddr: 0x10000D8F4, symSize: 0x118 }
  - { offsetInCU: 0x4B959, offset: 0x4B959, size: 0x8, addend: 0x0, symName: __ZNSt3__16vectorI13InferenceRuleNS_9allocatorIS1_EEE26__swap_out_circular_bufferERNS_14__split_bufferIS1_RS3_EE, symObjAddr: 0xCDCC, symBinAddr: 0x10000F42C, symSize: 0x118 }
  - { offsetInCU: 0x4BC78, offset: 0x4BC78, size: 0x8, addend: 0x0, symName: __ZNSt3__16vectorIPcNS_9allocatorIS1_EEE26__swap_out_circular_bufferERNS_14__split_bufferIS1_RS3_EE, symObjAddr: 0x11188, symBinAddr: 0x1000137E8, symSize: 0x118 }
  - { offsetInCU: 0x4C0E0, offset: 0x4C0E0, size: 0x8, addend: 0x0, symName: __ZNSt3__16vectorINS_7__stateIcEENS_9allocatorIS2_EEE26__swap_out_circular_bufferERNS_14__split_bufferIS2_RS4_EE, symObjAddr: 0x1E2A4, symBinAddr: 0x100020904, symSize: 0x118 }
  - { offsetInCU: 0x4C185, offset: 0x4C185, size: 0x8, addend: 0x0, symName: __ZNSt3__16vectorINS_9sub_matchIPKcEENS_9allocatorIS4_EEE26__swap_out_circular_bufferERNS_14__split_bufferIS4_RS6_EE, symObjAddr: 0x200C8, symBinAddr: 0x100022728, symSize: 0x118 }
  - { offsetInCU: 0x4C224, offset: 0x4C224, size: 0x8, addend: 0x0, symName: __ZNSt3__16vectorINS_4pairImPKcEENS_9allocatorIS4_EEE26__swap_out_circular_bufferERNS_14__split_bufferIS4_RS6_EE, symObjAddr: 0x214E0, symBinAddr: 0x100023B40, symSize: 0x118 }
  - { offsetInCU: 0x4C804, offset: 0x4C804, size: 0x8, addend: 0x0, symName: __ZNSt3__16vectorIcNS_9allocatorIcEEE26__swap_out_circular_bufferERNS_14__split_bufferIcRS2_EE, symObjAddr: 0x299FC, symBinAddr: 0x10002C05C, symSize: 0x118 }
  - { offsetInCU: 0x4C85E, offset: 0x4C85E, size: 0x8, addend: 0x0, symName: __ZNSt3__16vectorINS_4pairINS_12basic_stringIcNS_11char_traitsIcEENS_9allocatorIcEEEES7_EENS5_IS8_EEE26__swap_out_circular_bufferERNS_14__split_bufferIS8_RS9_EE, symObjAddr: 0x2E5D0, symBinAddr: 0x100030C30, symSize: 0x118 }
  - { offsetInCU: 0x4C8FD, offset: 0x4C8FD, size: 0x8, addend: 0x0, symName: __ZNSt3__16vectorINS_4pairIccEENS_9allocatorIS2_EEE26__swap_out_circular_bufferERNS_14__split_bufferIS2_RS4_EE, symObjAddr: 0x2FC8C, symBinAddr: 0x1000322EC, symSize: 0x118 }
  - { offsetInCU: 0x4CD2B, offset: 0x4CD2B, size: 0x8, addend: 0x0, symName: __ZNSt3__16vectorINS_9sub_matchINS_11__wrap_iterIPKcEEEENS_9allocatorIS6_EEE26__swap_out_circular_bufferERNS_14__split_bufferIS6_RS8_EE, symObjAddr: 0x3C5DC, symBinAddr: 0x10003EC3C, symSize: 0x118 }
  - { offsetInCU: 0x4FBD4, offset: 0x4FBD4, size: 0x8, addend: 0x0, symName: __Z11handleErrorRKNSt3__112basic_stringIcNS_11char_traitsIcEENS_9allocatorIcEEEE, symObjAddr: 0x0, symBinAddr: 0x100002660, symSize: 0x44 }
  - { offsetInCU: 0x4FBFD, offset: 0x4FBFD, size: 0x8, addend: 0x0, symName: __ZNSt3__113basic_ostreamIcNS_11char_traitsIcEEElsB7v160006EPFRS3_S4_E, symObjAddr: 0xD8, symBinAddr: 0x100002738, symSize: 0x2C }
  - { offsetInCU: 0x4FC30, offset: 0x4FC30, size: 0x8, addend: 0x0, symName: __Z12splitAndTrimRKNSt3__112basic_stringIcNS_11char_traitsIcEENS_9allocatorIcEEEE, symObjAddr: 0x15C, symBinAddr: 0x1000027BC, symSize: 0x148 }
  - { offsetInCU: 0x4FD7B, offset: 0x4FD7B, size: 0x8, addend: 0x0, symName: __ZNSt3__119basic_istringstreamIcNS_11char_traitsIcEENS_9allocatorIcEEEC1B7v160006ERKNS_12basic_stringIcS2_S4_EEj, symObjAddr: 0x2A4, symBinAddr: 0x100002904, symSize: 0xFC }
  - { offsetInCU: 0x4FDC3, offset: 0x4FDC3, size: 0x8, addend: 0x0, symName: __ZNSt3__112basic_stringIcNS_11char_traitsIcEENS_9allocatorIcEEEC1B7v160006Ev, symObjAddr: 0x3A0, symBinAddr: 0x100002A00, symSize: 0x2C }
  - { offsetInCU: 0x4FDED, offset: 0x4FDED, size: 0x8, addend: 0x0, symName: __ZNSt3__16vectorINS_12basic_stringIcNS_11char_traitsIcEENS_9allocatorIcEEEENS4_IS6_EEEC1B7v160006Ev, symObjAddr: 0x3CC, symBinAddr: 0x100002A2C, symSize: 0x2C }
  - { offsetInCU: 0x4FE17, offset: 0x4FE17, size: 0x8, addend: 0x0, symName: __ZNSt3__113basic_istreamIcNS_11char_traitsIcEEErsB7v160006EPFRS3_S4_E, symObjAddr: 0x62C, symBinAddr: 0x100002C8C, symSize: 0x2C }
  - { offsetInCU: 0x4FE4B, offset: 0x4FE4B, size: 0x8, addend: 0x0, symName: __ZNKSt3__19basic_iosIcNS_11char_traitsIcEEEcvbB7v160006Ev, symObjAddr: 0x894, symBinAddr: 0x100002EF4, symSize: 0x2C }
  - { offsetInCU: 0x4FE71, offset: 0x4FE71, size: 0x8, addend: 0x0, symName: __ZNSt3__16vectorINS_12basic_stringIcNS_11char_traitsIcEENS_9allocatorIcEEEENS4_IS6_EEE9push_backB7v160006ERKS6_, symObjAddr: 0x8C0, symBinAddr: 0x100002F20, symSize: 0x6C }
  - { offsetInCU: 0x4FEA8, offset: 0x4FEA8, size: 0x8, addend: 0x0, symName: __ZNSt3__16vectorINS_12basic_stringIcNS_11char_traitsIcEENS_9allocatorIcEEEENS4_IS6_EEED1B7v160006Ev, symObjAddr: 0x92C, symBinAddr: 0x100002F8C, symSize: 0x2C }
  - { offsetInCU: 0x4FED8, offset: 0x4FED8, size: 0x8, addend: 0x0, symName: __ZNSt3__119basic_istringstreamIcNS_11char_traitsIcEENS_9allocatorIcEEED1Ev, symObjAddr: 0x958, symBinAddr: 0x100002FB8, symSize: 0x40 }
  - { offsetInCU: 0x4FF04, offset: 0x4FF04, size: 0x8, addend: 0x0, symName: __Z14trimWhitespaceRKNSt3__112basic_stringIcNS_11char_traitsIcEENS_9allocatorIcEEEE, symObjAddr: 0x998, symBinAddr: 0x100002FF8, symSize: 0xB4 }
  - { offsetInCU: 0x4FF4D, offset: 0x4FF4D, size: 0x8, addend: 0x0, symName: __ZNKSt3__112basic_stringIcNS_11char_traitsIcEENS_9allocatorIcEEE17find_first_not_ofB7v160006EPKcm, symObjAddr: 0xA4C, symBinAddr: 0x1000030AC, symSize: 0x74 }
  - { offsetInCU: 0x4FF93, offset: 0x4FF93, size: 0x8, addend: 0x0, symName: __ZNKSt3__112basic_stringIcNS_11char_traitsIcEENS_9allocatorIcEEE16find_last_not_ofB7v160006EPKcm, symObjAddr: 0xAC0, symBinAddr: 0x100003120, symSize: 0x74 }
  - { offsetInCU: 0x4FFDF, offset: 0x4FFDF, size: 0x8, addend: 0x0, symName: __ZNSt3__112basic_stringIcNS_11char_traitsIcEENS_9allocatorIcEEEC1B7v160006IDnEEPKc, symObjAddr: 0xB34, symBinAddr: 0x100003194, symSize: 0x34 }
  - { offsetInCU: 0x5001D, offset: 0x5001D, size: 0x8, addend: 0x0, symName: __ZNKSt3__112basic_stringIcNS_11char_traitsIcEENS_9allocatorIcEEE6substrB7v160006Emm, symObjAddr: 0xB68, symBinAddr: 0x1000031C8, symSize: 0x68 }
  - { offsetInCU: 0x50060, offset: 0x50060, size: 0x8, addend: 0x0, symName: __Z12handleMacrosRKNSt3__112basic_stringIcNS_11char_traitsIcEENS_9allocatorIcEEEER8Makefile, symObjAddr: 0xBD0, symBinAddr: 0x100003230, symSize: 0x200 }
  - { offsetInCU: 0x500F6, offset: 0x500F6, size: 0x8, addend: 0x0, symName: __ZN5MacroC1Ev, symObjAddr: 0x1190, symBinAddr: 0x1000037F0, symSize: 0x2C }
  - { offsetInCU: 0x50122, offset: 0x50122, size: 0x8, addend: 0x0, symName: __ZNSt3__16vectorI5MacroNS_9allocatorIS1_EEE9push_backB7v160006ERKS1_, symObjAddr: 0x11BC, symBinAddr: 0x10000381C, symSize: 0x6C }
  - { offsetInCU: 0x50159, offset: 0x50159, size: 0x8, addend: 0x0, symName: __ZN5MacroD1Ev, symObjAddr: 0x1228, symBinAddr: 0x100003888, symSize: 0x2C }
  - { offsetInCU: 0x50184, offset: 0x50184, size: 0x8, addend: 0x0, symName: __Z17handleTargetRulesRKNSt3__112basic_stringIcNS_11char_traitsIcEENS_9allocatorIcEEEER8Makefile, symObjAddr: 0x1254, symBinAddr: 0x1000038B4, symSize: 0x258 }
  - { offsetInCU: 0x50201, offset: 0x50201, size: 0x8, addend: 0x0, symName: __ZN11TargetRulesC1Ev, symObjAddr: 0x14AC, symBinAddr: 0x100003B0C, symSize: 0x2C }
  - { offsetInCU: 0x5022D, offset: 0x5022D, size: 0x8, addend: 0x0, symName: __ZNKSt3__112basic_stringIcNS_11char_traitsIcEENS_9allocatorIcEEE4sizeB7v160006Ev, symObjAddr: 0x14D8, symBinAddr: 0x100003B38, symSize: 0x54 }
  - { offsetInCU: 0x50253, offset: 0x50253, size: 0x8, addend: 0x0, symName: __ZNSt3__112basic_stringIcNS_11char_traitsIcEENS_9allocatorIcEEEaSB7v160006EOS5_, symObjAddr: 0x152C, symBinAddr: 0x100003B8C, symSize: 0x34 }
  - { offsetInCU: 0x50288, offset: 0x50288, size: 0x8, addend: 0x0, symName: __ZNSt3__16vectorI11TargetRulesNS_9allocatorIS1_EEE9push_backB7v160006ERKS1_, symObjAddr: 0x1560, symBinAddr: 0x100003BC0, symSize: 0x6C }
  - { offsetInCU: 0x502BF, offset: 0x502BF, size: 0x8, addend: 0x0, symName: __ZN11TargetRulesD1Ev, symObjAddr: 0x15CC, symBinAddr: 0x100003C2C, symSize: 0x2C }
  - { offsetInCU: 0x502EA, offset: 0x502EA, size: 0x8, addend: 0x0, symName: __Z20handleInferenceRulesRKNSt3__112basic_stringIcNS_11char_traitsIcEENS_9allocatorIcEEEER8Makefile, symObjAddr: 0x15F8, symBinAddr: 0x100003C58, symSize: 0x250 }
  - { offsetInCU: 0x50372, offset: 0x50372, size: 0x8, addend: 0x0, symName: __ZN13InferenceRuleC1Ev, symObjAddr: 0x1848, symBinAddr: 0x100003EA8, symSize: 0x2C }
  - { offsetInCU: 0x5039E, offset: 0x5039E, size: 0x8, addend: 0x0, symName: __ZNSt3__16vectorI13InferenceRuleNS_9allocatorIS1_EEE9push_backB7v160006ERKS1_, symObjAddr: 0x1874, symBinAddr: 0x100003ED4, symSize: 0x6C }
  - { offsetInCU: 0x503D5, offset: 0x503D5, size: 0x8, addend: 0x0, symName: __ZN13InferenceRuleD1Ev, symObjAddr: 0x18E0, symBinAddr: 0x100003F40, symSize: 0x2C }
  - { offsetInCU: 0x50400, offset: 0x50400, size: 0x8, addend: 0x0, symName: __Z13parseMakeFileRKNSt3__112basic_stringIcNS_11char_traitsIcEENS_9allocatorIcEEEER8Makefile, symObjAddr: 0x190C, symBinAddr: 0x100003F6C, symSize: 0x41C }
  - { offsetInCU: 0x50550, offset: 0x50550, size: 0x8, addend: 0x0, symName: __ZNSt3__114basic_ifstreamIcNS_11char_traitsIcEEEC1ERKNS_12basic_stringIcS2_NS_9allocatorIcEEEEj, symObjAddr: 0x1D28, symBinAddr: 0x100004388, symSize: 0x16C }
  - { offsetInCU: 0x5059A, offset: 0x5059A, size: 0x8, addend: 0x0, symName: __ZNKSt3__114basic_ifstreamIcNS_11char_traitsIcEEE7is_openEv, symObjAddr: 0x1E94, symBinAddr: 0x1000044F4, symSize: 0x2C }
  - { offsetInCU: 0x505C8, offset: 0x505C8, size: 0x8, addend: 0x0, symName: __ZN11TargetRulesaSEOS_, symObjAddr: 0x1EC0, symBinAddr: 0x100004520, symSize: 0x5C }
  - { offsetInCU: 0x505FF, offset: 0x505FF, size: 0x8, addend: 0x0, symName: __ZN11TargetRulesaSERKS_, symObjAddr: 0x1F1C, symBinAddr: 0x10000457C, symSize: 0x5C }
  - { offsetInCU: 0x50630, offset: 0x50630, size: 0x8, addend: 0x0, symName: __ZNKSt3__112basic_stringIcNS_11char_traitsIcEENS_9allocatorIcEEE5emptyB7v160006Ev, symObjAddr: 0x1F78, symBinAddr: 0x1000045D8, symSize: 0x30 }
  - { offsetInCU: 0x50656, offset: 0x50656, size: 0x8, addend: 0x0, symName: __ZNSt3__112basic_stringIcNS_11char_traitsIcEENS_9allocatorIcEEEixB7v160006Em, symObjAddr: 0x1FA8, symBinAddr: 0x100004608, symSize: 0x30 }
  - { offsetInCU: 0x5068B, offset: 0x5068B, size: 0x8, addend: 0x0, symName: __ZNKSt3__16vectorINS_12basic_stringIcNS_11char_traitsIcEENS_9allocatorIcEEEENS4_IS6_EEE5emptyB7v160006Ev, symObjAddr: 0x1FD8, symBinAddr: 0x100004638, symSize: 0x28 }
  - { offsetInCU: 0x506B1, offset: 0x506B1, size: 0x8, addend: 0x0, symName: __ZNSt3__16vectorI11TargetRulesNS_9allocatorIS1_EEE8pop_backEv, symObjAddr: 0x2000, symBinAddr: 0x100004660, symSize: 0x2C }
  - { offsetInCU: 0x506D9, offset: 0x506D9, size: 0x8, addend: 0x0, symName: __ZNSt3__114basic_ifstreamIcNS_11char_traitsIcEEE5closeEv, symObjAddr: 0x202C, symBinAddr: 0x10000468C, symSize: 0x58 }
  - { offsetInCU: 0x50707, offset: 0x50707, size: 0x8, addend: 0x0, symName: __ZNSt3__114basic_ifstreamIcNS_11char_traitsIcEEED1Ev, symObjAddr: 0x2084, symBinAddr: 0x1000046E4, symSize: 0x40 }
  - { offsetInCU: 0x50733, offset: 0x50733, size: 0x8, addend: 0x0, symName: __Z17replace_variablesRKNSt3__112basic_stringIcNS_11char_traitsIcEENS_9allocatorIcEEEERKNS_6vectorI5MacroNS3_IS9_EEEES7_RKNS8_IS5_NS3_IS5_EEEES7_, symObjAddr: 0x20C4, symBinAddr: 0x100004724, symSize: 0x564 }
  - { offsetInCU: 0x5090C, offset: 0x5090C, size: 0x8, addend: 0x0, symName: __ZNKSt3__16vectorI5MacroNS_9allocatorIS1_EEE5beginB7v160006Ev, symObjAddr: 0x2628, symBinAddr: 0x100004C88, symSize: 0x30 }
  - { offsetInCU: 0x50934, offset: 0x50934, size: 0x8, addend: 0x0, symName: __ZNKSt3__16vectorI5MacroNS_9allocatorIS1_EEE3endB7v160006Ev, symObjAddr: 0x2658, symBinAddr: 0x100004CB8, symSize: 0x30 }
  - { offsetInCU: 0x5095C, offset: 0x5095C, size: 0x8, addend: 0x0, symName: __ZNKSt3__111__wrap_iterIPK5MacroEdeB7v160006Ev, symObjAddr: 0x26BC, symBinAddr: 0x100004D1C, symSize: 0x18 }
  - { offsetInCU: 0x50988, offset: 0x50988, size: 0x8, addend: 0x0, symName: __ZNSt3__111basic_regexIcNS_12regex_traitsIcEEEC1B7v160006INS_11char_traitsIcEENS_9allocatorIcEEEERKNS_12basic_stringIcT_T0_EENS_15regex_constants18syntax_option_typeE, symObjAddr: 0x2714, symBinAddr: 0x100004D74, symSize: 0x3C }
  - { offsetInCU: 0x509E2, offset: 0x509E2, size: 0x8, addend: 0x0, symName: __ZNSt3__111basic_regexIcNS_12regex_traitsIcEEED1Ev, symObjAddr: 0x2858, symBinAddr: 0x100004EB8, symSize: 0x2C }
  - { offsetInCU: 0x50A0F, offset: 0x50A0F, size: 0x8, addend: 0x0, symName: __ZNSt3__111__wrap_iterIPK5MacroEppB7v160006Ev, symObjAddr: 0x2884, symBinAddr: 0x100004EE4, symSize: 0x20 }
  - { offsetInCU: 0x50A35, offset: 0x50A35, size: 0x8, addend: 0x0, symName: __ZNSt3__111basic_regexIcNS_12regex_traitsIcEEEC1B7v160006EPKcNS_15regex_constants18syntax_option_typeE, symObjAddr: 0x28A4, symBinAddr: 0x100004F04, symSize: 0x3C }
  - { offsetInCU: 0x50A7D, offset: 0x50A7D, size: 0x8, addend: 0x0, symName: __ZNKSt3__16vectorINS_12basic_stringIcNS_11char_traitsIcEENS_9allocatorIcEEEENS4_IS6_EEE5beginB7v160006Ev, symObjAddr: 0x28E0, symBinAddr: 0x100004F40, symSize: 0x30 }
  - { offsetInCU: 0x50AA5, offset: 0x50AA5, size: 0x8, addend: 0x0, symName: __ZNKSt3__16vectorINS_12basic_stringIcNS_11char_traitsIcEENS_9allocatorIcEEEENS4_IS6_EEE3endB7v160006Ev, symObjAddr: 0x2910, symBinAddr: 0x100004F70, symSize: 0x30 }
  - { offsetInCU: 0x50ACD, offset: 0x50ACD, size: 0x8, addend: 0x0, symName: __ZNKSt3__111__wrap_iterIPKNS_12basic_stringIcNS_11char_traitsIcEENS_9allocatorIcEEEEEdeB7v160006Ev, symObjAddr: 0x2974, symBinAddr: 0x100004FD4, symSize: 0x18 }
  - { offsetInCU: 0x50AF3, offset: 0x50AF3, size: 0x8, addend: 0x0, symName: __ZNSt3__112basic_stringIcNS_11char_traitsIcEENS_9allocatorIcEEEpLB7v160006ERKS5_, symObjAddr: 0x2AA8, symBinAddr: 0x100005108, symSize: 0x2C }
  - { offsetInCU: 0x50B28, offset: 0x50B28, size: 0x8, addend: 0x0, symName: __ZNSt3__111__wrap_iterIPKNS_12basic_stringIcNS_11char_traitsIcEENS_9allocatorIcEEEEEppB7v160006Ev, symObjAddr: 0x2AD4, symBinAddr: 0x100005134, symSize: 0x20 }
  - { offsetInCU: 0x50B4E, offset: 0x50B4E, size: 0x8, addend: 0x0, symName: __ZNSt3__112basic_stringIcNS_11char_traitsIcEENS_9allocatorIcEEEC1B7v160006EOS5_, symObjAddr: 0x2AF4, symBinAddr: 0x100005154, symSize: 0x34 }
  - { offsetInCU: 0x50B86, offset: 0x50B86, size: 0x8, addend: 0x0, symName: __Z8endsWithRKNSt3__112basic_stringIcNS_11char_traitsIcEENS_9allocatorIcEEEES7_, symObjAddr: 0x2B28, symBinAddr: 0x100005188, symSize: 0xB4 }
  - { offsetInCU: 0x50BC1, offset: 0x50BC1, size: 0x8, addend: 0x0, symName: __ZNKSt3__112basic_stringIcNS_11char_traitsIcEENS_9allocatorIcEEE7compareB7v160006EmmRKS5_, symObjAddr: 0x2BDC, symBinAddr: 0x10000523C, symSize: 0x6C }
  - { offsetInCU: 0x50C15, offset: 0x50C15, size: 0x8, addend: 0x0, symName: __Z15topologicalSortRKNSt3__13mapINS_12basic_stringIcNS_11char_traitsIcEENS_9allocatorIcEEEENS_6vectorIS6_NS4_IS6_EEEENS_4lessIS6_EENS4_INS_4pairIKS6_S9_EEEEEERKNS7_I11TargetRulesNS4_ISJ_EEEERKS9_, symObjAddr: 0x2C48, symBinAddr: 0x1000052A8, symSize: 0x450 }
  - { offsetInCU: 0x50DED, offset: 0x50DED, size: 0x8, addend: 0x0, symName: __ZNSt3__113unordered_mapINS_12basic_stringIcNS_11char_traitsIcEENS_9allocatorIcEEEE10VisitStateNS_4hashIS6_EENS_8equal_toIS6_EENS4_INS_4pairIKS6_S7_EEEEEC1B7v160006Ev, symObjAddr: 0x3098, symBinAddr: 0x1000056F8, symSize: 0x2C }
  - { offsetInCU: 0x50E5C, offset: 0x50E5C, size: 0x8, addend: 0x0, symName: __ZNSt3__15stackINS_12basic_stringIcNS_11char_traitsIcEENS_9allocatorIcEEEENS_5dequeIS6_NS4_IS6_EEEEEC1B7v160006Ev, symObjAddr: 0x30C4, symBinAddr: 0x100005724, symSize: 0x2C }
  - { offsetInCU: 0x50E86, offset: 0x50E86, size: 0x8, addend: 0x0, symName: __ZNKSt3__13mapINS_12basic_stringIcNS_11char_traitsIcEENS_9allocatorIcEEEENS_6vectorIS6_NS4_IS6_EEEENS_4lessIS6_EENS4_INS_4pairIKS6_S9_EEEEE5beginB7v160006Ev, symObjAddr: 0x30F0, symBinAddr: 0x100005750, symSize: 0x38 }
  - { offsetInCU: 0x50EAC, offset: 0x50EAC, size: 0x8, addend: 0x0, symName: __ZNKSt3__13mapINS_12basic_stringIcNS_11char_traitsIcEENS_9allocatorIcEEEENS_6vectorIS6_NS4_IS6_EEEENS_4lessIS6_EENS4_INS_4pairIKS6_S9_EEEEE3endB7v160006Ev, symObjAddr: 0x3128, symBinAddr: 0x100005788, symSize: 0x38 }
  - { offsetInCU: 0x50ED2, offset: 0x50ED2, size: 0x8, addend: 0x0, symName: __ZNKSt3__120__map_const_iteratorINS_21__tree_const_iteratorINS_12__value_typeINS_12basic_stringIcNS_11char_traitsIcEENS_9allocatorIcEEEENS_6vectorIS8_NS6_IS8_EEEEEEPNS_11__tree_nodeISC_PvEElEEEdeB7v160006Ev, symObjAddr: 0x3190, symBinAddr: 0x1000057F0, symSize: 0x28 }
  - { offsetInCU: 0x50EF8, offset: 0x50EF8, size: 0x8, addend: 0x0, symName: __ZNSt3__113unordered_mapINS_12basic_stringIcNS_11char_traitsIcEENS_9allocatorIcEEEE10VisitStateNS_4hashIS6_EENS_8equal_toIS6_EENS4_INS_4pairIKS6_S7_EEEEEixERSD_, symObjAddr: 0x3200, symBinAddr: 0x100005860, symSize: 0x80 }
  - { offsetInCU: 0x50F2F, offset: 0x50F2F, size: 0x8, addend: 0x0, symName: __ZNSt3__15stackINS_12basic_stringIcNS_11char_traitsIcEENS_9allocatorIcEEEENS_5dequeIS6_NS4_IS6_EEEEE4pushB7v160006ERKS6_, symObjAddr: 0x3280, symBinAddr: 0x1000058E0, symSize: 0x2C }
  - { offsetInCU: 0x50F63, offset: 0x50F63, size: 0x8, addend: 0x0, symName: __ZNKSt3__15stackINS_12basic_stringIcNS_11char_traitsIcEENS_9allocatorIcEEEENS_5dequeIS6_NS4_IS6_EEEEE5emptyB7v160006Ev, symObjAddr: 0x32AC, symBinAddr: 0x10000590C, symSize: 0x28 }
  - { offsetInCU: 0x50F89, offset: 0x50F89, size: 0x8, addend: 0x0, symName: __ZNSt3__15stackINS_12basic_stringIcNS_11char_traitsIcEENS_9allocatorIcEEEENS_5dequeIS6_NS4_IS6_EEEEE3topB7v160006Ev, symObjAddr: 0x32D4, symBinAddr: 0x100005934, symSize: 0x24 }
  - { offsetInCU: 0x50FAF, offset: 0x50FAF, size: 0x8, addend: 0x0, symName: __ZNSt3__15stackINS_12basic_stringIcNS_11char_traitsIcEENS_9allocatorIcEEEENS_5dequeIS6_NS4_IS6_EEEEE3popB7v160006Ev, symObjAddr: 0x32F8, symBinAddr: 0x100005958, symSize: 0x24 }
  - { offsetInCU: 0x50FD5, offset: 0x50FD5, size: 0x8, addend: 0x0, symName: __ZNKSt3__13mapINS_12basic_stringIcNS_11char_traitsIcEENS_9allocatorIcEEEENS_6vectorIS6_NS4_IS6_EEEENS_4lessIS6_EENS4_INS_4pairIKS6_S9_EEEEE2atERSD_, symObjAddr: 0x331C, symBinAddr: 0x10000597C, symSize: 0x68 }
  - { offsetInCU: 0x5102A, offset: 0x5102A, size: 0x8, addend: 0x0, symName: __ZNSt3__120__map_const_iteratorINS_21__tree_const_iteratorINS_12__value_typeINS_12basic_stringIcNS_11char_traitsIcEENS_9allocatorIcEEEENS_6vectorIS8_NS6_IS8_EEEEEEPNS_11__tree_nodeISC_PvEElEEEppB7v160006Ev, symObjAddr: 0x3384, symBinAddr: 0x1000059E4, symSize: 0x2C }
  - { offsetInCU: 0x51050, offset: 0x51050, size: 0x8, addend: 0x0, symName: __ZNSt3__15stackINS_12basic_stringIcNS_11char_traitsIcEENS_9allocatorIcEEEENS_5dequeIS6_NS4_IS6_EEEEED1Ev, symObjAddr: 0x33B0, symBinAddr: 0x100005A10, symSize: 0x2C }
  - { offsetInCU: 0x5107C, offset: 0x5107C, size: 0x8, addend: 0x0, symName: __ZNSt3__113unordered_mapINS_12basic_stringIcNS_11char_traitsIcEENS_9allocatorIcEEEE10VisitStateNS_4hashIS6_EENS_8equal_toIS6_EENS4_INS_4pairIKS6_S7_EEEEED1B7v160006Ev, symObjAddr: 0x33DC, symBinAddr: 0x100005A3C, symSize: 0x2C }
  - { offsetInCU: 0x510A6, offset: 0x510A6, size: 0x8, addend: 0x0, symName: __ZNSt3__113unordered_mapINS_12basic_stringIcNS_11char_traitsIcEENS_9allocatorIcEEEENS_6chrono10time_pointINS_4__fs10filesystem16_FilesystemClockENS7_8durationInNS_5ratioILl1ELl1000000000EEEEEEENS_4hashIS6_EENS_8equal_toIS6_EENS4_INS_4pairIKS6_SG_EEEEEC1B7v160006Ev, symObjAddr: 0x3408, symBinAddr: 0x100005A68, symSize: 0x2C }
  - { offsetInCU: 0x510D0, offset: 0x510D0, size: 0x8, addend: 0x0, symName: __ZNSt3__113unordered_mapINS_12basic_stringIcNS_11char_traitsIcEENS_9allocatorIcEEEENS_6chrono10time_pointINS_4__fs10filesystem16_FilesystemClockENS7_8durationInNS_5ratioILl1ELl1000000000EEEEEEENS_4hashIS6_EENS_8equal_toIS6_EENS4_INS_4pairIKS6_SG_EEEEED1B7v160006Ev, symObjAddr: 0x3434, symBinAddr: 0x100005A94, symSize: 0x2C }
  - { offsetInCU: 0x510F9, offset: 0x510F9, size: 0x8, addend: 0x0, symName: __Z7isDirty11TargetRules, symObjAddr: 0x3460, symBinAddr: 0x100005AC0, symSize: 0xF0 }
  - { offsetInCU: 0x511A5, offset: 0x511A5, size: 0x8, addend: 0x0, symName: __ZNSt3__113unordered_mapINS_12basic_stringIcNS_11char_traitsIcEENS_9allocatorIcEEEENS_6chrono10time_pointINS_4__fs10filesystem16_FilesystemClockENS7_8durationInNS_5ratioILl1ELl1000000000EEEEEEENS_4hashIS6_EENS_8equal_toIS6_EENS4_INS_4pairIKS6_SG_EEEEEixERSM_, symObjAddr: 0x3550, symBinAddr: 0x100005BB0, symSize: 0x80 }
  - { offsetInCU: 0x511DC, offset: 0x511DC, size: 0x8, addend: 0x0, symName: __ZNSt3__16vectorINS_12basic_stringIcNS_11char_traitsIcEENS_9allocatorIcEEEENS4_IS6_EEE5beginB7v160006Ev, symObjAddr: 0x35D0, symBinAddr: 0x100005C30, symSize: 0x30 }
  - { offsetInCU: 0x51204, offset: 0x51204, size: 0x8, addend: 0x0, symName: __ZNSt3__16vectorINS_12basic_stringIcNS_11char_traitsIcEENS_9allocatorIcEEEENS4_IS6_EEE3endB7v160006Ev, symObjAddr: 0x3600, symBinAddr: 0x100005C60, symSize: 0x30 }
  - { offsetInCU: 0x5122C, offset: 0x5122C, size: 0x8, addend: 0x0, symName: __ZNKSt3__111__wrap_iterIPNS_12basic_stringIcNS_11char_traitsIcEENS_9allocatorIcEEEEEdeB7v160006Ev, symObjAddr: 0x3664, symBinAddr: 0x100005CC4, symSize: 0x18 }
  - { offsetInCU: 0x51252, offset: 0x51252, size: 0x8, addend: 0x0, symName: __ZNSt3__111__wrap_iterIPNS_12basic_stringIcNS_11char_traitsIcEENS_9allocatorIcEEEEEppB7v160006Ev, symObjAddr: 0x36AC, symBinAddr: 0x100005D0C, symSize: 0x20 }
  - { offsetInCU: 0x51277, offset: 0x51277, size: 0x8, addend: 0x0, symName: __Z20findTargetRuleByNameNSt3__112basic_stringIcNS_11char_traitsIcEENS_9allocatorIcEEEE8Makefile, symObjAddr: 0x36CC, symBinAddr: 0x100005D2C, symSize: 0x258 }
  - { offsetInCU: 0x51359, offset: 0x51359, size: 0x8, addend: 0x0, symName: __ZNSt3__16vectorI11TargetRulesNS_9allocatorIS1_EEE5beginB7v160006Ev, symObjAddr: 0x3924, symBinAddr: 0x100005F84, symSize: 0x30 }
  - { offsetInCU: 0x51381, offset: 0x51381, size: 0x8, addend: 0x0, symName: __ZNSt3__16vectorI11TargetRulesNS_9allocatorIS1_EEE3endB7v160006Ev, symObjAddr: 0x3954, symBinAddr: 0x100005FB4, symSize: 0x30 }
  - { offsetInCU: 0x513A9, offset: 0x513A9, size: 0x8, addend: 0x0, symName: __ZNKSt3__111__wrap_iterIP11TargetRulesEdeB7v160006Ev, symObjAddr: 0x39B8, symBinAddr: 0x100006018, symSize: 0x18 }
  - { offsetInCU: 0x513CF, offset: 0x513CF, size: 0x8, addend: 0x0, symName: __ZN11TargetRulesC1ERKS_, symObjAddr: 0x3B18, symBinAddr: 0x100006178, symSize: 0x34 }
  - { offsetInCU: 0x51404, offset: 0x51404, size: 0x8, addend: 0x0, symName: __ZNSt3__112basic_stringIcNS_11char_traitsIcEENS_9allocatorIcEEE4backB7v160006Ev, symObjAddr: 0x3C5C, symBinAddr: 0x1000062BC, symSize: 0x48 }
  - { offsetInCU: 0x5142A, offset: 0x5142A, size: 0x8, addend: 0x0, symName: __ZNSt3__112basic_stringIcNS_11char_traitsIcEENS_9allocatorIcEEE8pop_backB7v160006Ev, symObjAddr: 0x3CA4, symBinAddr: 0x100006304, symSize: 0x38 }
  - { offsetInCU: 0x51452, offset: 0x51452, size: 0x8, addend: 0x0, symName: __ZNSt3__111__wrap_iterIP11TargetRulesEppB7v160006Ev, symObjAddr: 0x3CDC, symBinAddr: 0x10000633C, symSize: 0x20 }
  - { offsetInCU: 0x51477, offset: 0x51477, size: 0x8, addend: 0x0, symName: __Z15findCommandPathRKNSt3__112basic_stringIcNS_11char_traitsIcEENS_9allocatorIcEEEE, symObjAddr: 0x3CFC, symBinAddr: 0x10000635C, symSize: 0x21C }
  - { offsetInCU: 0x514E2, offset: 0x514E2, size: 0x8, addend: 0x0, symName: __ZNKSt3__112basic_stringIcNS_11char_traitsIcEENS_9allocatorIcEEE5c_strB7v160006Ev, symObjAddr: 0x3F18, symBinAddr: 0x100006578, symSize: 0x24 }
  - { offsetInCU: 0x51508, offset: 0x51508, size: 0x8, addend: 0x0, symName: __ZNSt3__112basic_stringIcNS_11char_traitsIcEENS_9allocatorIcEEEpLB7v160006EPKc, symObjAddr: 0x3F3C, symBinAddr: 0x10000659C, symSize: 0x2C }
  - { offsetInCU: 0x5153C, offset: 0x5153C, size: 0x8, addend: 0x0, symName: __Z10runCommandRKNSt3__112basic_stringIcNS_11char_traitsIcEENS_9allocatorIcEEEE, symObjAddr: 0x3F68, symBinAddr: 0x1000065C8, symSize: 0x31C }
  - { offsetInCU: 0x515F1, offset: 0x515F1, size: 0x8, addend: 0x0, symName: __ZNSt3__16vectorIPcNS_9allocatorIS1_EEEC1B7v160006Ev, symObjAddr: 0x4284, symBinAddr: 0x1000068E4, symSize: 0x2C }
  - { offsetInCU: 0x5161B, offset: 0x5161B, size: 0x8, addend: 0x0, symName: __ZNSt3__16vectorIPcNS_9allocatorIS1_EEE9push_backB7v160006ERKS1_, symObjAddr: 0x42B0, symBinAddr: 0x100006910, symSize: 0x6C }
  - { offsetInCU: 0x51652, offset: 0x51652, size: 0x8, addend: 0x0, symName: __ZNSt3__16vectorIPcNS_9allocatorIS1_EEE9push_backB7v160006EOS1_, symObjAddr: 0x431C, symBinAddr: 0x10000697C, symSize: 0x6C }
  - { offsetInCU: 0x51689, offset: 0x51689, size: 0x8, addend: 0x0, symName: __ZNSt3__16vectorIPcNS_9allocatorIS1_EEEixB7v160006Em, symObjAddr: 0x4388, symBinAddr: 0x1000069E8, symSize: 0x24 }
  - { offsetInCU: 0x516C0, offset: 0x516C0, size: 0x8, addend: 0x0, symName: __ZNSt3__16vectorIPcNS_9allocatorIS1_EEE4dataB7v160006Ev, symObjAddr: 0x43AC, symBinAddr: 0x100006A0C, symSize: 0x28 }
  - { offsetInCU: 0x516E6, offset: 0x516E6, size: 0x8, addend: 0x0, symName: __ZNSt3__16vectorIPcNS_9allocatorIS1_EEED1B7v160006Ev, symObjAddr: 0x43D4, symBinAddr: 0x100006A34, symSize: 0x2C }
  - { offsetInCU: 0x5170F, offset: 0x5170F, size: 0x8, addend: 0x0, symName: __Z19getLastModifiedTimeRKNSt3__112basic_stringIcNS_11char_traitsIcEENS_9allocatorIcEEEE, symObjAddr: 0x4400, symBinAddr: 0x100006A60, symSize: 0x8C }
  - { offsetInCU: 0x5173C, offset: 0x5173C, size: 0x8, addend: 0x0, symName: __ZNSt3__14__fs10filesystem4pathC1B7v160006INS_12basic_stringIcNS_11char_traitsIcEENS_9allocatorIcEEEEvEERKT_NS2_6formatE, symObjAddr: 0x44D4, symBinAddr: 0x100006B34, symSize: 0x3C }
  - { offsetInCU: 0x5178B, offset: 0x5178B, size: 0x8, addend: 0x0, symName: __ZNSt3__14__fs10filesystem4pathD1B7v160006Ev, symObjAddr: 0x4510, symBinAddr: 0x100006B70, symSize: 0x2C }
  - { offsetInCU: 0x517B4, offset: 0x517B4, size: 0x8, addend: 0x0, symName: __Z23populateAllCurrentFilesv, symObjAddr: 0x453C, symBinAddr: 0x100006B9C, symSize: 0x1C0 }
  - { offsetInCU: 0x5182A, offset: 0x5182A, size: 0x8, addend: 0x0, symName: __ZNSt3__14__fs10filesystem18directory_iteratorC1B7v160006ERKNS1_4pathE, symObjAddr: 0x46FC, symBinAddr: 0x100006D5C, symSize: 0x3C }
  - { offsetInCU: 0x51862, offset: 0x51862, size: 0x8, addend: 0x0, symName: __ZNSt3__14__fs10filesystem18directory_iteratorC1B7v160006ERKS2_, symObjAddr: 0x4770, symBinAddr: 0x100006DD0, symSize: 0x34 }
  - { offsetInCU: 0x51896, offset: 0x51896, size: 0x8, addend: 0x0, symName: __ZNSt3__14__fs10filesystem18directory_iteratorD1B7v160006Ev, symObjAddr: 0x47A4, symBinAddr: 0x100006E04, symSize: 0x2C }
  - { offsetInCU: 0x518C0, offset: 0x518C0, size: 0x8, addend: 0x0, symName: __ZNKSt3__14__fs10filesystem18directory_iteratordeB7v160006Ev, symObjAddr: 0x4838, symBinAddr: 0x100006E98, symSize: 0x24 }
  - { offsetInCU: 0x518E6, offset: 0x518E6, size: 0x8, addend: 0x0, symName: __ZNSt3__16vectorINS_12basic_stringIcNS_11char_traitsIcEENS_9allocatorIcEEEENS4_IS6_EEE9push_backB7v160006EOS6_, symObjAddr: 0x485C, symBinAddr: 0x100006EBC, symSize: 0x6C }
  - { offsetInCU: 0x5191D, offset: 0x5191D, size: 0x8, addend: 0x0, symName: __ZNKSt3__14__fs10filesystem15directory_entry4pathB7v160006Ev, symObjAddr: 0x48C8, symBinAddr: 0x100006F28, symSize: 0x14 }
  - { offsetInCU: 0x51943, offset: 0x51943, size: 0x8, addend: 0x0, symName: __ZNKSt3__14__fs10filesystem4path6stringB7v160006Ev, symObjAddr: 0x48DC, symBinAddr: 0x100006F3C, symSize: 0x38 }
  - { offsetInCU: 0x51969, offset: 0x51969, size: 0x8, addend: 0x0, symName: __ZNSt3__14__fs10filesystem18directory_iteratorppB7v160006Ev, symObjAddr: 0x4914, symBinAddr: 0x100006F74, symSize: 0x28 }
  - { offsetInCU: 0x5198F, offset: 0x5198F, size: 0x8, addend: 0x0, symName: _main, symObjAddr: 0x493C, symBinAddr: 0x100006F9C, symSize: 0xC14 }
  - { offsetInCU: 0x51DE6, offset: 0x51DE6, size: 0x8, addend: 0x0, symName: __ZNKSt3__14__fs10filesystem4path8filenameB7v160006Ev, symObjAddr: 0x5550, symBinAddr: 0x100007BB0, symSize: 0x60 }
  - { offsetInCU: 0x51E0C, offset: 0x51E0C, size: 0x8, addend: 0x0, symName: __ZNKSt3__14__fs10filesystem4pathcvNS_12basic_stringIcNS_11char_traitsIcEENS_9allocatorIcEEEEB7v160006Ev, symObjAddr: 0x55B0, symBinAddr: 0x100007C10, symSize: 0x38 }
  - { offsetInCU: 0x51E92, offset: 0x51E92, size: 0x8, addend: 0x0, symName: __ZN8MakefileC1Ev, symObjAddr: 0x55E8, symBinAddr: 0x100007C48, symSize: 0x2C }
  - { offsetInCU: 0x51EBE, offset: 0x51EBE, size: 0x8, addend: 0x0, symName: __ZNSt3__16vectorINS_12basic_stringIcNS_11char_traitsIcEENS_9allocatorIcEEEENS4_IS6_EEEixB7v160006Em, symObjAddr: 0x5614, symBinAddr: 0x100007C74, symSize: 0x2C }
  - { offsetInCU: 0x51EF5, offset: 0x51EF5, size: 0x8, addend: 0x0, symName: __ZNSt3__16vectorINS_12basic_stringIcNS_11char_traitsIcEENS_9allocatorIcEEEENS4_IS6_EEEC1IPPcLi0EEET_SC_, symObjAddr: 0x5640, symBinAddr: 0x100007CA0, symSize: 0x3C }
  - { offsetInCU: 0x51F4E, offset: 0x51F4E, size: 0x8, addend: 0x0, symName: __ZNSt3__13mapINS_12basic_stringIcNS_11char_traitsIcEENS_9allocatorIcEEEENS_6vectorIS6_NS4_IS6_EEEENS_4lessIS6_EENS4_INS_4pairIKS6_S9_EEEEEC1B7v160006Ev, symObjAddr: 0x567C, symBinAddr: 0x100007CDC, symSize: 0x2C }
  - { offsetInCU: 0x51F78, offset: 0x51F78, size: 0x8, addend: 0x0, symName: __ZNSt3__13mapINS_12basic_stringIcNS_11char_traitsIcEENS_9allocatorIcEEEENS_6vectorIS6_NS4_IS6_EEEENS_4lessIS6_EENS4_INS_4pairIKS6_S9_EEEEEixERSD_, symObjAddr: 0x56A8, symBinAddr: 0x100007D08, symSize: 0x80 }
  - { offsetInCU: 0x51FAF, offset: 0x51FAF, size: 0x8, addend: 0x0, symName: __ZNSt3__16vectorINS_12basic_stringIcNS_11char_traitsIcEENS_9allocatorIcEEEENS4_IS6_EEEaSB7v160006ERKS8_, symObjAddr: 0x5728, symBinAddr: 0x100007D88, symSize: 0x68 }
  - { offsetInCU: 0x51FE6, offset: 0x51FE6, size: 0x8, addend: 0x0, symName: __ZNSt3__13mapINS_12basic_stringIcNS_11char_traitsIcEENS_9allocatorIcEEEENS_6vectorIS6_NS4_IS6_EEEENS_4lessIS6_EENS4_INS_4pairIKS6_S9_EEEEE4findB7v160006ERSD_, symObjAddr: 0x57C0, symBinAddr: 0x100007E20, symSize: 0x40 }
  - { offsetInCU: 0x5201B, offset: 0x5201B, size: 0x8, addend: 0x0, symName: __ZNSt3__13mapINS_12basic_stringIcNS_11char_traitsIcEENS_9allocatorIcEEEENS_6vectorIS6_NS4_IS6_EEEENS_4lessIS6_EENS4_INS_4pairIKS6_S9_EEEEE3endB7v160006Ev, symObjAddr: 0x5800, symBinAddr: 0x100007E60, symSize: 0x38 }
  - { offsetInCU: 0x5204C, offset: 0x5204C, size: 0x8, addend: 0x0, symName: __ZN8MakefileC1ERKS_, symObjAddr: 0x5838, symBinAddr: 0x100007E98, symSize: 0x34 }
  - { offsetInCU: 0x52081, offset: 0x52081, size: 0x8, addend: 0x0, symName: __ZN8MakefileD1Ev, symObjAddr: 0x586C, symBinAddr: 0x100007ECC, symSize: 0x2C }
  - { offsetInCU: 0x520AD, offset: 0x520AD, size: 0x8, addend: 0x0, symName: __ZNSt3__13mapINS_12basic_stringIcNS_11char_traitsIcEENS_9allocatorIcEEEENS_6vectorIS6_NS4_IS6_EEEENS_4lessIS6_EENS4_INS_4pairIKS6_S9_EEEEED1B7v160006Ev, symObjAddr: 0x5898, symBinAddr: 0x100007EF8, symSize: 0x2C }
  - { offsetInCU: 0x520D7, offset: 0x520D7, size: 0x8, addend: 0x0, symName: __ZNSt3__112basic_stringIcNS_11char_traitsIcEENS_9allocatorIcEEEC2B7v160006Ev, symObjAddr: 0x58C4, symBinAddr: 0x100007F24, symSize: 0x54 }
  - { offsetInCU: 0x52107, offset: 0x52107, size: 0x8, addend: 0x0, symName: __ZNSt3__117__compressed_pairINS_12basic_stringIcNS_11char_traitsIcEENS_9allocatorIcEEE5__repES5_EC1B7v160006INS_18__default_init_tagESA_EEOT_OT0_, symObjAddr: 0x5918, symBinAddr: 0x100007F78, symSize: 0x3C }
  - { offsetInCU: 0x5215F, offset: 0x5215F, size: 0x8, addend: 0x0, symName: __ZNSt3__112basic_stringIcNS_11char_traitsIcEENS_9allocatorIcEEE14__default_initB7v160006Ev, symObjAddr: 0x5970, symBinAddr: 0x100007FD0, symSize: 0x40 }
  - { offsetInCU: 0x52185, offset: 0x52185, size: 0x8, addend: 0x0, symName: __ZNSt3__117__compressed_pairINS_12basic_stringIcNS_11char_traitsIcEENS_9allocatorIcEEE5__repES5_EC2B7v160006INS_18__default_init_tagESA_EEOT_OT0_, symObjAddr: 0x59B0, symBinAddr: 0x100008010, symSize: 0x3C }
  - { offsetInCU: 0x521DD, offset: 0x521DD, size: 0x8, addend: 0x0, symName: __ZNSt3__122__compressed_pair_elemINS_12basic_stringIcNS_11char_traitsIcEENS_9allocatorIcEEE5__repELi0ELb0EEC2B7v160006ENS_18__default_init_tagE, symObjAddr: 0x59EC, symBinAddr: 0x10000804C, symSize: 0x14 }
  - { offsetInCU: 0x52211, offset: 0x52211, size: 0x8, addend: 0x0, symName: __ZNSt3__122__compressed_pair_elemINS_9allocatorIcEELi1ELb1EEC2B7v160006ENS_18__default_init_tagE, symObjAddr: 0x5A00, symBinAddr: 0x100008060, symSize: 0x2C }
  - { offsetInCU: 0x52245, offset: 0x52245, size: 0x8, addend: 0x0, symName: __ZNSt3__19allocatorIcEC2B7v160006Ev, symObjAddr: 0x5A2C, symBinAddr: 0x10000808C, symSize: 0x2C }
  - { offsetInCU: 0x5226F, offset: 0x5226F, size: 0x8, addend: 0x0, symName: __ZNSt3__116__non_trivial_ifILb1ENS_9allocatorIcEEEC2B7v160006Ev, symObjAddr: 0x5A58, symBinAddr: 0x1000080B8, symSize: 0x14 }
  - { offsetInCU: 0x52299, offset: 0x52299, size: 0x8, addend: 0x0, symName: __ZNSt3__117__compressed_pairINS_12basic_stringIcNS_11char_traitsIcEENS_9allocatorIcEEE5__repES5_E5firstB7v160006Ev, symObjAddr: 0x5A6C, symBinAddr: 0x1000080CC, symSize: 0x24 }
  - { offsetInCU: 0x522BF, offset: 0x522BF, size: 0x8, addend: 0x0, symName: __ZNSt3__122__compressed_pair_elemINS_12basic_stringIcNS_11char_traitsIcEENS_9allocatorIcEEE5__repELi0ELb0EE5__getB7v160006Ev, symObjAddr: 0x5A90, symBinAddr: 0x1000080F0, symSize: 0x14 }
  - { offsetInCU: 0x522E5, offset: 0x522E5, size: 0x8, addend: 0x0, symName: __ZNSt3__16vectorINS_12basic_stringIcNS_11char_traitsIcEENS_9allocatorIcEEEENS4_IS6_EEEC2B7v160006Ev, symObjAddr: 0x5AA4, symBinAddr: 0x100008104, symSize: 0x58 }
  - { offsetInCU: 0x52315, offset: 0x52315, size: 0x8, addend: 0x0, symName: __ZNSt3__117__compressed_pairIPNS_12basic_stringIcNS_11char_traitsIcEENS_9allocatorIcEEEENS4_IS6_EEEC1B7v160006IDnNS_18__default_init_tagEEEOT_OT0_, symObjAddr: 0x5AFC, symBinAddr: 0x10000815C, symSize: 0x3C }
  - { offsetInCU: 0x5236D, offset: 0x5236D, size: 0x8, addend: 0x0, symName: __ZNSt3__117__compressed_pairIPNS_12basic_stringIcNS_11char_traitsIcEENS_9allocatorIcEEEENS4_IS6_EEEC2B7v160006IDnNS_18__default_init_tagEEEOT_OT0_, symObjAddr: 0x5B48, symBinAddr: 0x1000081A8, symSize: 0x40 }
  - { offsetInCU: 0x523C5, offset: 0x523C5, size: 0x8, addend: 0x0, symName: __ZNSt3__122__compressed_pair_elemIPNS_12basic_stringIcNS_11char_traitsIcEENS_9allocatorIcEEEELi0ELb0EEC2B7v160006IDnvEEOT_, symObjAddr: 0x5B88, symBinAddr: 0x1000081E8, symSize: 0x1C }
  - { offsetInCU: 0x52407, offset: 0x52407, size: 0x8, addend: 0x0, symName: __ZNSt3__122__compressed_pair_elemINS_9allocatorINS_12basic_stringIcNS_11char_traitsIcEENS1_IcEEEEEELi1ELb1EEC2B7v160006ENS_18__default_init_tagE, symObjAddr: 0x5BA4, symBinAddr: 0x100008204, symSize: 0x2C }
  - { offsetInCU: 0x5243B, offset: 0x5243B, size: 0x8, addend: 0x0, symName: __ZNSt3__19allocatorINS_12basic_stringIcNS_11char_traitsIcEENS0_IcEEEEEC2B7v160006Ev, symObjAddr: 0x5BD0, symBinAddr: 0x100008230, symSize: 0x2C }
  - { offsetInCU: 0x52465, offset: 0x52465, size: 0x8, addend: 0x0, symName: __ZNSt3__116__non_trivial_ifILb1ENS_9allocatorINS_12basic_stringIcNS_11char_traitsIcEENS1_IcEEEEEEEC2B7v160006Ev, symObjAddr: 0x5BFC, symBinAddr: 0x10000825C, symSize: 0x14 }
  - { offsetInCU: 0x5248F, offset: 0x5248F, size: 0x8, addend: 0x0, symName: __ZNSt3__16vectorINS_12basic_stringIcNS_11char_traitsIcEENS_9allocatorIcEEEENS4_IS6_EEE9__end_capB7v160006Ev, symObjAddr: 0x5C10, symBinAddr: 0x100008270, symSize: 0x28 }
  - { offsetInCU: 0x524B5, offset: 0x524B5, size: 0x8, addend: 0x0, symName: __ZNSt3__16vectorINS_12basic_stringIcNS_11char_traitsIcEENS_9allocatorIcEEEENS4_IS6_EEE22__construct_one_at_endB7v160006IJRKS6_EEEvDpOT_, symObjAddr: 0x5C38, symBinAddr: 0x100008298, symSize: 0x90 }
  - { offsetInCU: 0x52504, offset: 0x52504, size: 0x8, addend: 0x0, symName: __ZNSt3__16vectorINS_12basic_stringIcNS_11char_traitsIcEENS_9allocatorIcEEEENS4_IS6_EEE21__push_back_slow_pathIRKS6_EEvOT_, symObjAddr: 0x5CC8, symBinAddr: 0x100008328, symSize: 0xD8 }
  - { offsetInCU: 0x52562, offset: 0x52562, size: 0x8, addend: 0x0, symName: __ZNSt3__117__compressed_pairIPNS_12basic_stringIcNS_11char_traitsIcEENS_9allocatorIcEEEENS4_IS6_EEE5firstB7v160006Ev, symObjAddr: 0x5DA0, symBinAddr: 0x100008400, symSize: 0x24 }
  - { offsetInCU: 0x52588, offset: 0x52588, size: 0x8, addend: 0x0, symName: __ZNSt3__122__compressed_pair_elemIPNS_12basic_stringIcNS_11char_traitsIcEENS_9allocatorIcEEEELi0ELb0EE5__getB7v160006Ev, symObjAddr: 0x5DC4, symBinAddr: 0x100008424, symSize: 0x14 }
  - { offsetInCU: 0x525CA, offset: 0x525CA, size: 0x8, addend: 0x0, symName: __ZNSt3__16vectorINS_12basic_stringIcNS_11char_traitsIcEENS_9allocatorIcEEEENS4_IS6_EEE21_ConstructTransactionC1B7v160006ERS8_m, symObjAddr: 0x5DD8, symBinAddr: 0x100008438, symSize: 0x3C }
  - { offsetInCU: 0x52612, offset: 0x52612, size: 0x8, addend: 0x0, symName: __ZNSt3__116allocator_traitsINS_9allocatorINS_12basic_stringIcNS_11char_traitsIcEENS1_IcEEEEEEE9constructB7v160006IS6_JRKS6_EvvEEvRS7_PT_DpOT0_, symObjAddr: 0x5E14, symBinAddr: 0x100008474, symSize: 0x30 }
  - { offsetInCU: 0x52667, offset: 0x52667, size: 0x8, addend: 0x0, symName: __ZNSt3__16vectorINS_12basic_stringIcNS_11char_traitsIcEENS_9allocatorIcEEEENS4_IS6_EEE7__allocB7v160006Ev, symObjAddr: 0x5E44, symBinAddr: 0x1000084A4, symSize: 0x28 }
  - { offsetInCU: 0x5268D, offset: 0x5268D, size: 0x8, addend: 0x0, symName: __ZNSt3__16vectorINS_12basic_stringIcNS_11char_traitsIcEENS_9allocatorIcEEEENS4_IS6_EEE21_ConstructTransactionD1B7v160006Ev, symObjAddr: 0x5E80, symBinAddr: 0x1000084E0, symSize: 0x2C }
  - { offsetInCU: 0x526B7, offset: 0x526B7, size: 0x8, addend: 0x0, symName: __ZNSt3__16vectorINS_12basic_stringIcNS_11char_traitsIcEENS_9allocatorIcEEEENS4_IS6_EEE21_ConstructTransactionC2B7v160006ERS8_m, symObjAddr: 0x5EAC, symBinAddr: 0x10000850C, symSize: 0x4C }
  - { offsetInCU: 0x526FF, offset: 0x526FF, size: 0x8, addend: 0x0, symName: __ZNSt3__117__compressed_pairIPNS_12basic_stringIcNS_11char_traitsIcEENS_9allocatorIcEEEENS4_IS6_EEE6secondB7v160006Ev, symObjAddr: 0x5F34, symBinAddr: 0x100008594, symSize: 0x24 }
  - { offsetInCU: 0x52725, offset: 0x52725, size: 0x8, addend: 0x0, symName: __ZNSt3__122__compressed_pair_elemINS_9allocatorINS_12basic_stringIcNS_11char_traitsIcEENS1_IcEEEEEELi1ELb1EE5__getB7v160006Ev, symObjAddr: 0x5F58, symBinAddr: 0x1000085B8, symSize: 0x14 }
  - { offsetInCU: 0x5274B, offset: 0x5274B, size: 0x8, addend: 0x0, symName: __ZNSt3__16vectorINS_12basic_stringIcNS_11char_traitsIcEENS_9allocatorIcEEEENS4_IS6_EEE21_ConstructTransactionD2B7v160006Ev, symObjAddr: 0x5F6C, symBinAddr: 0x1000085CC, symSize: 0x20 }
  - { offsetInCU: 0x52775, offset: 0x52775, size: 0x8, addend: 0x0, symName: __ZNKSt3__16vectorINS_12basic_stringIcNS_11char_traitsIcEENS_9allocatorIcEEEENS4_IS6_EEE11__recommendB7v160006Em, symObjAddr: 0x5F8C, symBinAddr: 0x1000085EC, symSize: 0xB4 }
  - { offsetInCU: 0x527CA, offset: 0x527CA, size: 0x8, addend: 0x0, symName: __ZNKSt3__16vectorINS_12basic_stringIcNS_11char_traitsIcEENS_9allocatorIcEEEENS4_IS6_EEE4sizeB7v160006Ev, symObjAddr: 0x6040, symBinAddr: 0x1000086A0, symSize: 0x28 }
  - { offsetInCU: 0x527F0, offset: 0x527F0, size: 0x8, addend: 0x0, symName: __ZNSt3__114__split_bufferINS_12basic_stringIcNS_11char_traitsIcEENS_9allocatorIcEEEERNS4_IS6_EEEC1EmmS8_, symObjAddr: 0x6068, symBinAddr: 0x1000086C8, symSize: 0x44 }
  - { offsetInCU: 0x52846, offset: 0x52846, size: 0x8, addend: 0x0, symName: __ZNSt3__114__split_bufferINS_12basic_stringIcNS_11char_traitsIcEENS_9allocatorIcEEEERNS4_IS6_EEED1Ev, symObjAddr: 0x61C4, symBinAddr: 0x100008824, symSize: 0x2C }
  - { offsetInCU: 0x52872, offset: 0x52872, size: 0x8, addend: 0x0, symName: __ZNKSt3__16vectorINS_12basic_stringIcNS_11char_traitsIcEENS_9allocatorIcEEEENS4_IS6_EEE8max_sizeEv, symObjAddr: 0x61F0, symBinAddr: 0x100008850, symSize: 0x60 }
  - { offsetInCU: 0x5289A, offset: 0x5289A, size: 0x8, addend: 0x0, symName: __ZNKSt3__16vectorINS_12basic_stringIcNS_11char_traitsIcEENS_9allocatorIcEEEENS4_IS6_EEE20__throw_length_errorB7v160006Ev, symObjAddr: 0x6250, symBinAddr: 0x1000088B0, symSize: 0x1C }
  - { offsetInCU: 0x528C0, offset: 0x528C0, size: 0x8, addend: 0x0, symName: __ZNKSt3__16vectorINS_12basic_stringIcNS_11char_traitsIcEENS_9allocatorIcEEEENS4_IS6_EEE8capacityB7v160006Ev, symObjAddr: 0x626C, symBinAddr: 0x1000088CC, symSize: 0x40 }
  - { offsetInCU: 0x528F1, offset: 0x528F1, size: 0x8, addend: 0x0, symName: __ZNSt3__116allocator_traitsINS_9allocatorINS_12basic_stringIcNS_11char_traitsIcEENS1_IcEEEEEEE8max_sizeB7v160006IS7_vvEEmRKS7_, symObjAddr: 0x6304, symBinAddr: 0x100008964, symSize: 0x28 }
  - { offsetInCU: 0x5291D, offset: 0x5291D, size: 0x8, addend: 0x0, symName: __ZNKSt3__16vectorINS_12basic_stringIcNS_11char_traitsIcEENS_9allocatorIcEEEENS4_IS6_EEE7__allocB7v160006Ev, symObjAddr: 0x632C, symBinAddr: 0x10000898C, symSize: 0x28 }
  - { offsetInCU: 0x52943, offset: 0x52943, size: 0x8, addend: 0x0, symName: __ZNSt3__114numeric_limitsIlE3maxB7v160006Ev, symObjAddr: 0x6354, symBinAddr: 0x1000089B4, symSize: 0x14 }
  - { offsetInCU: 0x52962, offset: 0x52962, size: 0x8, addend: 0x0, symName: __ZNKSt3__16__lessImmEclB7v160006ERKmS3_, symObjAddr: 0x63BC, symBinAddr: 0x100008A1C, symSize: 0x34 }
  - { offsetInCU: 0x529A4, offset: 0x529A4, size: 0x8, addend: 0x0, symName: __ZNSt3__114numeric_limitsImE3maxB7v160006Ev, symObjAddr: 0x63F0, symBinAddr: 0x100008A50, symSize: 0x14 }
  - { offsetInCU: 0x529B8, offset: 0x529B8, size: 0x8, addend: 0x0, symName: __ZNSt3__123__libcpp_numeric_limitsImLb1EE3maxB7v160006Ev, symObjAddr: 0x6404, symBinAddr: 0x100008A64, symSize: 0x8 }
  - { offsetInCU: 0x529CC, offset: 0x529CC, size: 0x8, addend: 0x0, symName: __ZNKSt3__117__compressed_pairIPNS_12basic_stringIcNS_11char_traitsIcEENS_9allocatorIcEEEENS4_IS6_EEE6secondB7v160006Ev, symObjAddr: 0x640C, symBinAddr: 0x100008A6C, symSize: 0x24 }
  - { offsetInCU: 0x529F2, offset: 0x529F2, size: 0x8, addend: 0x0, symName: __ZNKSt3__122__compressed_pair_elemINS_9allocatorINS_12basic_stringIcNS_11char_traitsIcEENS1_IcEEEEEELi1ELb1EE5__getB7v160006Ev, symObjAddr: 0x6430, symBinAddr: 0x100008A90, symSize: 0x14 }
  - { offsetInCU: 0x52A18, offset: 0x52A18, size: 0x8, addend: 0x0, symName: __ZNSt3__123__libcpp_numeric_limitsIlLb1EE3maxB7v160006Ev, symObjAddr: 0x6444, symBinAddr: 0x100008AA4, symSize: 0x8 }
  - { offsetInCU: 0x52A2C, offset: 0x52A2C, size: 0x8, addend: 0x0, symName: __ZNSt12length_errorC1B7v160006EPKc, symObjAddr: 0x64B0, symBinAddr: 0x100008B10, symSize: 0x34 }
  - { offsetInCU: 0x52A64, offset: 0x52A64, size: 0x8, addend: 0x0, symName: __ZNSt12length_errorC2B7v160006EPKc, symObjAddr: 0x64E4, symBinAddr: 0x100008B44, symSize: 0x4C }
  - { offsetInCU: 0x52A9C, offset: 0x52A9C, size: 0x8, addend: 0x0, symName: __ZNKSt3__16vectorINS_12basic_stringIcNS_11char_traitsIcEENS_9allocatorIcEEEENS4_IS6_EEE9__end_capB7v160006Ev, symObjAddr: 0x6530, symBinAddr: 0x100008B90, symSize: 0x28 }
  - { offsetInCU: 0x52AC2, offset: 0x52AC2, size: 0x8, addend: 0x0, symName: __ZNKSt3__117__compressed_pairIPNS_12basic_stringIcNS_11char_traitsIcEENS_9allocatorIcEEEENS4_IS6_EEE5firstB7v160006Ev, symObjAddr: 0x6558, symBinAddr: 0x100008BB8, symSize: 0x24 }
  - { offsetInCU: 0x52AE8, offset: 0x52AE8, size: 0x8, addend: 0x0, symName: __ZNKSt3__122__compressed_pair_elemIPNS_12basic_stringIcNS_11char_traitsIcEENS_9allocatorIcEEEELi0ELb0EE5__getB7v160006Ev, symObjAddr: 0x657C, symBinAddr: 0x100008BDC, symSize: 0x14 }
  - { offsetInCU: 0x52B0E, offset: 0x52B0E, size: 0x8, addend: 0x0, symName: __ZNSt3__114__split_bufferINS_12basic_stringIcNS_11char_traitsIcEENS_9allocatorIcEEEERNS4_IS6_EEEC2EmmS8_, symObjAddr: 0x65E4, symBinAddr: 0x100008C44, symSize: 0xE0 }
  - { offsetInCU: 0x52B82, offset: 0x52B82, size: 0x8, addend: 0x0, symName: __ZNSt3__117__compressed_pairIPNS_12basic_stringIcNS_11char_traitsIcEENS_9allocatorIcEEEERNS4_IS6_EEEC1B7v160006IDnS9_EEOT_OT0_, symObjAddr: 0x66C4, symBinAddr: 0x100008D24, symSize: 0x3C }
  - { offsetInCU: 0x52BDA, offset: 0x52BDA, size: 0x8, addend: 0x0, symName: __ZNSt3__114__split_bufferINS_12basic_stringIcNS_11char_traitsIcEENS_9allocatorIcEEEERNS4_IS6_EEE7__allocB7v160006Ev, symObjAddr: 0x6740, symBinAddr: 0x100008DA0, symSize: 0x28 }
  - { offsetInCU: 0x52C00, offset: 0x52C00, size: 0x8, addend: 0x0, symName: __ZNSt3__114__split_bufferINS_12basic_stringIcNS_11char_traitsIcEENS_9allocatorIcEEEERNS4_IS6_EEE9__end_capB7v160006Ev, symObjAddr: 0x6768, symBinAddr: 0x100008DC8, symSize: 0x28 }
  - { offsetInCU: 0x52C26, offset: 0x52C26, size: 0x8, addend: 0x0, symName: __ZNSt3__117__compressed_pairIPNS_12basic_stringIcNS_11char_traitsIcEENS_9allocatorIcEEEERNS4_IS6_EEEC2B7v160006IDnS9_EEOT_OT0_, symObjAddr: 0x6790, symBinAddr: 0x100008DF0, symSize: 0x48 }
  - { offsetInCU: 0x52C7E, offset: 0x52C7E, size: 0x8, addend: 0x0, symName: __ZNSt3__122__compressed_pair_elemIRNS_9allocatorINS_12basic_stringIcNS_11char_traitsIcEENS1_IcEEEEEELi1ELb0EEC2B7v160006IS8_vEEOT_, symObjAddr: 0x67D8, symBinAddr: 0x100008E38, symSize: 0x20 }
  - { offsetInCU: 0x52CC0, offset: 0x52CC0, size: 0x8, addend: 0x0, symName: __ZNSt3__19allocatorINS_12basic_stringIcNS_11char_traitsIcEENS0_IcEEEEE8allocateB7v160006Em, symObjAddr: 0x67F8, symBinAddr: 0x100008E58, symSize: 0x5C }
  - { offsetInCU: 0x52CF4, offset: 0x52CF4, size: 0x8, addend: 0x0, symName: __ZNSt3__117__compressed_pairIPNS_12basic_stringIcNS_11char_traitsIcEENS_9allocatorIcEEEERNS4_IS6_EEE6secondB7v160006Ev, symObjAddr: 0x6958, symBinAddr: 0x100008FB8, symSize: 0x28 }
  - { offsetInCU: 0x52D1A, offset: 0x52D1A, size: 0x8, addend: 0x0, symName: __ZNSt3__122__compressed_pair_elemIRNS_9allocatorINS_12basic_stringIcNS_11char_traitsIcEENS1_IcEEEEEELi1ELb0EE5__getB7v160006Ev, symObjAddr: 0x6980, symBinAddr: 0x100008FE0, symSize: 0x18 }
  - { offsetInCU: 0x52D40, offset: 0x52D40, size: 0x8, addend: 0x0, symName: __ZNSt3__117__compressed_pairIPNS_12basic_stringIcNS_11char_traitsIcEENS_9allocatorIcEEEERNS4_IS6_EEE5firstB7v160006Ev, symObjAddr: 0x6998, symBinAddr: 0x100008FF8, symSize: 0x24 }
  - { offsetInCU: 0x52D66, offset: 0x52D66, size: 0x8, addend: 0x0, symName: __ZNKSt3__16vectorINS_12basic_stringIcNS_11char_traitsIcEENS_9allocatorIcEEEENS4_IS6_EEE17__annotate_deleteB7v160006Ev, symObjAddr: 0x69BC, symBinAddr: 0x10000901C, symSize: 0xD4 }
  - { offsetInCU: 0x52D8C, offset: 0x52D8C, size: 0x8, addend: 0x0, symName: __ZNSt3__116reverse_iteratorIPNS_12basic_stringIcNS_11char_traitsIcEENS_9allocatorIcEEEEEC1B7v160006ES7_, symObjAddr: 0x6BBC, symBinAddr: 0x10000921C, symSize: 0x34 }
  - { offsetInCU: 0x52DC4, offset: 0x52DC4, size: 0x8, addend: 0x0, symName: __ZNKSt3__116reverse_iteratorIPNS_12basic_stringIcNS_11char_traitsIcEENS_9allocatorIcEEEEE4baseB7v160006Ev, symObjAddr: 0x6BF0, symBinAddr: 0x100009250, symSize: 0x18 }
  - { offsetInCU: 0x52DEA, offset: 0x52DEA, size: 0x8, addend: 0x0, symName: __ZNKSt3__16vectorINS_12basic_stringIcNS_11char_traitsIcEENS_9allocatorIcEEEENS4_IS6_EEE14__annotate_newB7v160006Em, symObjAddr: 0x6C44, symBinAddr: 0x1000092A4, symSize: 0xC8 }
  - { offsetInCU: 0x52E1F, offset: 0x52E1F, size: 0x8, addend: 0x0, symName: __ZNKSt3__16vectorINS_12basic_stringIcNS_11char_traitsIcEENS_9allocatorIcEEEENS4_IS6_EEE31__annotate_contiguous_containerB7v160006EPKvSA_SA_SA_, symObjAddr: 0x6D1C, symBinAddr: 0x10000937C, symSize: 0x20 }
  - { offsetInCU: 0x52E75, offset: 0x52E75, size: 0x8, addend: 0x0, symName: __ZNKSt3__16vectorINS_12basic_stringIcNS_11char_traitsIcEENS_9allocatorIcEEEENS4_IS6_EEE4dataB7v160006Ev, symObjAddr: 0x6D3C, symBinAddr: 0x10000939C, symSize: 0x28 }
  - { offsetInCU: 0x52E9B, offset: 0x52E9B, size: 0x8, addend: 0x0, symName: __ZNSt3__129_AllocatorDestroyRangeReverseINS_9allocatorINS_12basic_stringIcNS_11char_traitsIcEENS1_IcEEEEEENS_16reverse_iteratorIPS6_EEEC1B7v160006ERS7_RSA_SD_, symObjAddr: 0x6DB0, symBinAddr: 0x100009410, symSize: 0x44 }
  - { offsetInCU: 0x52EF8, offset: 0x52EF8, size: 0x8, addend: 0x0, symName: __ZNSt3__116allocator_traitsINS_9allocatorINS_12basic_stringIcNS_11char_traitsIcEENS1_IcEEEEEEE9constructB7v160006IS6_JS6_EvvEEvRS7_PT_DpOT0_, symObjAddr: 0x6E3C, symBinAddr: 0x10000949C, symSize: 0x30 }
  - { offsetInCU: 0x52F4D, offset: 0x52F4D, size: 0x8, addend: 0x0, symName: __ZNKSt3__116reverse_iteratorIPNS_12basic_stringIcNS_11char_traitsIcEENS_9allocatorIcEEEEEdeB7v160006Ev, symObjAddr: 0x6E90, symBinAddr: 0x1000094F0, symSize: 0x28 }
  - { offsetInCU: 0x52F81, offset: 0x52F81, size: 0x8, addend: 0x0, symName: __ZNSt3__116reverse_iteratorIPNS_12basic_stringIcNS_11char_traitsIcEENS_9allocatorIcEEEEEppB7v160006Ev, symObjAddr: 0x6EB8, symBinAddr: 0x100009518, symSize: 0x20 }
  - { offsetInCU: 0x52FA7, offset: 0x52FA7, size: 0x8, addend: 0x0, symName: __ZNSt3__128__exception_guard_exceptionsINS_29_AllocatorDestroyRangeReverseINS_9allocatorINS_12basic_stringIcNS_11char_traitsIcEENS2_IcEEEEEENS_16reverse_iteratorIPS7_EEEEE10__completeB7v160006Ev, symObjAddr: 0x6ED8, symBinAddr: 0x100009538, symSize: 0x1C }
  - { offsetInCU: 0x52FCD, offset: 0x52FCD, size: 0x8, addend: 0x0, symName: __ZNSt3__128__exception_guard_exceptionsINS_29_AllocatorDestroyRangeReverseINS_9allocatorINS_12basic_stringIcNS_11char_traitsIcEENS2_IcEEEEEENS_16reverse_iteratorIPS7_EEEEED1B7v160006Ev, symObjAddr: 0x6EF4, symBinAddr: 0x100009554, symSize: 0x2C }
  - { offsetInCU: 0x52FF7, offset: 0x52FF7, size: 0x8, addend: 0x0, symName: __ZNSt3__128__exception_guard_exceptionsINS_29_AllocatorDestroyRangeReverseINS_9allocatorINS_12basic_stringIcNS_11char_traitsIcEENS2_IcEEEEEENS_16reverse_iteratorIPS7_EEEEEC1B7v160006ESC_, symObjAddr: 0x6F20, symBinAddr: 0x100009580, symSize: 0x34 }
  - { offsetInCU: 0x53030, offset: 0x53030, size: 0x8, addend: 0x0, symName: __ZNSt3__128__exception_guard_exceptionsINS_29_AllocatorDestroyRangeReverseINS_9allocatorINS_12basic_stringIcNS_11char_traitsIcEENS2_IcEEEEEENS_16reverse_iteratorIPS7_EEEEEC2B7v160006ESC_, symObjAddr: 0x6F54, symBinAddr: 0x1000095B4, symSize: 0x30 }
  - { offsetInCU: 0x53069, offset: 0x53069, size: 0x8, addend: 0x0, symName: __ZNSt3__129_AllocatorDestroyRangeReverseINS_9allocatorINS_12basic_stringIcNS_11char_traitsIcEENS1_IcEEEEEENS_16reverse_iteratorIPS6_EEEC2B7v160006ERS7_RSA_SD_, symObjAddr: 0x6F84, symBinAddr: 0x1000095E4, symSize: 0x38 }
  - { offsetInCU: 0x530C6, offset: 0x530C6, size: 0x8, addend: 0x0, symName: __ZNSt3__119__to_address_helperINS_16reverse_iteratorIPNS_12basic_stringIcNS_11char_traitsIcEENS_9allocatorIcEEEEEEvE6__callB7v160006ERKS9_, symObjAddr: 0x6FF8, symBinAddr: 0x100009658, symSize: 0x38 }
  - { offsetInCU: 0x530E9, offset: 0x530E9, size: 0x8, addend: 0x0, symName: __ZNKSt3__116reverse_iteratorIPNS_12basic_stringIcNS_11char_traitsIcEENS_9allocatorIcEEEEEptB7v160006Ev, symObjAddr: 0x7030, symBinAddr: 0x100009690, symSize: 0x2C }
  - { offsetInCU: 0x5310F, offset: 0x5310F, size: 0x8, addend: 0x0, symName: __ZNSt3__128__exception_guard_exceptionsINS_29_AllocatorDestroyRangeReverseINS_9allocatorINS_12basic_stringIcNS_11char_traitsIcEENS2_IcEEEEEENS_16reverse_iteratorIPS7_EEEEED2B7v160006Ev, symObjAddr: 0x7140, symBinAddr: 0x1000097A0, symSize: 0x50 }
  - { offsetInCU: 0x53139, offset: 0x53139, size: 0x8, addend: 0x0, symName: __ZNKSt3__129_AllocatorDestroyRangeReverseINS_9allocatorINS_12basic_stringIcNS_11char_traitsIcEENS1_IcEEEEEENS_16reverse_iteratorIPS6_EEEclB7v160006Ev, symObjAddr: 0x7190, symBinAddr: 0x1000097F0, symSize: 0xB4 }
  - { offsetInCU: 0x53160, offset: 0x53160, size: 0x8, addend: 0x0, symName: __ZNSt3__116reverse_iteratorINS0_IPNS_12basic_stringIcNS_11char_traitsIcEENS_9allocatorIcEEEEEEEC1B7v160006ES8_, symObjAddr: 0x72B4, symBinAddr: 0x100009914, symSize: 0x3C }
  - { offsetInCU: 0x53198, offset: 0x53198, size: 0x8, addend: 0x0, symName: __ZNSt3__116allocator_traitsINS_9allocatorINS_12basic_stringIcNS_11char_traitsIcEENS1_IcEEEEEEE7destroyB7v160006IS6_vvEEvRS7_PT_, symObjAddr: 0x7350, symBinAddr: 0x1000099B0, symSize: 0x28 }
  - { offsetInCU: 0x531D3, offset: 0x531D3, size: 0x8, addend: 0x0, symName: __ZNSt3__116reverse_iteratorINS0_IPNS_12basic_stringIcNS_11char_traitsIcEENS_9allocatorIcEEEEEEEppB7v160006Ev, symObjAddr: 0x739C, symBinAddr: 0x1000099FC, symSize: 0x30 }
  - { offsetInCU: 0x531F9, offset: 0x531F9, size: 0x8, addend: 0x0, symName: __ZNKSt3__116reverse_iteratorINS0_IPNS_12basic_stringIcNS_11char_traitsIcEENS_9allocatorIcEEEEEEE4baseB7v160006Ev, symObjAddr: 0x73CC, symBinAddr: 0x100009A2C, symSize: 0x24 }
  - { offsetInCU: 0x53225, offset: 0x53225, size: 0x8, addend: 0x0, symName: __ZNSt3__119__to_address_helperINS_16reverse_iteratorINS1_IPNS_12basic_stringIcNS_11char_traitsIcEENS_9allocatorIcEEEEEEEEvE6__callB7v160006ERKSA_, symObjAddr: 0x7438, symBinAddr: 0x100009A98, symSize: 0x38 }
  - { offsetInCU: 0x53248, offset: 0x53248, size: 0x8, addend: 0x0, symName: __ZNKSt3__116reverse_iteratorINS0_IPNS_12basic_stringIcNS_11char_traitsIcEENS_9allocatorIcEEEEEEEptB7v160006Ev, symObjAddr: 0x7470, symBinAddr: 0x100009AD0, symSize: 0x4C }
  - { offsetInCU: 0x5326E, offset: 0x5326E, size: 0x8, addend: 0x0, symName: __ZNSt3__116reverse_iteratorIPNS_12basic_stringIcNS_11char_traitsIcEENS_9allocatorIcEEEEEpLB7v160006El, symObjAddr: 0x7598, symBinAddr: 0x100009BF8, symSize: 0x30 }
  - { offsetInCU: 0x532A2, offset: 0x532A2, size: 0x8, addend: 0x0, symName: __ZNSt3__116reverse_iteratorIPNS_12basic_stringIcNS_11char_traitsIcEENS_9allocatorIcEEEEEmmB7v160006Ev, symObjAddr: 0x75C8, symBinAddr: 0x100009C28, symSize: 0x20 }
  - { offsetInCU: 0x532C8, offset: 0x532C8, size: 0x8, addend: 0x0, symName: __ZNSt3__116reverse_iteratorINS0_IPNS_12basic_stringIcNS_11char_traitsIcEENS_9allocatorIcEEEEEEEC2B7v160006ES8_, symObjAddr: 0x75E8, symBinAddr: 0x100009C48, symSize: 0x2C }
  - { offsetInCU: 0x53300, offset: 0x53300, size: 0x8, addend: 0x0, symName: __ZNSt3__116reverse_iteratorIPNS_12basic_stringIcNS_11char_traitsIcEENS_9allocatorIcEEEEEC2B7v160006ES7_, symObjAddr: 0x7614, symBinAddr: 0x100009C74, symSize: 0x28 }
  - { offsetInCU: 0x53338, offset: 0x53338, size: 0x8, addend: 0x0, symName: __ZNSt3__114__split_bufferINS_12basic_stringIcNS_11char_traitsIcEENS_9allocatorIcEEEERNS4_IS6_EEED2Ev, symObjAddr: 0x763C, symBinAddr: 0x100009C9C, symSize: 0x8C }
  - { offsetInCU: 0x53364, offset: 0x53364, size: 0x8, addend: 0x0, symName: __ZNSt3__114__split_bufferINS_12basic_stringIcNS_11char_traitsIcEENS_9allocatorIcEEEERNS4_IS6_EEE5clearB7v160006Ev, symObjAddr: 0x76C8, symBinAddr: 0x100009D28, symSize: 0x28 }
  - { offsetInCU: 0x5338A, offset: 0x5338A, size: 0x8, addend: 0x0, symName: __ZNSt3__116allocator_traitsINS_9allocatorINS_12basic_stringIcNS_11char_traitsIcEENS1_IcEEEEEEE10deallocateB7v160006ERS7_PS6_m, symObjAddr: 0x76F0, symBinAddr: 0x100009D50, symSize: 0x34 }
  - { offsetInCU: 0x533CC, offset: 0x533CC, size: 0x8, addend: 0x0, symName: __ZNKSt3__114__split_bufferINS_12basic_stringIcNS_11char_traitsIcEENS_9allocatorIcEEEERNS4_IS6_EEE8capacityB7v160006Ev, symObjAddr: 0x7724, symBinAddr: 0x100009D84, symSize: 0x40 }
  - { offsetInCU: 0x533F2, offset: 0x533F2, size: 0x8, addend: 0x0, symName: __ZNSt3__114__split_bufferINS_12basic_stringIcNS_11char_traitsIcEENS_9allocatorIcEEEERNS4_IS6_EEE17__destruct_at_endB7v160006EPS6_, symObjAddr: 0x7764, symBinAddr: 0x100009DC4, symSize: 0x2C }
  - { offsetInCU: 0x53426, offset: 0x53426, size: 0x8, addend: 0x0, symName: __ZNSt3__114__split_bufferINS_12basic_stringIcNS_11char_traitsIcEENS_9allocatorIcEEEERNS4_IS6_EEE17__destruct_at_endB7v160006EPS6_NS_17integral_constantIbLb0EEE, symObjAddr: 0x7790, symBinAddr: 0x100009DF0, symSize: 0x80 }
  - { offsetInCU: 0x53466, offset: 0x53466, size: 0x8, addend: 0x0, symName: __ZNSt3__19allocatorINS_12basic_stringIcNS_11char_traitsIcEENS0_IcEEEEE10deallocateB7v160006EPS5_m, symObjAddr: 0x7810, symBinAddr: 0x100009E70, symSize: 0x44 }
  - { offsetInCU: 0x534A8, offset: 0x534A8, size: 0x8, addend: 0x0, symName: __ZNKSt3__114__split_bufferINS_12basic_stringIcNS_11char_traitsIcEENS_9allocatorIcEEEERNS4_IS6_EEE9__end_capB7v160006Ev, symObjAddr: 0x795C, symBinAddr: 0x100009FBC, symSize: 0x28 }
  - { offsetInCU: 0x534CE, offset: 0x534CE, size: 0x8, addend: 0x0, symName: __ZNKSt3__117__compressed_pairIPNS_12basic_stringIcNS_11char_traitsIcEENS_9allocatorIcEEEERNS4_IS6_EEE5firstB7v160006Ev, symObjAddr: 0x7984, symBinAddr: 0x100009FE4, symSize: 0x24 }
  - { offsetInCU: 0x534F4, offset: 0x534F4, size: 0x8, addend: 0x0, symName: __ZNSt3__16vectorINS_12basic_stringIcNS_11char_traitsIcEENS_9allocatorIcEEEENS4_IS6_EEED2B7v160006Ev, symObjAddr: 0x79A8, symBinAddr: 0x10000A008, symSize: 0x44 }
  - { offsetInCU: 0x5351E, offset: 0x5351E, size: 0x8, addend: 0x0, symName: __ZNSt3__16vectorINS_12basic_stringIcNS_11char_traitsIcEENS_9allocatorIcEEEENS4_IS6_EEE16__destroy_vectorC1ERS8_, symObjAddr: 0x79EC, symBinAddr: 0x10000A04C, symSize: 0x34 }
  - { offsetInCU: 0x53557, offset: 0x53557, size: 0x8, addend: 0x0, symName: __ZNSt3__16vectorINS_12basic_stringIcNS_11char_traitsIcEENS_9allocatorIcEEEENS4_IS6_EEE16__destroy_vectorclB7v160006Ev, symObjAddr: 0x7A20, symBinAddr: 0x10000A080, symSize: 0x9C }
  - { offsetInCU: 0x5357D, offset: 0x5357D, size: 0x8, addend: 0x0, symName: __ZNSt3__16vectorINS_12basic_stringIcNS_11char_traitsIcEENS_9allocatorIcEEEENS4_IS6_EEE16__destroy_vectorC2ERS8_, symObjAddr: 0x7ABC, symBinAddr: 0x10000A11C, symSize: 0x20 }
  - { offsetInCU: 0x535B6, offset: 0x535B6, size: 0x8, addend: 0x0, symName: __ZNSt3__16vectorINS_12basic_stringIcNS_11char_traitsIcEENS_9allocatorIcEEEENS4_IS6_EEE7__clearB7v160006Ev, symObjAddr: 0x7AEC, symBinAddr: 0x10000A14C, symSize: 0x28 }
  - { offsetInCU: 0x535DC, offset: 0x535DC, size: 0x8, addend: 0x0, symName: __ZNSt3__16vectorINS_12basic_stringIcNS_11char_traitsIcEENS_9allocatorIcEEEENS4_IS6_EEE22__base_destruct_at_endB7v160006EPS6_, symObjAddr: 0x7B14, symBinAddr: 0x10000A174, symSize: 0x8C }
  - { offsetInCU: 0x53620, offset: 0x53620, size: 0x8, addend: 0x0, symName: __ZNSt3__119basic_istringstreamIcNS_11char_traitsIcEENS_9allocatorIcEEED2Ev, symObjAddr: 0x7BA0, symBinAddr: 0x10000A200, symSize: 0x64 }
  - { offsetInCU: 0x5365A, offset: 0x5365A, size: 0x8, addend: 0x0, symName: __ZTv0_n24_NSt3__119basic_istringstreamIcNS_11char_traitsIcEENS_9allocatorIcEEED1Ev, symObjAddr: 0x7C04, symBinAddr: 0x10000A264, symSize: 0x28 }
  - { offsetInCU: 0x53677, offset: 0x53677, size: 0x8, addend: 0x0, symName: __ZNSt3__115basic_stringbufIcNS_11char_traitsIcEENS_9allocatorIcEEED1Ev, symObjAddr: 0x7C2C, symBinAddr: 0x10000A28C, symSize: 0x2C }
  - { offsetInCU: 0x536A4, offset: 0x536A4, size: 0x8, addend: 0x0, symName: __ZNSt3__115basic_stringbufIcNS_11char_traitsIcEENS_9allocatorIcEEED2Ev, symObjAddr: 0x7C58, symBinAddr: 0x10000A2B8, symSize: 0x48 }
  - { offsetInCU: 0x536D1, offset: 0x536D1, size: 0x8, addend: 0x0, symName: __ZNKSt3__112basic_stringIcNS_11char_traitsIcEENS_9allocatorIcEEE4dataB7v160006Ev, symObjAddr: 0x7D7C, symBinAddr: 0x10000A3DC, symSize: 0x28 }
  - { offsetInCU: 0x536F7, offset: 0x536F7, size: 0x8, addend: 0x0, symName: __ZNSt3__111char_traitsIcE6lengthEPKc, symObjAddr: 0x7DA4, symBinAddr: 0x10000A404, symSize: 0x34 }
  - { offsetInCU: 0x5371A, offset: 0x5371A, size: 0x8, addend: 0x0, symName: __ZNSt3__111char_traitsIcE4findEPKcmRS2_, symObjAddr: 0x7DD8, symBinAddr: 0x10000A438, symSize: 0x70 }
  - { offsetInCU: 0x53759, offset: 0x53759, size: 0x8, addend: 0x0, symName: __ZNKSt3__112basic_stringIcNS_11char_traitsIcEENS_9allocatorIcEEE13__get_pointerB7v160006Ev, symObjAddr: 0x7E90, symBinAddr: 0x10000A4F0, symSize: 0x54 }
  - { offsetInCU: 0x5377F, offset: 0x5377F, size: 0x8, addend: 0x0, symName: __ZNKSt3__112basic_stringIcNS_11char_traitsIcEENS_9allocatorIcEEE9__is_longB7v160006Ev, symObjAddr: 0x7EE4, symBinAddr: 0x10000A544, symSize: 0x38 }
  - { offsetInCU: 0x537A5, offset: 0x537A5, size: 0x8, addend: 0x0, symName: __ZNKSt3__112basic_stringIcNS_11char_traitsIcEENS_9allocatorIcEEE18__get_long_pointerB7v160006Ev, symObjAddr: 0x7F1C, symBinAddr: 0x10000A57C, symSize: 0x28 }
  - { offsetInCU: 0x537CB, offset: 0x537CB, size: 0x8, addend: 0x0, symName: __ZNKSt3__112basic_stringIcNS_11char_traitsIcEENS_9allocatorIcEEE19__get_short_pointerB7v160006Ev, symObjAddr: 0x7F44, symBinAddr: 0x10000A5A4, symSize: 0x28 }
  - { offsetInCU: 0x537F1, offset: 0x537F1, size: 0x8, addend: 0x0, symName: __ZNKSt3__117__compressed_pairINS_12basic_stringIcNS_11char_traitsIcEENS_9allocatorIcEEE5__repES5_E5firstB7v160006Ev, symObjAddr: 0x7F6C, symBinAddr: 0x10000A5CC, symSize: 0x24 }
  - { offsetInCU: 0x53817, offset: 0x53817, size: 0x8, addend: 0x0, symName: __ZNKSt3__122__compressed_pair_elemINS_12basic_stringIcNS_11char_traitsIcEENS_9allocatorIcEEE5__repELi0ELb0EE5__getB7v160006Ev, symObjAddr: 0x7F90, symBinAddr: 0x10000A5F0, symSize: 0x14 }
  - { offsetInCU: 0x5383D, offset: 0x5383D, size: 0x8, addend: 0x0, symName: __ZNSt3__114pointer_traitsIPKcE10pointer_toB7v160006ERS1_, symObjAddr: 0x7FA4, symBinAddr: 0x10000A604, symSize: 0x14 }
  - { offsetInCU: 0x53860, offset: 0x53860, size: 0x8, addend: 0x0, symName: __ZNSt3__112basic_stringIcNS_11char_traitsIcEENS_9allocatorIcEEEC2B7v160006IDnEEPKc, symObjAddr: 0x80B8, symBinAddr: 0x10000A718, symSize: 0x60 }
  - { offsetInCU: 0x5389E, offset: 0x5389E, size: 0x8, addend: 0x0, symName: __ZNSt3__19allocatorIcEC1B7v160006Ev, symObjAddr: 0x8118, symBinAddr: 0x10000A778, symSize: 0x2C }
  - { offsetInCU: 0x538C8, offset: 0x538C8, size: 0x8, addend: 0x0, symName: __ZNKSt3__112basic_stringIcNS_11char_traitsIcEENS_9allocatorIcEEEcvNS_17basic_string_viewIcS2_EEB7v160006Ev, symObjAddr: 0x81F4, symBinAddr: 0x10000A854, symSize: 0x50 }
  - { offsetInCU: 0x538EE, offset: 0x538EE, size: 0x8, addend: 0x0, symName: __ZNSt3__117basic_string_viewIcNS_11char_traitsIcEEEC1B7v160006EPKc, symObjAddr: 0x8244, symBinAddr: 0x10000A8A4, symSize: 0x34 }
  - { offsetInCU: 0x53927, offset: 0x53927, size: 0x8, addend: 0x0, symName: __ZNKSt3__117basic_string_viewIcNS_11char_traitsIcEEE4sizeB7v160006Ev, symObjAddr: 0x8278, symBinAddr: 0x10000A8D8, symSize: 0x18 }
  - { offsetInCU: 0x5394D, offset: 0x5394D, size: 0x8, addend: 0x0, symName: __ZNKSt3__117basic_string_viewIcNS_11char_traitsIcEEE7compareES3_, symObjAddr: 0x8290, symBinAddr: 0x10000A8F0, symSize: 0x13C }
  - { offsetInCU: 0x539A0, offset: 0x539A0, size: 0x8, addend: 0x0, symName: __ZNSt3__111char_traitsIcE7compareEPKcS3_m, symObjAddr: 0x83CC, symBinAddr: 0x10000AA2C, symSize: 0x6C }
  - { offsetInCU: 0x539DF, offset: 0x539DF, size: 0x8, addend: 0x0, symName: __ZNKSt3__117basic_string_viewIcNS_11char_traitsIcEEE4dataB7v160006Ev, symObjAddr: 0x8438, symBinAddr: 0x10000AA98, symSize: 0x18 }
  - { offsetInCU: 0x53A05, offset: 0x53A05, size: 0x8, addend: 0x0, symName: __ZNSt3__117basic_string_viewIcNS_11char_traitsIcEEEC1B7v160006EPKcm, symObjAddr: 0x8484, symBinAddr: 0x10000AAE4, symSize: 0x3C }
  - { offsetInCU: 0x53A4D, offset: 0x53A4D, size: 0x8, addend: 0x0, symName: __ZNSt3__117basic_string_viewIcNS_11char_traitsIcEEEC2B7v160006EPKcm, symObjAddr: 0x84C0, symBinAddr: 0x10000AB20, symSize: 0x50 }
  - { offsetInCU: 0x53A95, offset: 0x53A95, size: 0x8, addend: 0x0, symName: __ZNSt3__117basic_string_viewIcNS_11char_traitsIcEEEC2B7v160006EPKc, symObjAddr: 0x8510, symBinAddr: 0x10000AB70, symSize: 0x44 }
  - { offsetInCU: 0x53ACE, offset: 0x53ACE, size: 0x8, addend: 0x0, symName: __ZN5MacroC2Ev, symObjAddr: 0x8578, symBinAddr: 0x10000ABD8, symSize: 0x44 }
  - { offsetInCU: 0x53AFA, offset: 0x53AFA, size: 0x8, addend: 0x0, symName: __ZNSt3__16vectorI5MacroNS_9allocatorIS1_EEE9__end_capB7v160006Ev, symObjAddr: 0x85BC, symBinAddr: 0x10000AC1C, symSize: 0x28 }
  - { offsetInCU: 0x53B20, offset: 0x53B20, size: 0x8, addend: 0x0, symName: __ZNSt3__16vectorI5MacroNS_9allocatorIS1_EEE22__construct_one_at_endB7v160006IJRKS1_EEEvDpOT_, symObjAddr: 0x85E4, symBinAddr: 0x10000AC44, symSize: 0x90 }
  - { offsetInCU: 0x53B6F, offset: 0x53B6F, size: 0x8, addend: 0x0, symName: __ZNSt3__16vectorI5MacroNS_9allocatorIS1_EEE21__push_back_slow_pathIRKS1_EEvOT_, symObjAddr: 0x8674, symBinAddr: 0x10000ACD4, symSize: 0xD8 }
  - { offsetInCU: 0x53BCD, offset: 0x53BCD, size: 0x8, addend: 0x0, symName: __ZNSt3__117__compressed_pairIP5MacroNS_9allocatorIS1_EEE5firstB7v160006Ev, symObjAddr: 0x874C, symBinAddr: 0x10000ADAC, symSize: 0x24 }
  - { offsetInCU: 0x53BF3, offset: 0x53BF3, size: 0x8, addend: 0x0, symName: __ZNSt3__122__compressed_pair_elemIP5MacroLi0ELb0EE5__getB7v160006Ev, symObjAddr: 0x8770, symBinAddr: 0x10000ADD0, symSize: 0x14 }
  - { offsetInCU: 0x53C35, offset: 0x53C35, size: 0x8, addend: 0x0, symName: __ZNSt3__16vectorI5MacroNS_9allocatorIS1_EEE21_ConstructTransactionC1B7v160006ERS4_m, symObjAddr: 0x8784, symBinAddr: 0x10000ADE4, symSize: 0x3C }
  - { offsetInCU: 0x53C7D, offset: 0x53C7D, size: 0x8, addend: 0x0, symName: __ZNSt3__116allocator_traitsINS_9allocatorI5MacroEEE9constructB7v160006IS2_JRKS2_EvvEEvRS3_PT_DpOT0_, symObjAddr: 0x87C0, symBinAddr: 0x10000AE20, symSize: 0x30 }
  - { offsetInCU: 0x53CD2, offset: 0x53CD2, size: 0x8, addend: 0x0, symName: __ZNSt3__16vectorI5MacroNS_9allocatorIS1_EEE7__allocB7v160006Ev, symObjAddr: 0x87F0, symBinAddr: 0x10000AE50, symSize: 0x28 }
  - { offsetInCU: 0x53CF8, offset: 0x53CF8, size: 0x8, addend: 0x0, symName: __ZNSt3__16vectorI5MacroNS_9allocatorIS1_EEE21_ConstructTransactionD1B7v160006Ev, symObjAddr: 0x882C, symBinAddr: 0x10000AE8C, symSize: 0x2C }
  - { offsetInCU: 0x53D22, offset: 0x53D22, size: 0x8, addend: 0x0, symName: __ZNSt3__16vectorI5MacroNS_9allocatorIS1_EEE21_ConstructTransactionC2B7v160006ERS4_m, symObjAddr: 0x8858, symBinAddr: 0x10000AEB8, symSize: 0x4C }
  - { offsetInCU: 0x53D6A, offset: 0x53D6A, size: 0x8, addend: 0x0, symName: __ZN5MacroC1ERKS_, symObjAddr: 0x88E0, symBinAddr: 0x10000AF40, symSize: 0x34 }
  - { offsetInCU: 0x53D9F, offset: 0x53D9F, size: 0x8, addend: 0x0, symName: __ZN5MacroC2ERKS_, symObjAddr: 0x8914, symBinAddr: 0x10000AF74, symSize: 0xA8 }
  - { offsetInCU: 0x53DD4, offset: 0x53DD4, size: 0x8, addend: 0x0, symName: __ZNSt3__16vectorINS_12basic_stringIcNS_11char_traitsIcEENS_9allocatorIcEEEENS4_IS6_EEEC1ERKS8_, symObjAddr: 0x89BC, symBinAddr: 0x10000B01C, symSize: 0x34 }
  - { offsetInCU: 0x53E0F, offset: 0x53E0F, size: 0x8, addend: 0x0, symName: __ZNSt3__16vectorINS_12basic_stringIcNS_11char_traitsIcEENS_9allocatorIcEEEENS4_IS6_EEEC2ERKS8_, symObjAddr: 0x89F0, symBinAddr: 0x10000B050, symSize: 0x110 }
  - { offsetInCU: 0x53E6E, offset: 0x53E6E, size: 0x8, addend: 0x0, symName: __ZNSt3__116allocator_traitsINS_9allocatorINS_12basic_stringIcNS_11char_traitsIcEENS1_IcEEEEEEE37select_on_container_copy_constructionB7v160006IS7_vvEES7_RKS7_, symObjAddr: 0x8B00, symBinAddr: 0x10000B160, symSize: 0x10 }
  - { offsetInCU: 0x53EA3, offset: 0x53EA3, size: 0x8, addend: 0x0, symName: __ZNSt3__117__compressed_pairIPNS_12basic_stringIcNS_11char_traitsIcEENS_9allocatorIcEEEENS4_IS6_EEEC1B7v160006IDnS8_EEOT_OT0_, symObjAddr: 0x8B10, symBinAddr: 0x10000B170, symSize: 0x3C }
  - { offsetInCU: 0x53EFB, offset: 0x53EFB, size: 0x8, addend: 0x0, symName: __ZNSt3__16vectorINS_12basic_stringIcNS_11char_traitsIcEENS_9allocatorIcEEEENS4_IS6_EEE11__vallocateB7v160006Em, symObjAddr: 0x8B8C, symBinAddr: 0x10000B1EC, symSize: 0xB4 }
  - { offsetInCU: 0x53F3F, offset: 0x53F3F, size: 0x8, addend: 0x0, symName: __ZNSt3__16vectorINS_12basic_stringIcNS_11char_traitsIcEENS_9allocatorIcEEEENS4_IS6_EEE18__construct_at_endIPS6_Li0EEEvT_SB_m, symObjAddr: 0x8C40, symBinAddr: 0x10000B2A0, symSize: 0x8C }
  - { offsetInCU: 0x53FB2, offset: 0x53FB2, size: 0x8, addend: 0x0, symName: __ZNSt3__128__exception_guard_exceptionsINS_6vectorINS_12basic_stringIcNS_11char_traitsIcEENS_9allocatorIcEEEENS5_IS7_EEE16__destroy_vectorEE10__completeB7v160006Ev, symObjAddr: 0x8CCC, symBinAddr: 0x10000B32C, symSize: 0x1C }
  - { offsetInCU: 0x53FD8, offset: 0x53FD8, size: 0x8, addend: 0x0, symName: __ZNSt3__128__exception_guard_exceptionsINS_6vectorINS_12basic_stringIcNS_11char_traitsIcEENS_9allocatorIcEEEENS5_IS7_EEE16__destroy_vectorEED1B7v160006Ev, symObjAddr: 0x8CE8, symBinAddr: 0x10000B348, symSize: 0x2C }
  - { offsetInCU: 0x54002, offset: 0x54002, size: 0x8, addend: 0x0, symName: __ZNSt3__117__compressed_pairIPNS_12basic_stringIcNS_11char_traitsIcEENS_9allocatorIcEEEENS4_IS6_EEEC2B7v160006IDnS8_EEOT_OT0_, symObjAddr: 0x8D14, symBinAddr: 0x10000B374, symSize: 0x44 }
  - { offsetInCU: 0x5405A, offset: 0x5405A, size: 0x8, addend: 0x0, symName: __ZNSt3__122__compressed_pair_elemINS_9allocatorINS_12basic_stringIcNS_11char_traitsIcEENS1_IcEEEEEELi1ELb1EEC2B7v160006IS7_vEEOT_, symObjAddr: 0x8D58, symBinAddr: 0x10000B3B8, symSize: 0x18 }
  - { offsetInCU: 0x5409C, offset: 0x5409C, size: 0x8, addend: 0x0, symName: __ZNSt3__128__exception_guard_exceptionsINS_6vectorINS_12basic_stringIcNS_11char_traitsIcEENS_9allocatorIcEEEENS5_IS7_EEE16__destroy_vectorEEC1B7v160006ESA_, symObjAddr: 0x8D70, symBinAddr: 0x10000B3D0, symSize: 0x34 }
  - { offsetInCU: 0x540D4, offset: 0x540D4, size: 0x8, addend: 0x0, symName: __ZNSt3__128__exception_guard_exceptionsINS_6vectorINS_12basic_stringIcNS_11char_traitsIcEENS_9allocatorIcEEEENS5_IS7_EEE16__destroy_vectorEEC2B7v160006ESA_, symObjAddr: 0x8DA4, symBinAddr: 0x10000B404, symSize: 0x24 }
  - { offsetInCU: 0x5410C, offset: 0x5410C, size: 0x8, addend: 0x0, symName: __ZNSt3__129_AllocatorDestroyRangeReverseINS_9allocatorINS_12basic_stringIcNS_11char_traitsIcEENS1_IcEEEEEEPS6_EC1B7v160006ERS7_RS8_SB_, symObjAddr: 0x8F08, symBinAddr: 0x10000B568, symSize: 0x44 }
  - { offsetInCU: 0x54163, offset: 0x54163, size: 0x8, addend: 0x0, symName: __ZNSt3__116allocator_traitsINS_9allocatorINS_12basic_stringIcNS_11char_traitsIcEENS1_IcEEEEEEE9constructB7v160006IS6_JRS6_EvvEEvRS7_PT_DpOT0_, symObjAddr: 0x8F4C, symBinAddr: 0x10000B5AC, symSize: 0x30 }
  - { offsetInCU: 0x541B8, offset: 0x541B8, size: 0x8, addend: 0x0, symName: __ZNSt3__128__exception_guard_exceptionsINS_29_AllocatorDestroyRangeReverseINS_9allocatorINS_12basic_stringIcNS_11char_traitsIcEENS2_IcEEEEEEPS7_EEE10__completeB7v160006Ev, symObjAddr: 0x8F7C, symBinAddr: 0x10000B5DC, symSize: 0x1C }
  - { offsetInCU: 0x541DE, offset: 0x541DE, size: 0x8, addend: 0x0, symName: __ZNSt3__128__exception_guard_exceptionsINS_29_AllocatorDestroyRangeReverseINS_9allocatorINS_12basic_stringIcNS_11char_traitsIcEENS2_IcEEEEEEPS7_EEED1B7v160006Ev, symObjAddr: 0x8F98, symBinAddr: 0x10000B5F8, symSize: 0x2C }
  - { offsetInCU: 0x54208, offset: 0x54208, size: 0x8, addend: 0x0, symName: __ZNSt3__128__exception_guard_exceptionsINS_29_AllocatorDestroyRangeReverseINS_9allocatorINS_12basic_stringIcNS_11char_traitsIcEENS2_IcEEEEEEPS7_EEEC1B7v160006ESA_, symObjAddr: 0x8FC4, symBinAddr: 0x10000B624, symSize: 0x34 }
  - { offsetInCU: 0x54241, offset: 0x54241, size: 0x8, addend: 0x0, symName: __ZNSt3__128__exception_guard_exceptionsINS_29_AllocatorDestroyRangeReverseINS_9allocatorINS_12basic_stringIcNS_11char_traitsIcEENS2_IcEEEEEEPS7_EEEC2B7v160006ESA_, symObjAddr: 0x8FF8, symBinAddr: 0x10000B658, symSize: 0x30 }
  - { offsetInCU: 0x5427A, offset: 0x5427A, size: 0x8, addend: 0x0, symName: __ZNSt3__129_AllocatorDestroyRangeReverseINS_9allocatorINS_12basic_stringIcNS_11char_traitsIcEENS1_IcEEEEEEPS6_EC2B7v160006ERS7_RS8_SB_, symObjAddr: 0x9028, symBinAddr: 0x10000B688, symSize: 0x38 }
  - { offsetInCU: 0x542D1, offset: 0x542D1, size: 0x8, addend: 0x0, symName: __ZNSt3__128__exception_guard_exceptionsINS_29_AllocatorDestroyRangeReverseINS_9allocatorINS_12basic_stringIcNS_11char_traitsIcEENS2_IcEEEEEEPS7_EEED2B7v160006Ev, symObjAddr: 0x909C, symBinAddr: 0x10000B6FC, symSize: 0x50 }
  - { offsetInCU: 0x542FB, offset: 0x542FB, size: 0x8, addend: 0x0, symName: __ZNKSt3__129_AllocatorDestroyRangeReverseINS_9allocatorINS_12basic_stringIcNS_11char_traitsIcEENS1_IcEEEEEEPS6_EclB7v160006Ev, symObjAddr: 0x90EC, symBinAddr: 0x10000B74C, symSize: 0x68 }
  - { offsetInCU: 0x54321, offset: 0x54321, size: 0x8, addend: 0x0, symName: __ZNSt3__128__exception_guard_exceptionsINS_6vectorINS_12basic_stringIcNS_11char_traitsIcEENS_9allocatorIcEEEENS5_IS7_EEE16__destroy_vectorEED2B7v160006Ev, symObjAddr: 0x91C4, symBinAddr: 0x10000B824, symSize: 0x50 }
  - { offsetInCU: 0x5434B, offset: 0x5434B, size: 0x8, addend: 0x0, symName: __ZNSt3__117__compressed_pairIP5MacroNS_9allocatorIS1_EEE6secondB7v160006Ev, symObjAddr: 0x9214, symBinAddr: 0x10000B874, symSize: 0x24 }
  - { offsetInCU: 0x54371, offset: 0x54371, size: 0x8, addend: 0x0, symName: __ZNSt3__122__compressed_pair_elemINS_9allocatorI5MacroEELi1ELb1EE5__getB7v160006Ev, symObjAddr: 0x9238, symBinAddr: 0x10000B898, symSize: 0x14 }
  - { offsetInCU: 0x54397, offset: 0x54397, size: 0x8, addend: 0x0, symName: __ZNSt3__16vectorI5MacroNS_9allocatorIS1_EEE21_ConstructTransactionD2B7v160006Ev, symObjAddr: 0x924C, symBinAddr: 0x10000B8AC, symSize: 0x20 }
  - { offsetInCU: 0x543C1, offset: 0x543C1, size: 0x8, addend: 0x0, symName: __ZNKSt3__16vectorI5MacroNS_9allocatorIS1_EEE11__recommendB7v160006Em, symObjAddr: 0x926C, symBinAddr: 0x10000B8CC, symSize: 0xB4 }
  - { offsetInCU: 0x54416, offset: 0x54416, size: 0x8, addend: 0x0, symName: __ZNKSt3__16vectorI5MacroNS_9allocatorIS1_EEE4sizeB7v160006Ev, symObjAddr: 0x9320, symBinAddr: 0x10000B980, symSize: 0x28 }
  - { offsetInCU: 0x5443C, offset: 0x5443C, size: 0x8, addend: 0x0, symName: __ZNSt3__114__split_bufferI5MacroRNS_9allocatorIS1_EEEC1EmmS4_, symObjAddr: 0x9348, symBinAddr: 0x10000B9A8, symSize: 0x44 }
  - { offsetInCU: 0x54492, offset: 0x54492, size: 0x8, addend: 0x0, symName: __ZNSt3__114__split_bufferI5MacroRNS_9allocatorIS1_EEED1Ev, symObjAddr: 0x94A4, symBinAddr: 0x10000BB04, symSize: 0x2C }
  - { offsetInCU: 0x544BE, offset: 0x544BE, size: 0x8, addend: 0x0, symName: __ZNKSt3__16vectorI5MacroNS_9allocatorIS1_EEE8max_sizeEv, symObjAddr: 0x94D0, symBinAddr: 0x10000BB30, symSize: 0x60 }
  - { offsetInCU: 0x544E6, offset: 0x544E6, size: 0x8, addend: 0x0, symName: __ZNKSt3__16vectorI5MacroNS_9allocatorIS1_EEE20__throw_length_errorB7v160006Ev, symObjAddr: 0x9530, symBinAddr: 0x10000BB90, symSize: 0x1C }
  - { offsetInCU: 0x5450C, offset: 0x5450C, size: 0x8, addend: 0x0, symName: __ZNKSt3__16vectorI5MacroNS_9allocatorIS1_EEE8capacityB7v160006Ev, symObjAddr: 0x954C, symBinAddr: 0x10000BBAC, symSize: 0x40 }
  - { offsetInCU: 0x5453D, offset: 0x5453D, size: 0x8, addend: 0x0, symName: __ZNSt3__116allocator_traitsINS_9allocatorI5MacroEEE8max_sizeB7v160006IS3_vvEEmRKS3_, symObjAddr: 0x958C, symBinAddr: 0x10000BBEC, symSize: 0x28 }
  - { offsetInCU: 0x54569, offset: 0x54569, size: 0x8, addend: 0x0, symName: __ZNKSt3__16vectorI5MacroNS_9allocatorIS1_EEE7__allocB7v160006Ev, symObjAddr: 0x95B4, symBinAddr: 0x10000BC14, symSize: 0x28 }
  - { offsetInCU: 0x5458F, offset: 0x5458F, size: 0x8, addend: 0x0, symName: __ZNKSt3__117__compressed_pairIP5MacroNS_9allocatorIS1_EEE6secondB7v160006Ev, symObjAddr: 0x95DC, symBinAddr: 0x10000BC3C, symSize: 0x24 }
  - { offsetInCU: 0x545B5, offset: 0x545B5, size: 0x8, addend: 0x0, symName: __ZNKSt3__122__compressed_pair_elemINS_9allocatorI5MacroEELi1ELb1EE5__getB7v160006Ev, symObjAddr: 0x9600, symBinAddr: 0x10000BC60, symSize: 0x14 }
  - { offsetInCU: 0x545DB, offset: 0x545DB, size: 0x8, addend: 0x0, symName: __ZNKSt3__16vectorI5MacroNS_9allocatorIS1_EEE9__end_capB7v160006Ev, symObjAddr: 0x9614, symBinAddr: 0x10000BC74, symSize: 0x28 }
  - { offsetInCU: 0x54601, offset: 0x54601, size: 0x8, addend: 0x0, symName: __ZNKSt3__117__compressed_pairIP5MacroNS_9allocatorIS1_EEE5firstB7v160006Ev, symObjAddr: 0x963C, symBinAddr: 0x10000BC9C, symSize: 0x24 }
  - { offsetInCU: 0x54627, offset: 0x54627, size: 0x8, addend: 0x0, symName: __ZNKSt3__122__compressed_pair_elemIP5MacroLi0ELb0EE5__getB7v160006Ev, symObjAddr: 0x9660, symBinAddr: 0x10000BCC0, symSize: 0x14 }
  - { offsetInCU: 0x5464D, offset: 0x5464D, size: 0x8, addend: 0x0, symName: __ZNSt3__114__split_bufferI5MacroRNS_9allocatorIS1_EEEC2EmmS4_, symObjAddr: 0x9674, symBinAddr: 0x10000BCD4, symSize: 0xE0 }
  - { offsetInCU: 0x546C1, offset: 0x546C1, size: 0x8, addend: 0x0, symName: __ZNSt3__117__compressed_pairIP5MacroRNS_9allocatorIS1_EEEC1B7v160006IDnS5_EEOT_OT0_, symObjAddr: 0x9754, symBinAddr: 0x10000BDB4, symSize: 0x3C }
  - { offsetInCU: 0x54719, offset: 0x54719, size: 0x8, addend: 0x0, symName: __ZNSt3__114__split_bufferI5MacroRNS_9allocatorIS1_EEE7__allocB7v160006Ev, symObjAddr: 0x97D0, symBinAddr: 0x10000BE30, symSize: 0x28 }
  - { offsetInCU: 0x5473F, offset: 0x5473F, size: 0x8, addend: 0x0, symName: __ZNSt3__114__split_bufferI5MacroRNS_9allocatorIS1_EEE9__end_capB7v160006Ev, symObjAddr: 0x97F8, symBinAddr: 0x10000BE58, symSize: 0x28 }
  - { offsetInCU: 0x54765, offset: 0x54765, size: 0x8, addend: 0x0, symName: __ZNSt3__117__compressed_pairIP5MacroRNS_9allocatorIS1_EEEC2B7v160006IDnS5_EEOT_OT0_, symObjAddr: 0x9820, symBinAddr: 0x10000BE80, symSize: 0x48 }
  - { offsetInCU: 0x547BD, offset: 0x547BD, size: 0x8, addend: 0x0, symName: __ZNSt3__122__compressed_pair_elemIP5MacroLi0ELb0EEC2B7v160006IDnvEEOT_, symObjAddr: 0x9868, symBinAddr: 0x10000BEC8, symSize: 0x1C }
  - { offsetInCU: 0x547FF, offset: 0x547FF, size: 0x8, addend: 0x0, symName: __ZNSt3__122__compressed_pair_elemIRNS_9allocatorI5MacroEELi1ELb0EEC2B7v160006IS4_vEEOT_, symObjAddr: 0x9884, symBinAddr: 0x10000BEE4, symSize: 0x20 }
  - { offsetInCU: 0x54841, offset: 0x54841, size: 0x8, addend: 0x0, symName: __ZNSt3__19allocatorI5MacroE8allocateB7v160006Em, symObjAddr: 0x98A4, symBinAddr: 0x10000BF04, symSize: 0x5C }
  - { offsetInCU: 0x54875, offset: 0x54875, size: 0x8, addend: 0x0, symName: __ZNSt3__117__compressed_pairIP5MacroRNS_9allocatorIS1_EEE6secondB7v160006Ev, symObjAddr: 0x9900, symBinAddr: 0x10000BF60, symSize: 0x28 }
  - { offsetInCU: 0x5489B, offset: 0x5489B, size: 0x8, addend: 0x0, symName: __ZNSt3__122__compressed_pair_elemIRNS_9allocatorI5MacroEELi1ELb0EE5__getB7v160006Ev, symObjAddr: 0x9928, symBinAddr: 0x10000BF88, symSize: 0x18 }
  - { offsetInCU: 0x548C1, offset: 0x548C1, size: 0x8, addend: 0x0, symName: __ZNSt3__117__compressed_pairIP5MacroRNS_9allocatorIS1_EEE5firstB7v160006Ev, symObjAddr: 0x9940, symBinAddr: 0x10000BFA0, symSize: 0x24 }
  - { offsetInCU: 0x548E7, offset: 0x548E7, size: 0x8, addend: 0x0, symName: __ZNKSt3__16vectorI5MacroNS_9allocatorIS1_EEE17__annotate_deleteB7v160006Ev, symObjAddr: 0x9964, symBinAddr: 0x10000BFC4, symSize: 0xD4 }
  - { offsetInCU: 0x5490D, offset: 0x5490D, size: 0x8, addend: 0x0, symName: __ZNSt3__116reverse_iteratorIP5MacroEC1B7v160006ES2_, symObjAddr: 0x9B64, symBinAddr: 0x10000C1C4, symSize: 0x34 }
  - { offsetInCU: 0x54945, offset: 0x54945, size: 0x8, addend: 0x0, symName: __ZNKSt3__116reverse_iteratorIP5MacroE4baseB7v160006Ev, symObjAddr: 0x9B98, symBinAddr: 0x10000C1F8, symSize: 0x18 }
  - { offsetInCU: 0x5496B, offset: 0x5496B, size: 0x8, addend: 0x0, symName: __ZNKSt3__16vectorI5MacroNS_9allocatorIS1_EEE14__annotate_newB7v160006Em, symObjAddr: 0x9BEC, symBinAddr: 0x10000C24C, symSize: 0xC8 }
  - { offsetInCU: 0x549A0, offset: 0x549A0, size: 0x8, addend: 0x0, symName: __ZNKSt3__16vectorI5MacroNS_9allocatorIS1_EEE31__annotate_contiguous_containerB7v160006EPKvS6_S6_S6_, symObjAddr: 0x9CC4, symBinAddr: 0x10000C324, symSize: 0x20 }
  - { offsetInCU: 0x549F6, offset: 0x549F6, size: 0x8, addend: 0x0, symName: __ZNKSt3__16vectorI5MacroNS_9allocatorIS1_EEE4dataB7v160006Ev, symObjAddr: 0x9CE4, symBinAddr: 0x10000C344, symSize: 0x28 }
  - { offsetInCU: 0x54A1C, offset: 0x54A1C, size: 0x8, addend: 0x0, symName: __ZNSt3__129_AllocatorDestroyRangeReverseINS_9allocatorI5MacroEENS_16reverse_iteratorIPS2_EEEC1B7v160006ERS3_RS6_S9_, symObjAddr: 0x9D58, symBinAddr: 0x10000C3B8, symSize: 0x44 }
  - { offsetInCU: 0x54A79, offset: 0x54A79, size: 0x8, addend: 0x0, symName: __ZNSt3__116allocator_traitsINS_9allocatorI5MacroEEE9constructB7v160006IS2_JS2_EvvEEvRS3_PT_DpOT0_, symObjAddr: 0x9DE4, symBinAddr: 0x10000C444, symSize: 0x30 }
  - { offsetInCU: 0x54ACE, offset: 0x54ACE, size: 0x8, addend: 0x0, symName: __ZNKSt3__116reverse_iteratorIP5MacroEdeB7v160006Ev, symObjAddr: 0x9E38, symBinAddr: 0x10000C498, symSize: 0x28 }
  - { offsetInCU: 0x54B02, offset: 0x54B02, size: 0x8, addend: 0x0, symName: __ZNSt3__116reverse_iteratorIP5MacroEppB7v160006Ev, symObjAddr: 0x9E60, symBinAddr: 0x10000C4C0, symSize: 0x20 }
  - { offsetInCU: 0x54B28, offset: 0x54B28, size: 0x8, addend: 0x0, symName: __ZNSt3__128__exception_guard_exceptionsINS_29_AllocatorDestroyRangeReverseINS_9allocatorI5MacroEENS_16reverse_iteratorIPS3_EEEEE10__completeB7v160006Ev, symObjAddr: 0x9E80, symBinAddr: 0x10000C4E0, symSize: 0x1C }
  - { offsetInCU: 0x54B4E, offset: 0x54B4E, size: 0x8, addend: 0x0, symName: __ZNSt3__128__exception_guard_exceptionsINS_29_AllocatorDestroyRangeReverseINS_9allocatorI5MacroEENS_16reverse_iteratorIPS3_EEEEED1B7v160006Ev, symObjAddr: 0x9E9C, symBinAddr: 0x10000C4FC, symSize: 0x2C }
  - { offsetInCU: 0x54B78, offset: 0x54B78, size: 0x8, addend: 0x0, symName: __ZNSt3__128__exception_guard_exceptionsINS_29_AllocatorDestroyRangeReverseINS_9allocatorI5MacroEENS_16reverse_iteratorIPS3_EEEEEC1B7v160006ES8_, symObjAddr: 0x9EC8, symBinAddr: 0x10000C528, symSize: 0x34 }
  - { offsetInCU: 0x54BB1, offset: 0x54BB1, size: 0x8, addend: 0x0, symName: __ZNSt3__128__exception_guard_exceptionsINS_29_AllocatorDestroyRangeReverseINS_9allocatorI5MacroEENS_16reverse_iteratorIPS3_EEEEEC2B7v160006ES8_, symObjAddr: 0x9EFC, symBinAddr: 0x10000C55C, symSize: 0x30 }
  - { offsetInCU: 0x54BEA, offset: 0x54BEA, size: 0x8, addend: 0x0, symName: __ZNSt3__129_AllocatorDestroyRangeReverseINS_9allocatorI5MacroEENS_16reverse_iteratorIPS2_EEEC2B7v160006ERS3_RS6_S9_, symObjAddr: 0x9F2C, symBinAddr: 0x10000C58C, symSize: 0x38 }
  - { offsetInCU: 0x54C41, offset: 0x54C41, size: 0x8, addend: 0x0, symName: __ZN5MacroC1EOS_, symObjAddr: 0x9FA0, symBinAddr: 0x10000C600, symSize: 0x34 }
  - { offsetInCU: 0x54C76, offset: 0x54C76, size: 0x8, addend: 0x0, symName: __ZN5MacroC2EOS_, symObjAddr: 0x9FD4, symBinAddr: 0x10000C634, symSize: 0x5C }
  - { offsetInCU: 0x54CAB, offset: 0x54CAB, size: 0x8, addend: 0x0, symName: __ZNSt3__16vectorINS_12basic_stringIcNS_11char_traitsIcEENS_9allocatorIcEEEENS4_IS6_EEEC1B7v160006EOS8_, symObjAddr: 0xA030, symBinAddr: 0x10000C690, symSize: 0x34 }
  - { offsetInCU: 0x54CE6, offset: 0x54CE6, size: 0x8, addend: 0x0, symName: __ZNSt3__16vectorINS_12basic_stringIcNS_11char_traitsIcEENS_9allocatorIcEEEENS4_IS6_EEEC2B7v160006EOS8_, symObjAddr: 0xA064, symBinAddr: 0x10000C6C4, symSize: 0xDC }
  - { offsetInCU: 0x54D27, offset: 0x54D27, size: 0x8, addend: 0x0, symName: __ZNSt3__119__to_address_helperINS_16reverse_iteratorIP5MacroEEvE6__callB7v160006ERKS4_, symObjAddr: 0xA154, symBinAddr: 0x10000C7B4, symSize: 0x38 }
  - { offsetInCU: 0x54D4A, offset: 0x54D4A, size: 0x8, addend: 0x0, symName: __ZNKSt3__116reverse_iteratorIP5MacroEptB7v160006Ev, symObjAddr: 0xA18C, symBinAddr: 0x10000C7EC, symSize: 0x2C }
  - { offsetInCU: 0x54D70, offset: 0x54D70, size: 0x8, addend: 0x0, symName: __ZNSt3__128__exception_guard_exceptionsINS_29_AllocatorDestroyRangeReverseINS_9allocatorI5MacroEENS_16reverse_iteratorIPS3_EEEEED2B7v160006Ev, symObjAddr: 0xA288, symBinAddr: 0x10000C8E8, symSize: 0x50 }
  - { offsetInCU: 0x54D9A, offset: 0x54D9A, size: 0x8, addend: 0x0, symName: __ZNKSt3__129_AllocatorDestroyRangeReverseINS_9allocatorI5MacroEENS_16reverse_iteratorIPS2_EEEclB7v160006Ev, symObjAddr: 0xA2D8, symBinAddr: 0x10000C938, symSize: 0xB4 }
  - { offsetInCU: 0x54DC1, offset: 0x54DC1, size: 0x8, addend: 0x0, symName: __ZNSt3__116reverse_iteratorINS0_IP5MacroEEEC1B7v160006ES3_, symObjAddr: 0xA3FC, symBinAddr: 0x10000CA5C, symSize: 0x3C }
  - { offsetInCU: 0x54DF9, offset: 0x54DF9, size: 0x8, addend: 0x0, symName: __ZNSt3__116allocator_traitsINS_9allocatorI5MacroEEE7destroyB7v160006IS2_vvEEvRS3_PT_, symObjAddr: 0xA498, symBinAddr: 0x10000CAF8, symSize: 0x28 }
  - { offsetInCU: 0x54E34, offset: 0x54E34, size: 0x8, addend: 0x0, symName: __ZNSt3__116reverse_iteratorINS0_IP5MacroEEEppB7v160006Ev, symObjAddr: 0xA4E4, symBinAddr: 0x10000CB44, symSize: 0x30 }
  - { offsetInCU: 0x54E5A, offset: 0x54E5A, size: 0x8, addend: 0x0, symName: __ZNKSt3__116reverse_iteratorINS0_IP5MacroEEE4baseB7v160006Ev, symObjAddr: 0xA514, symBinAddr: 0x10000CB74, symSize: 0x24 }
  - { offsetInCU: 0x54E86, offset: 0x54E86, size: 0x8, addend: 0x0, symName: __ZNSt3__119__to_address_helperINS_16reverse_iteratorINS1_IP5MacroEEEEvE6__callB7v160006ERKS5_, symObjAddr: 0xA580, symBinAddr: 0x10000CBE0, symSize: 0x38 }
  - { offsetInCU: 0x54EA9, offset: 0x54EA9, size: 0x8, addend: 0x0, symName: __ZNKSt3__116reverse_iteratorINS0_IP5MacroEEEptB7v160006Ev, symObjAddr: 0xA5B8, symBinAddr: 0x10000CC18, symSize: 0x4C }
  - { offsetInCU: 0x54ECF, offset: 0x54ECF, size: 0x8, addend: 0x0, symName: __ZNSt3__116reverse_iteratorIP5MacroEpLB7v160006El, symObjAddr: 0xA6E0, symBinAddr: 0x10000CD40, symSize: 0x30 }
  - { offsetInCU: 0x54F03, offset: 0x54F03, size: 0x8, addend: 0x0, symName: __ZNSt3__116reverse_iteratorIP5MacroEmmB7v160006Ev, symObjAddr: 0xA710, symBinAddr: 0x10000CD70, symSize: 0x20 }
  - { offsetInCU: 0x54F29, offset: 0x54F29, size: 0x8, addend: 0x0, symName: __ZNSt3__116reverse_iteratorINS0_IP5MacroEEEC2B7v160006ES3_, symObjAddr: 0xA730, symBinAddr: 0x10000CD90, symSize: 0x2C }
  - { offsetInCU: 0x54F61, offset: 0x54F61, size: 0x8, addend: 0x0, symName: __ZNSt3__116reverse_iteratorIP5MacroEC2B7v160006ES2_, symObjAddr: 0xA75C, symBinAddr: 0x10000CDBC, symSize: 0x28 }
  - { offsetInCU: 0x54F99, offset: 0x54F99, size: 0x8, addend: 0x0, symName: __ZNSt3__114__split_bufferI5MacroRNS_9allocatorIS1_EEED2Ev, symObjAddr: 0xA784, symBinAddr: 0x10000CDE4, symSize: 0x8C }
  - { offsetInCU: 0x54FC5, offset: 0x54FC5, size: 0x8, addend: 0x0, symName: __ZNSt3__114__split_bufferI5MacroRNS_9allocatorIS1_EEE5clearB7v160006Ev, symObjAddr: 0xA810, symBinAddr: 0x10000CE70, symSize: 0x28 }
  - { offsetInCU: 0x54FEB, offset: 0x54FEB, size: 0x8, addend: 0x0, symName: __ZNSt3__116allocator_traitsINS_9allocatorI5MacroEEE10deallocateB7v160006ERS3_PS2_m, symObjAddr: 0xA838, symBinAddr: 0x10000CE98, symSize: 0x34 }
  - { offsetInCU: 0x5502D, offset: 0x5502D, size: 0x8, addend: 0x0, symName: __ZNKSt3__114__split_bufferI5MacroRNS_9allocatorIS1_EEE8capacityB7v160006Ev, symObjAddr: 0xA86C, symBinAddr: 0x10000CECC, symSize: 0x40 }
  - { offsetInCU: 0x55053, offset: 0x55053, size: 0x8, addend: 0x0, symName: __ZNSt3__114__split_bufferI5MacroRNS_9allocatorIS1_EEE17__destruct_at_endB7v160006EPS1_, symObjAddr: 0xA8AC, symBinAddr: 0x10000CF0C, symSize: 0x2C }
  - { offsetInCU: 0x55087, offset: 0x55087, size: 0x8, addend: 0x0, symName: __ZNSt3__114__split_bufferI5MacroRNS_9allocatorIS1_EEE17__destruct_at_endB7v160006EPS1_NS_17integral_constantIbLb0EEE, symObjAddr: 0xA8D8, symBinAddr: 0x10000CF38, symSize: 0x80 }
  - { offsetInCU: 0x550C7, offset: 0x550C7, size: 0x8, addend: 0x0, symName: __ZNSt3__19allocatorI5MacroE10deallocateB7v160006EPS1_m, symObjAddr: 0xA958, symBinAddr: 0x10000CFB8, symSize: 0x44 }
  - { offsetInCU: 0x55109, offset: 0x55109, size: 0x8, addend: 0x0, symName: __ZNKSt3__114__split_bufferI5MacroRNS_9allocatorIS1_EEE9__end_capB7v160006Ev, symObjAddr: 0xA99C, symBinAddr: 0x10000CFFC, symSize: 0x28 }
  - { offsetInCU: 0x5512F, offset: 0x5512F, size: 0x8, addend: 0x0, symName: __ZNKSt3__117__compressed_pairIP5MacroRNS_9allocatorIS1_EEE5firstB7v160006Ev, symObjAddr: 0xA9C4, symBinAddr: 0x10000D024, symSize: 0x24 }
  - { offsetInCU: 0x55155, offset: 0x55155, size: 0x8, addend: 0x0, symName: __ZN5MacroD2Ev, symObjAddr: 0xA9E8, symBinAddr: 0x10000D048, symSize: 0x44 }
  - { offsetInCU: 0x55181, offset: 0x55181, size: 0x8, addend: 0x0, symName: __ZN11TargetRulesC2Ev, symObjAddr: 0xAA2C, symBinAddr: 0x10000D08C, symSize: 0x44 }
  - { offsetInCU: 0x551AD, offset: 0x551AD, size: 0x8, addend: 0x0, symName: __ZNKSt3__112basic_stringIcNS_11char_traitsIcEENS_9allocatorIcEEE15__get_long_sizeB7v160006Ev, symObjAddr: 0xAA70, symBinAddr: 0x10000D0D0, symSize: 0x28 }
  - { offsetInCU: 0x551D3, offset: 0x551D3, size: 0x8, addend: 0x0, symName: __ZNKSt3__112basic_stringIcNS_11char_traitsIcEENS_9allocatorIcEEE16__get_short_sizeB7v160006Ev, symObjAddr: 0xAA98, symBinAddr: 0x10000D0F8, symSize: 0x34 }
  - { offsetInCU: 0x551F9, offset: 0x551F9, size: 0x8, addend: 0x0, symName: __ZNSt3__112basic_stringIcNS_11char_traitsIcEENS_9allocatorIcEEE13__move_assignB7v160006ERS5_NS_17integral_constantIbLb1EEE, symObjAddr: 0xAACC, symBinAddr: 0x10000D12C, symSize: 0xC8 }
  - { offsetInCU: 0x5523C, offset: 0x5523C, size: 0x8, addend: 0x0, symName: __ZNSt3__116allocator_traitsINS_9allocatorIcEEE10deallocateB7v160006ERS2_Pcm, symObjAddr: 0xAB94, symBinAddr: 0x10000D1F4, symSize: 0x34 }
  - { offsetInCU: 0x5527E, offset: 0x5527E, size: 0x8, addend: 0x0, symName: __ZNSt3__112basic_stringIcNS_11char_traitsIcEENS_9allocatorIcEEE7__allocB7v160006Ev, symObjAddr: 0xABC8, symBinAddr: 0x10000D228, symSize: 0x24 }
  - { offsetInCU: 0x552A4, offset: 0x552A4, size: 0x8, addend: 0x0, symName: __ZNSt3__112basic_stringIcNS_11char_traitsIcEENS_9allocatorIcEEE18__get_long_pointerB7v160006Ev, symObjAddr: 0xABEC, symBinAddr: 0x10000D24C, symSize: 0x28 }
  - { offsetInCU: 0x552CA, offset: 0x552CA, size: 0x8, addend: 0x0, symName: __ZNKSt3__112basic_stringIcNS_11char_traitsIcEENS_9allocatorIcEEE14__get_long_capB7v160006Ev, symObjAddr: 0xAC14, symBinAddr: 0x10000D274, symSize: 0x30 }
  - { offsetInCU: 0x552F0, offset: 0x552F0, size: 0x8, addend: 0x0, symName: __ZNSt3__112basic_stringIcNS_11char_traitsIcEENS_9allocatorIcEEE19__move_assign_allocB7v160006ERS5_, symObjAddr: 0xAC44, symBinAddr: 0x10000D2A4, symSize: 0x2C }
  - { offsetInCU: 0x55325, offset: 0x55325, size: 0x8, addend: 0x0, symName: __ZNSt3__112basic_stringIcNS_11char_traitsIcEENS_9allocatorIcEEE16__set_short_sizeB7v160006Em, symObjAddr: 0xAC70, symBinAddr: 0x10000D2D0, symSize: 0x78 }
  - { offsetInCU: 0x5535A, offset: 0x5535A, size: 0x8, addend: 0x0, symName: __ZNSt3__111char_traitsIcE6assignERcRKc, symObjAddr: 0xACE8, symBinAddr: 0x10000D348, symSize: 0x24 }
  - { offsetInCU: 0x5538B, offset: 0x5538B, size: 0x8, addend: 0x0, symName: __ZNSt3__112basic_stringIcNS_11char_traitsIcEENS_9allocatorIcEEE19__get_short_pointerB7v160006Ev, symObjAddr: 0xAD0C, symBinAddr: 0x10000D36C, symSize: 0x28 }
  - { offsetInCU: 0x553B1, offset: 0x553B1, size: 0x8, addend: 0x0, symName: __ZNSt3__19allocatorIcE10deallocateB7v160006EPcm, symObjAddr: 0xAD34, symBinAddr: 0x10000D394, symSize: 0x40 }
  - { offsetInCU: 0x553F3, offset: 0x553F3, size: 0x8, addend: 0x0, symName: __ZNSt3__117__compressed_pairINS_12basic_stringIcNS_11char_traitsIcEENS_9allocatorIcEEE5__repES5_E6secondB7v160006Ev, symObjAddr: 0xAD74, symBinAddr: 0x10000D3D4, symSize: 0x24 }
  - { offsetInCU: 0x55419, offset: 0x55419, size: 0x8, addend: 0x0, symName: __ZNSt3__122__compressed_pair_elemINS_9allocatorIcEELi1ELb1EE5__getB7v160006Ev, symObjAddr: 0xAD98, symBinAddr: 0x10000D3F8, symSize: 0x14 }
  - { offsetInCU: 0x5543F, offset: 0x5543F, size: 0x8, addend: 0x0, symName: __ZNSt3__112basic_stringIcNS_11char_traitsIcEENS_9allocatorIcEEE19__move_assign_allocB7v160006ERS5_NS_17integral_constantIbLb1EEE, symObjAddr: 0xADAC, symBinAddr: 0x10000D40C, symSize: 0x38 }
  - { offsetInCU: 0x55480, offset: 0x55480, size: 0x8, addend: 0x0, symName: __ZNSt3__114pointer_traitsIPcE10pointer_toB7v160006ERc, symObjAddr: 0xADE4, symBinAddr: 0x10000D444, symSize: 0x14 }
  - { offsetInCU: 0x554A3, offset: 0x554A3, size: 0x8, addend: 0x0, symName: __ZNSt3__16vectorI11TargetRulesNS_9allocatorIS1_EEE9__end_capB7v160006Ev, symObjAddr: 0xADF8, symBinAddr: 0x10000D458, symSize: 0x28 }
  - { offsetInCU: 0x554C9, offset: 0x554C9, size: 0x8, addend: 0x0, symName: __ZNSt3__16vectorI11TargetRulesNS_9allocatorIS1_EEE22__construct_one_at_endB7v160006IJRKS1_EEEvDpOT_, symObjAddr: 0xAE20, symBinAddr: 0x10000D480, symSize: 0x90 }
  - { offsetInCU: 0x55518, offset: 0x55518, size: 0x8, addend: 0x0, symName: __ZNSt3__16vectorI11TargetRulesNS_9allocatorIS1_EEE21__push_back_slow_pathIRKS1_EEvOT_, symObjAddr: 0xAEB0, symBinAddr: 0x10000D510, symSize: 0xD8 }
  - { offsetInCU: 0x55576, offset: 0x55576, size: 0x8, addend: 0x0, symName: __ZNSt3__117__compressed_pairIP11TargetRulesNS_9allocatorIS1_EEE5firstB7v160006Ev, symObjAddr: 0xAF88, symBinAddr: 0x10000D5E8, symSize: 0x24 }
  - { offsetInCU: 0x5559C, offset: 0x5559C, size: 0x8, addend: 0x0, symName: __ZNSt3__122__compressed_pair_elemIP11TargetRulesLi0ELb0EE5__getB7v160006Ev, symObjAddr: 0xAFAC, symBinAddr: 0x10000D60C, symSize: 0x14 }
  - { offsetInCU: 0x555DE, offset: 0x555DE, size: 0x8, addend: 0x0, symName: __ZNSt3__16vectorI11TargetRulesNS_9allocatorIS1_EEE21_ConstructTransactionC1B7v160006ERS4_m, symObjAddr: 0xAFC0, symBinAddr: 0x10000D620, symSize: 0x3C }
  - { offsetInCU: 0x55626, offset: 0x55626, size: 0x8, addend: 0x0, symName: __ZNSt3__116allocator_traitsINS_9allocatorI11TargetRulesEEE9constructB7v160006IS2_JRKS2_EvvEEvRS3_PT_DpOT0_, symObjAddr: 0xAFFC, symBinAddr: 0x10000D65C, symSize: 0x30 }
  - { offsetInCU: 0x5567B, offset: 0x5567B, size: 0x8, addend: 0x0, symName: __ZNSt3__16vectorI11TargetRulesNS_9allocatorIS1_EEE7__allocB7v160006Ev, symObjAddr: 0xB02C, symBinAddr: 0x10000D68C, symSize: 0x28 }
  - { offsetInCU: 0x556A1, offset: 0x556A1, size: 0x8, addend: 0x0, symName: __ZNSt3__16vectorI11TargetRulesNS_9allocatorIS1_EEE21_ConstructTransactionD1B7v160006Ev, symObjAddr: 0xB068, symBinAddr: 0x10000D6C8, symSize: 0x2C }
  - { offsetInCU: 0x556CB, offset: 0x556CB, size: 0x8, addend: 0x0, symName: __ZNSt3__16vectorI11TargetRulesNS_9allocatorIS1_EEE21_ConstructTransactionC2B7v160006ERS4_m, symObjAddr: 0xB094, symBinAddr: 0x10000D6F4, symSize: 0x4C }
  - { offsetInCU: 0x55713, offset: 0x55713, size: 0x8, addend: 0x0, symName: __ZNSt3__117__compressed_pairIP11TargetRulesNS_9allocatorIS1_EEE6secondB7v160006Ev, symObjAddr: 0xB11C, symBinAddr: 0x10000D77C, symSize: 0x24 }
  - { offsetInCU: 0x55739, offset: 0x55739, size: 0x8, addend: 0x0, symName: __ZNSt3__122__compressed_pair_elemINS_9allocatorI11TargetRulesEELi1ELb1EE5__getB7v160006Ev, symObjAddr: 0xB140, symBinAddr: 0x10000D7A0, symSize: 0x14 }
  - { offsetInCU: 0x5575F, offset: 0x5575F, size: 0x8, addend: 0x0, symName: __ZNSt3__16vectorI11TargetRulesNS_9allocatorIS1_EEE21_ConstructTransactionD2B7v160006Ev, symObjAddr: 0xB154, symBinAddr: 0x10000D7B4, symSize: 0x20 }
  - { offsetInCU: 0x55789, offset: 0x55789, size: 0x8, addend: 0x0, symName: __ZNKSt3__16vectorI11TargetRulesNS_9allocatorIS1_EEE11__recommendB7v160006Em, symObjAddr: 0xB174, symBinAddr: 0x10000D7D4, symSize: 0xB4 }
  - { offsetInCU: 0x557DE, offset: 0x557DE, size: 0x8, addend: 0x0, symName: __ZNKSt3__16vectorI11TargetRulesNS_9allocatorIS1_EEE4sizeB7v160006Ev, symObjAddr: 0xB228, symBinAddr: 0x10000D888, symSize: 0x28 }
  - { offsetInCU: 0x55804, offset: 0x55804, size: 0x8, addend: 0x0, symName: __ZNSt3__114__split_bufferI11TargetRulesRNS_9allocatorIS1_EEEC1EmmS4_, symObjAddr: 0xB250, symBinAddr: 0x10000D8B0, symSize: 0x44 }
  - { offsetInCU: 0x5585A, offset: 0x5585A, size: 0x8, addend: 0x0, symName: __ZNSt3__114__split_bufferI11TargetRulesRNS_9allocatorIS1_EEED1Ev, symObjAddr: 0xB3AC, symBinAddr: 0x10000DA0C, symSize: 0x2C }
  - { offsetInCU: 0x55886, offset: 0x55886, size: 0x8, addend: 0x0, symName: __ZNKSt3__16vectorI11TargetRulesNS_9allocatorIS1_EEE8max_sizeEv, symObjAddr: 0xB3D8, symBinAddr: 0x10000DA38, symSize: 0x60 }
  - { offsetInCU: 0x558AE, offset: 0x558AE, size: 0x8, addend: 0x0, symName: __ZNKSt3__16vectorI11TargetRulesNS_9allocatorIS1_EEE20__throw_length_errorB7v160006Ev, symObjAddr: 0xB438, symBinAddr: 0x10000DA98, symSize: 0x1C }
  - { offsetInCU: 0x558D4, offset: 0x558D4, size: 0x8, addend: 0x0, symName: __ZNKSt3__16vectorI11TargetRulesNS_9allocatorIS1_EEE8capacityB7v160006Ev, symObjAddr: 0xB454, symBinAddr: 0x10000DAB4, symSize: 0x40 }
  - { offsetInCU: 0x55905, offset: 0x55905, size: 0x8, addend: 0x0, symName: __ZNSt3__116allocator_traitsINS_9allocatorI11TargetRulesEEE8max_sizeB7v160006IS3_vvEEmRKS3_, symObjAddr: 0xB494, symBinAddr: 0x10000DAF4, symSize: 0x28 }
  - { offsetInCU: 0x55931, offset: 0x55931, size: 0x8, addend: 0x0, symName: __ZNKSt3__16vectorI11TargetRulesNS_9allocatorIS1_EEE7__allocB7v160006Ev, symObjAddr: 0xB4BC, symBinAddr: 0x10000DB1C, symSize: 0x28 }
  - { offsetInCU: 0x55957, offset: 0x55957, size: 0x8, addend: 0x0, symName: __ZNKSt3__117__compressed_pairIP11TargetRulesNS_9allocatorIS1_EEE6secondB7v160006Ev, symObjAddr: 0xB4E4, symBinAddr: 0x10000DB44, symSize: 0x24 }
  - { offsetInCU: 0x5597D, offset: 0x5597D, size: 0x8, addend: 0x0, symName: __ZNKSt3__122__compressed_pair_elemINS_9allocatorI11TargetRulesEELi1ELb1EE5__getB7v160006Ev, symObjAddr: 0xB508, symBinAddr: 0x10000DB68, symSize: 0x14 }
  - { offsetInCU: 0x559A3, offset: 0x559A3, size: 0x8, addend: 0x0, symName: __ZNKSt3__16vectorI11TargetRulesNS_9allocatorIS1_EEE9__end_capB7v160006Ev, symObjAddr: 0xB51C, symBinAddr: 0x10000DB7C, symSize: 0x28 }
  - { offsetInCU: 0x559C9, offset: 0x559C9, size: 0x8, addend: 0x0, symName: __ZNKSt3__117__compressed_pairIP11TargetRulesNS_9allocatorIS1_EEE5firstB7v160006Ev, symObjAddr: 0xB544, symBinAddr: 0x10000DBA4, symSize: 0x24 }
  - { offsetInCU: 0x559EF, offset: 0x559EF, size: 0x8, addend: 0x0, symName: __ZNKSt3__122__compressed_pair_elemIP11TargetRulesLi0ELb0EE5__getB7v160006Ev, symObjAddr: 0xB568, symBinAddr: 0x10000DBC8, symSize: 0x14 }
  - { offsetInCU: 0x55A15, offset: 0x55A15, size: 0x8, addend: 0x0, symName: __ZNSt3__114__split_bufferI11TargetRulesRNS_9allocatorIS1_EEEC2EmmS4_, symObjAddr: 0xB57C, symBinAddr: 0x10000DBDC, symSize: 0xE0 }
  - { offsetInCU: 0x55A89, offset: 0x55A89, size: 0x8, addend: 0x0, symName: __ZNSt3__117__compressed_pairIP11TargetRulesRNS_9allocatorIS1_EEEC1B7v160006IDnS5_EEOT_OT0_, symObjAddr: 0xB65C, symBinAddr: 0x10000DCBC, symSize: 0x3C }
  - { offsetInCU: 0x55AE1, offset: 0x55AE1, size: 0x8, addend: 0x0, symName: __ZNSt3__114__split_bufferI11TargetRulesRNS_9allocatorIS1_EEE7__allocB7v160006Ev, symObjAddr: 0xB6D8, symBinAddr: 0x10000DD38, symSize: 0x28 }
  - { offsetInCU: 0x55B07, offset: 0x55B07, size: 0x8, addend: 0x0, symName: __ZNSt3__114__split_bufferI11TargetRulesRNS_9allocatorIS1_EEE9__end_capB7v160006Ev, symObjAddr: 0xB700, symBinAddr: 0x10000DD60, symSize: 0x28 }
  - { offsetInCU: 0x55B2D, offset: 0x55B2D, size: 0x8, addend: 0x0, symName: __ZNSt3__117__compressed_pairIP11TargetRulesRNS_9allocatorIS1_EEEC2B7v160006IDnS5_EEOT_OT0_, symObjAddr: 0xB728, symBinAddr: 0x10000DD88, symSize: 0x48 }
  - { offsetInCU: 0x55B85, offset: 0x55B85, size: 0x8, addend: 0x0, symName: __ZNSt3__122__compressed_pair_elemIP11TargetRulesLi0ELb0EEC2B7v160006IDnvEEOT_, symObjAddr: 0xB770, symBinAddr: 0x10000DDD0, symSize: 0x1C }
  - { offsetInCU: 0x55BC7, offset: 0x55BC7, size: 0x8, addend: 0x0, symName: __ZNSt3__122__compressed_pair_elemIRNS_9allocatorI11TargetRulesEELi1ELb0EEC2B7v160006IS4_vEEOT_, symObjAddr: 0xB78C, symBinAddr: 0x10000DDEC, symSize: 0x20 }
  - { offsetInCU: 0x55C09, offset: 0x55C09, size: 0x8, addend: 0x0, symName: __ZNSt3__19allocatorI11TargetRulesE8allocateB7v160006Em, symObjAddr: 0xB7AC, symBinAddr: 0x10000DE0C, symSize: 0x5C }
  - { offsetInCU: 0x55C3D, offset: 0x55C3D, size: 0x8, addend: 0x0, symName: __ZNSt3__117__compressed_pairIP11TargetRulesRNS_9allocatorIS1_EEE6secondB7v160006Ev, symObjAddr: 0xB808, symBinAddr: 0x10000DE68, symSize: 0x28 }
  - { offsetInCU: 0x55C63, offset: 0x55C63, size: 0x8, addend: 0x0, symName: __ZNSt3__122__compressed_pair_elemIRNS_9allocatorI11TargetRulesEELi1ELb0EE5__getB7v160006Ev, symObjAddr: 0xB830, symBinAddr: 0x10000DE90, symSize: 0x18 }
  - { offsetInCU: 0x55C89, offset: 0x55C89, size: 0x8, addend: 0x0, symName: __ZNSt3__117__compressed_pairIP11TargetRulesRNS_9allocatorIS1_EEE5firstB7v160006Ev, symObjAddr: 0xB848, symBinAddr: 0x10000DEA8, symSize: 0x24 }
  - { offsetInCU: 0x55CAF, offset: 0x55CAF, size: 0x8, addend: 0x0, symName: __ZNKSt3__16vectorI11TargetRulesNS_9allocatorIS1_EEE17__annotate_deleteB7v160006Ev, symObjAddr: 0xB86C, symBinAddr: 0x10000DECC, symSize: 0xD4 }
  - { offsetInCU: 0x55CD5, offset: 0x55CD5, size: 0x8, addend: 0x0, symName: __ZNSt3__116reverse_iteratorIP11TargetRulesEC1B7v160006ES2_, symObjAddr: 0xBA6C, symBinAddr: 0x10000E0CC, symSize: 0x34 }
  - { offsetInCU: 0x55D0D, offset: 0x55D0D, size: 0x8, addend: 0x0, symName: __ZNKSt3__116reverse_iteratorIP11TargetRulesE4baseB7v160006Ev, symObjAddr: 0xBAA0, symBinAddr: 0x10000E100, symSize: 0x18 }
  - { offsetInCU: 0x55D33, offset: 0x55D33, size: 0x8, addend: 0x0, symName: __ZNKSt3__16vectorI11TargetRulesNS_9allocatorIS1_EEE14__annotate_newB7v160006Em, symObjAddr: 0xBAF4, symBinAddr: 0x10000E154, symSize: 0xC8 }
  - { offsetInCU: 0x55D68, offset: 0x55D68, size: 0x8, addend: 0x0, symName: __ZNKSt3__16vectorI11TargetRulesNS_9allocatorIS1_EEE31__annotate_contiguous_containerB7v160006EPKvS6_S6_S6_, symObjAddr: 0xBBCC, symBinAddr: 0x10000E22C, symSize: 0x20 }
  - { offsetInCU: 0x55DBE, offset: 0x55DBE, size: 0x8, addend: 0x0, symName: __ZNKSt3__16vectorI11TargetRulesNS_9allocatorIS1_EEE4dataB7v160006Ev, symObjAddr: 0xBBEC, symBinAddr: 0x10000E24C, symSize: 0x28 }
  - { offsetInCU: 0x55DE4, offset: 0x55DE4, size: 0x8, addend: 0x0, symName: __ZNSt3__129_AllocatorDestroyRangeReverseINS_9allocatorI11TargetRulesEENS_16reverse_iteratorIPS2_EEEC1B7v160006ERS3_RS6_S9_, symObjAddr: 0xBC60, symBinAddr: 0x10000E2C0, symSize: 0x44 }
  - { offsetInCU: 0x55E3B, offset: 0x55E3B, size: 0x8, addend: 0x0, symName: __ZNSt3__116allocator_traitsINS_9allocatorI11TargetRulesEEE9constructB7v160006IS2_JS2_EvvEEvRS3_PT_DpOT0_, symObjAddr: 0xBCEC, symBinAddr: 0x10000E34C, symSize: 0x30 }
  - { offsetInCU: 0x55E90, offset: 0x55E90, size: 0x8, addend: 0x0, symName: __ZNKSt3__116reverse_iteratorIP11TargetRulesEdeB7v160006Ev, symObjAddr: 0xBD40, symBinAddr: 0x10000E3A0, symSize: 0x28 }
  - { offsetInCU: 0x55EC4, offset: 0x55EC4, size: 0x8, addend: 0x0, symName: __ZNSt3__116reverse_iteratorIP11TargetRulesEppB7v160006Ev, symObjAddr: 0xBD68, symBinAddr: 0x10000E3C8, symSize: 0x20 }
  - { offsetInCU: 0x55EEA, offset: 0x55EEA, size: 0x8, addend: 0x0, symName: __ZNSt3__128__exception_guard_exceptionsINS_29_AllocatorDestroyRangeReverseINS_9allocatorI11TargetRulesEENS_16reverse_iteratorIPS3_EEEEE10__completeB7v160006Ev, symObjAddr: 0xBD88, symBinAddr: 0x10000E3E8, symSize: 0x1C }
  - { offsetInCU: 0x55F10, offset: 0x55F10, size: 0x8, addend: 0x0, symName: __ZNSt3__128__exception_guard_exceptionsINS_29_AllocatorDestroyRangeReverseINS_9allocatorI11TargetRulesEENS_16reverse_iteratorIPS3_EEEEED1B7v160006Ev, symObjAddr: 0xBDA4, symBinAddr: 0x10000E404, symSize: 0x2C }
  - { offsetInCU: 0x55F3A, offset: 0x55F3A, size: 0x8, addend: 0x0, symName: __ZNSt3__128__exception_guard_exceptionsINS_29_AllocatorDestroyRangeReverseINS_9allocatorI11TargetRulesEENS_16reverse_iteratorIPS3_EEEEEC1B7v160006ES8_, symObjAddr: 0xBDD0, symBinAddr: 0x10000E430, symSize: 0x34 }
  - { offsetInCU: 0x55F73, offset: 0x55F73, size: 0x8, addend: 0x0, symName: __ZNSt3__128__exception_guard_exceptionsINS_29_AllocatorDestroyRangeReverseINS_9allocatorI11TargetRulesEENS_16reverse_iteratorIPS3_EEEEEC2B7v160006ES8_, symObjAddr: 0xBE04, symBinAddr: 0x10000E464, symSize: 0x30 }
  - { offsetInCU: 0x55FAC, offset: 0x55FAC, size: 0x8, addend: 0x0, symName: __ZNSt3__129_AllocatorDestroyRangeReverseINS_9allocatorI11TargetRulesEENS_16reverse_iteratorIPS2_EEEC2B7v160006ERS3_RS6_S9_, symObjAddr: 0xBE34, symBinAddr: 0x10000E494, symSize: 0x38 }
  - { offsetInCU: 0x56003, offset: 0x56003, size: 0x8, addend: 0x0, symName: __ZN11TargetRulesC1EOS_, symObjAddr: 0xBEA8, symBinAddr: 0x10000E508, symSize: 0x34 }
  - { offsetInCU: 0x56038, offset: 0x56038, size: 0x8, addend: 0x0, symName: __ZN11TargetRulesC2EOS_, symObjAddr: 0xBEDC, symBinAddr: 0x10000E53C, symSize: 0x5C }
  - { offsetInCU: 0x56073, offset: 0x56073, size: 0x8, addend: 0x0, symName: __ZNSt3__119__to_address_helperINS_16reverse_iteratorIP11TargetRulesEEvE6__callB7v160006ERKS4_, symObjAddr: 0xBF38, symBinAddr: 0x10000E598, symSize: 0x38 }
  - { offsetInCU: 0x56096, offset: 0x56096, size: 0x8, addend: 0x0, symName: __ZNKSt3__116reverse_iteratorIP11TargetRulesEptB7v160006Ev, symObjAddr: 0xBF70, symBinAddr: 0x10000E5D0, symSize: 0x2C }
  - { offsetInCU: 0x560BC, offset: 0x560BC, size: 0x8, addend: 0x0, symName: __ZNSt3__128__exception_guard_exceptionsINS_29_AllocatorDestroyRangeReverseINS_9allocatorI11TargetRulesEENS_16reverse_iteratorIPS3_EEEEED2B7v160006Ev, symObjAddr: 0xC06C, symBinAddr: 0x10000E6CC, symSize: 0x50 }
  - { offsetInCU: 0x560E6, offset: 0x560E6, size: 0x8, addend: 0x0, symName: __ZNKSt3__129_AllocatorDestroyRangeReverseINS_9allocatorI11TargetRulesEENS_16reverse_iteratorIPS2_EEEclB7v160006Ev, symObjAddr: 0xC0BC, symBinAddr: 0x10000E71C, symSize: 0xB4 }
  - { offsetInCU: 0x5610D, offset: 0x5610D, size: 0x8, addend: 0x0, symName: __ZNSt3__116reverse_iteratorINS0_IP11TargetRulesEEEC1B7v160006ES3_, symObjAddr: 0xC1E0, symBinAddr: 0x10000E840, symSize: 0x3C }
  - { offsetInCU: 0x56145, offset: 0x56145, size: 0x8, addend: 0x0, symName: __ZNSt3__116allocator_traitsINS_9allocatorI11TargetRulesEEE7destroyB7v160006IS2_vvEEvRS3_PT_, symObjAddr: 0xC27C, symBinAddr: 0x10000E8DC, symSize: 0x28 }
  - { offsetInCU: 0x56180, offset: 0x56180, size: 0x8, addend: 0x0, symName: __ZNSt3__116reverse_iteratorINS0_IP11TargetRulesEEEppB7v160006Ev, symObjAddr: 0xC2C8, symBinAddr: 0x10000E928, symSize: 0x30 }
  - { offsetInCU: 0x561A6, offset: 0x561A6, size: 0x8, addend: 0x0, symName: __ZNKSt3__116reverse_iteratorINS0_IP11TargetRulesEEE4baseB7v160006Ev, symObjAddr: 0xC2F8, symBinAddr: 0x10000E958, symSize: 0x24 }
  - { offsetInCU: 0x561D2, offset: 0x561D2, size: 0x8, addend: 0x0, symName: __ZNSt3__119__to_address_helperINS_16reverse_iteratorINS1_IP11TargetRulesEEEEvE6__callB7v160006ERKS5_, symObjAddr: 0xC364, symBinAddr: 0x10000E9C4, symSize: 0x38 }
  - { offsetInCU: 0x561F5, offset: 0x561F5, size: 0x8, addend: 0x0, symName: __ZNKSt3__116reverse_iteratorINS0_IP11TargetRulesEEEptB7v160006Ev, symObjAddr: 0xC39C, symBinAddr: 0x10000E9FC, symSize: 0x4C }
  - { offsetInCU: 0x5621B, offset: 0x5621B, size: 0x8, addend: 0x0, symName: __ZNSt3__116reverse_iteratorIP11TargetRulesEpLB7v160006El, symObjAddr: 0xC4C4, symBinAddr: 0x10000EB24, symSize: 0x30 }
  - { offsetInCU: 0x5624F, offset: 0x5624F, size: 0x8, addend: 0x0, symName: __ZNSt3__116reverse_iteratorIP11TargetRulesEmmB7v160006Ev, symObjAddr: 0xC4F4, symBinAddr: 0x10000EB54, symSize: 0x20 }
  - { offsetInCU: 0x56275, offset: 0x56275, size: 0x8, addend: 0x0, symName: __ZNSt3__116reverse_iteratorINS0_IP11TargetRulesEEEC2B7v160006ES3_, symObjAddr: 0xC514, symBinAddr: 0x10000EB74, symSize: 0x2C }
  - { offsetInCU: 0x562AD, offset: 0x562AD, size: 0x8, addend: 0x0, symName: __ZNSt3__116reverse_iteratorIP11TargetRulesEC2B7v160006ES2_, symObjAddr: 0xC540, symBinAddr: 0x10000EBA0, symSize: 0x28 }
  - { offsetInCU: 0x562E5, offset: 0x562E5, size: 0x8, addend: 0x0, symName: __ZNSt3__114__split_bufferI11TargetRulesRNS_9allocatorIS1_EEED2Ev, symObjAddr: 0xC568, symBinAddr: 0x10000EBC8, symSize: 0x8C }
  - { offsetInCU: 0x56311, offset: 0x56311, size: 0x8, addend: 0x0, symName: __ZNSt3__114__split_bufferI11TargetRulesRNS_9allocatorIS1_EEE5clearB7v160006Ev, symObjAddr: 0xC5F4, symBinAddr: 0x10000EC54, symSize: 0x28 }
  - { offsetInCU: 0x56337, offset: 0x56337, size: 0x8, addend: 0x0, symName: __ZNSt3__116allocator_traitsINS_9allocatorI11TargetRulesEEE10deallocateB7v160006ERS3_PS2_m, symObjAddr: 0xC61C, symBinAddr: 0x10000EC7C, symSize: 0x34 }
  - { offsetInCU: 0x56379, offset: 0x56379, size: 0x8, addend: 0x0, symName: __ZNKSt3__114__split_bufferI11TargetRulesRNS_9allocatorIS1_EEE8capacityB7v160006Ev, symObjAddr: 0xC650, symBinAddr: 0x10000ECB0, symSize: 0x40 }
  - { offsetInCU: 0x5639F, offset: 0x5639F, size: 0x8, addend: 0x0, symName: __ZNSt3__114__split_bufferI11TargetRulesRNS_9allocatorIS1_EEE17__destruct_at_endB7v160006EPS1_, symObjAddr: 0xC690, symBinAddr: 0x10000ECF0, symSize: 0x2C }
  - { offsetInCU: 0x563D3, offset: 0x563D3, size: 0x8, addend: 0x0, symName: __ZNSt3__114__split_bufferI11TargetRulesRNS_9allocatorIS1_EEE17__destruct_at_endB7v160006EPS1_NS_17integral_constantIbLb0EEE, symObjAddr: 0xC6BC, symBinAddr: 0x10000ED1C, symSize: 0x80 }
  - { offsetInCU: 0x56413, offset: 0x56413, size: 0x8, addend: 0x0, symName: __ZNSt3__19allocatorI11TargetRulesE10deallocateB7v160006EPS1_m, symObjAddr: 0xC73C, symBinAddr: 0x10000ED9C, symSize: 0x44 }
  - { offsetInCU: 0x56455, offset: 0x56455, size: 0x8, addend: 0x0, symName: __ZNKSt3__114__split_bufferI11TargetRulesRNS_9allocatorIS1_EEE9__end_capB7v160006Ev, symObjAddr: 0xC780, symBinAddr: 0x10000EDE0, symSize: 0x28 }
  - { offsetInCU: 0x5647B, offset: 0x5647B, size: 0x8, addend: 0x0, symName: __ZNKSt3__117__compressed_pairIP11TargetRulesRNS_9allocatorIS1_EEE5firstB7v160006Ev, symObjAddr: 0xC7A8, symBinAddr: 0x10000EE08, symSize: 0x24 }
  - { offsetInCU: 0x564A1, offset: 0x564A1, size: 0x8, addend: 0x0, symName: __ZN11TargetRulesD2Ev, symObjAddr: 0xC7CC, symBinAddr: 0x10000EE2C, symSize: 0x44 }
  - { offsetInCU: 0x564CD, offset: 0x564CD, size: 0x8, addend: 0x0, symName: __ZN13InferenceRuleC2Ev, symObjAddr: 0xC810, symBinAddr: 0x10000EE70, symSize: 0x44 }
  - { offsetInCU: 0x564F9, offset: 0x564F9, size: 0x8, addend: 0x0, symName: __ZNSt3__16vectorI13InferenceRuleNS_9allocatorIS1_EEE9__end_capB7v160006Ev, symObjAddr: 0xC854, symBinAddr: 0x10000EEB4, symSize: 0x28 }
  - { offsetInCU: 0x56525, offset: 0x56525, size: 0x8, addend: 0x0, symName: __ZNSt3__16vectorI13InferenceRuleNS_9allocatorIS1_EEE22__construct_one_at_endB7v160006IJRKS1_EEEvDpOT_, symObjAddr: 0xC87C, symBinAddr: 0x10000EEDC, symSize: 0x90 }
  - { offsetInCU: 0x56574, offset: 0x56574, size: 0x8, addend: 0x0, symName: __ZNSt3__16vectorI13InferenceRuleNS_9allocatorIS1_EEE21__push_back_slow_pathIRKS1_EEvOT_, symObjAddr: 0xC90C, symBinAddr: 0x10000EF6C, symSize: 0xD8 }
  - { offsetInCU: 0x565D2, offset: 0x565D2, size: 0x8, addend: 0x0, symName: __ZNSt3__117__compressed_pairIP13InferenceRuleNS_9allocatorIS1_EEE5firstB7v160006Ev, symObjAddr: 0xC9E4, symBinAddr: 0x10000F044, symSize: 0x24 }
  - { offsetInCU: 0x565F8, offset: 0x565F8, size: 0x8, addend: 0x0, symName: __ZNSt3__122__compressed_pair_elemIP13InferenceRuleLi0ELb0EE5__getB7v160006Ev, symObjAddr: 0xCA08, symBinAddr: 0x10000F068, symSize: 0x14 }
  - { offsetInCU: 0x5663A, offset: 0x5663A, size: 0x8, addend: 0x0, symName: __ZNSt3__16vectorI13InferenceRuleNS_9allocatorIS1_EEE21_ConstructTransactionC1B7v160006ERS4_m, symObjAddr: 0xCA1C, symBinAddr: 0x10000F07C, symSize: 0x3C }
  - { offsetInCU: 0x56682, offset: 0x56682, size: 0x8, addend: 0x0, symName: __ZNSt3__116allocator_traitsINS_9allocatorI13InferenceRuleEEE9constructB7v160006IS2_JRKS2_EvvEEvRS3_PT_DpOT0_, symObjAddr: 0xCA58, symBinAddr: 0x10000F0B8, symSize: 0x30 }
  - { offsetInCU: 0x566D7, offset: 0x566D7, size: 0x8, addend: 0x0, symName: __ZNSt3__16vectorI13InferenceRuleNS_9allocatorIS1_EEE7__allocB7v160006Ev, symObjAddr: 0xCA88, symBinAddr: 0x10000F0E8, symSize: 0x28 }
  - { offsetInCU: 0x566FD, offset: 0x566FD, size: 0x8, addend: 0x0, symName: __ZNSt3__16vectorI13InferenceRuleNS_9allocatorIS1_EEE21_ConstructTransactionD1B7v160006Ev, symObjAddr: 0xCAC4, symBinAddr: 0x10000F124, symSize: 0x2C }
  - { offsetInCU: 0x56727, offset: 0x56727, size: 0x8, addend: 0x0, symName: __ZNSt3__16vectorI13InferenceRuleNS_9allocatorIS1_EEE21_ConstructTransactionC2B7v160006ERS4_m, symObjAddr: 0xCAF0, symBinAddr: 0x10000F150, symSize: 0x4C }
  - { offsetInCU: 0x5676F, offset: 0x5676F, size: 0x8, addend: 0x0, symName: __ZN13InferenceRuleC1ERKS_, symObjAddr: 0xCB78, symBinAddr: 0x10000F1D8, symSize: 0x34 }
  - { offsetInCU: 0x567A4, offset: 0x567A4, size: 0x8, addend: 0x0, symName: __ZN13InferenceRuleC2ERKS_, symObjAddr: 0xCBAC, symBinAddr: 0x10000F20C, symSize: 0xA8 }
  - { offsetInCU: 0x567D9, offset: 0x567D9, size: 0x8, addend: 0x0, symName: __ZNSt3__117__compressed_pairIP13InferenceRuleNS_9allocatorIS1_EEE6secondB7v160006Ev, symObjAddr: 0xCC54, symBinAddr: 0x10000F2B4, symSize: 0x24 }
  - { offsetInCU: 0x567FF, offset: 0x567FF, size: 0x8, addend: 0x0, symName: __ZNSt3__122__compressed_pair_elemINS_9allocatorI13InferenceRuleEELi1ELb1EE5__getB7v160006Ev, symObjAddr: 0xCC78, symBinAddr: 0x10000F2D8, symSize: 0x14 }
  - { offsetInCU: 0x56825, offset: 0x56825, size: 0x8, addend: 0x0, symName: __ZNSt3__16vectorI13InferenceRuleNS_9allocatorIS1_EEE21_ConstructTransactionD2B7v160006Ev, symObjAddr: 0xCC8C, symBinAddr: 0x10000F2EC, symSize: 0x20 }
  - { offsetInCU: 0x5684F, offset: 0x5684F, size: 0x8, addend: 0x0, symName: __ZNKSt3__16vectorI13InferenceRuleNS_9allocatorIS1_EEE11__recommendB7v160006Em, symObjAddr: 0xCCAC, symBinAddr: 0x10000F30C, symSize: 0xB4 }
  - { offsetInCU: 0x568A4, offset: 0x568A4, size: 0x8, addend: 0x0, symName: __ZNKSt3__16vectorI13InferenceRuleNS_9allocatorIS1_EEE4sizeB7v160006Ev, symObjAddr: 0xCD60, symBinAddr: 0x10000F3C0, symSize: 0x28 }
  - { offsetInCU: 0x568CA, offset: 0x568CA, size: 0x8, addend: 0x0, symName: __ZNSt3__114__split_bufferI13InferenceRuleRNS_9allocatorIS1_EEEC1EmmS4_, symObjAddr: 0xCD88, symBinAddr: 0x10000F3E8, symSize: 0x44 }
  - { offsetInCU: 0x56920, offset: 0x56920, size: 0x8, addend: 0x0, symName: __ZNSt3__114__split_bufferI13InferenceRuleRNS_9allocatorIS1_EEED1Ev, symObjAddr: 0xCEE4, symBinAddr: 0x10000F544, symSize: 0x2C }
  - { offsetInCU: 0x5694C, offset: 0x5694C, size: 0x8, addend: 0x0, symName: __ZNKSt3__16vectorI13InferenceRuleNS_9allocatorIS1_EEE8max_sizeEv, symObjAddr: 0xCF10, symBinAddr: 0x10000F570, symSize: 0x60 }
  - { offsetInCU: 0x56974, offset: 0x56974, size: 0x8, addend: 0x0, symName: __ZNKSt3__16vectorI13InferenceRuleNS_9allocatorIS1_EEE20__throw_length_errorB7v160006Ev, symObjAddr: 0xCF70, symBinAddr: 0x10000F5D0, symSize: 0x1C }
  - { offsetInCU: 0x5699A, offset: 0x5699A, size: 0x8, addend: 0x0, symName: __ZNKSt3__16vectorI13InferenceRuleNS_9allocatorIS1_EEE8capacityB7v160006Ev, symObjAddr: 0xCF8C, symBinAddr: 0x10000F5EC, symSize: 0x40 }
  - { offsetInCU: 0x569CB, offset: 0x569CB, size: 0x8, addend: 0x0, symName: __ZNSt3__116allocator_traitsINS_9allocatorI13InferenceRuleEEE8max_sizeB7v160006IS3_vvEEmRKS3_, symObjAddr: 0xCFCC, symBinAddr: 0x10000F62C, symSize: 0x28 }
  - { offsetInCU: 0x569F7, offset: 0x569F7, size: 0x8, addend: 0x0, symName: __ZNKSt3__16vectorI13InferenceRuleNS_9allocatorIS1_EEE7__allocB7v160006Ev, symObjAddr: 0xCFF4, symBinAddr: 0x10000F654, symSize: 0x28 }
  - { offsetInCU: 0x56A1D, offset: 0x56A1D, size: 0x8, addend: 0x0, symName: __ZNKSt3__117__compressed_pairIP13InferenceRuleNS_9allocatorIS1_EEE6secondB7v160006Ev, symObjAddr: 0xD01C, symBinAddr: 0x10000F67C, symSize: 0x24 }
  - { offsetInCU: 0x56A43, offset: 0x56A43, size: 0x8, addend: 0x0, symName: __ZNKSt3__122__compressed_pair_elemINS_9allocatorI13InferenceRuleEELi1ELb1EE5__getB7v160006Ev, symObjAddr: 0xD040, symBinAddr: 0x10000F6A0, symSize: 0x14 }
  - { offsetInCU: 0x56A69, offset: 0x56A69, size: 0x8, addend: 0x0, symName: __ZNKSt3__16vectorI13InferenceRuleNS_9allocatorIS1_EEE9__end_capB7v160006Ev, symObjAddr: 0xD054, symBinAddr: 0x10000F6B4, symSize: 0x28 }
  - { offsetInCU: 0x56A8F, offset: 0x56A8F, size: 0x8, addend: 0x0, symName: __ZNKSt3__117__compressed_pairIP13InferenceRuleNS_9allocatorIS1_EEE5firstB7v160006Ev, symObjAddr: 0xD07C, symBinAddr: 0x10000F6DC, symSize: 0x24 }
  - { offsetInCU: 0x56AB5, offset: 0x56AB5, size: 0x8, addend: 0x0, symName: __ZNKSt3__122__compressed_pair_elemIP13InferenceRuleLi0ELb0EE5__getB7v160006Ev, symObjAddr: 0xD0A0, symBinAddr: 0x10000F700, symSize: 0x14 }
  - { offsetInCU: 0x56ADB, offset: 0x56ADB, size: 0x8, addend: 0x0, symName: __ZNSt3__114__split_bufferI13InferenceRuleRNS_9allocatorIS1_EEEC2EmmS4_, symObjAddr: 0xD0B4, symBinAddr: 0x10000F714, symSize: 0xE0 }
  - { offsetInCU: 0x56B4F, offset: 0x56B4F, size: 0x8, addend: 0x0, symName: __ZNSt3__117__compressed_pairIP13InferenceRuleRNS_9allocatorIS1_EEEC1B7v160006IDnS5_EEOT_OT0_, symObjAddr: 0xD194, symBinAddr: 0x10000F7F4, symSize: 0x3C }
  - { offsetInCU: 0x56BA7, offset: 0x56BA7, size: 0x8, addend: 0x0, symName: __ZNSt3__114__split_bufferI13InferenceRuleRNS_9allocatorIS1_EEE7__allocB7v160006Ev, symObjAddr: 0xD210, symBinAddr: 0x10000F870, symSize: 0x28 }
  - { offsetInCU: 0x56BCD, offset: 0x56BCD, size: 0x8, addend: 0x0, symName: __ZNSt3__114__split_bufferI13InferenceRuleRNS_9allocatorIS1_EEE9__end_capB7v160006Ev, symObjAddr: 0xD238, symBinAddr: 0x10000F898, symSize: 0x28 }
  - { offsetInCU: 0x56BF3, offset: 0x56BF3, size: 0x8, addend: 0x0, symName: __ZNSt3__117__compressed_pairIP13InferenceRuleRNS_9allocatorIS1_EEEC2B7v160006IDnS5_EEOT_OT0_, symObjAddr: 0xD260, symBinAddr: 0x10000F8C0, symSize: 0x48 }
  - { offsetInCU: 0x56C4B, offset: 0x56C4B, size: 0x8, addend: 0x0, symName: __ZNSt3__122__compressed_pair_elemIP13InferenceRuleLi0ELb0EEC2B7v160006IDnvEEOT_, symObjAddr: 0xD2A8, symBinAddr: 0x10000F908, symSize: 0x1C }
  - { offsetInCU: 0x56C8D, offset: 0x56C8D, size: 0x8, addend: 0x0, symName: __ZNSt3__122__compressed_pair_elemIRNS_9allocatorI13InferenceRuleEELi1ELb0EEC2B7v160006IS4_vEEOT_, symObjAddr: 0xD2C4, symBinAddr: 0x10000F924, symSize: 0x20 }
  - { offsetInCU: 0x56CCF, offset: 0x56CCF, size: 0x8, addend: 0x0, symName: __ZNSt3__19allocatorI13InferenceRuleE8allocateB7v160006Em, symObjAddr: 0xD2E4, symBinAddr: 0x10000F944, symSize: 0x5C }
  - { offsetInCU: 0x56D03, offset: 0x56D03, size: 0x8, addend: 0x0, symName: __ZNSt3__117__compressed_pairIP13InferenceRuleRNS_9allocatorIS1_EEE6secondB7v160006Ev, symObjAddr: 0xD340, symBinAddr: 0x10000F9A0, symSize: 0x28 }
  - { offsetInCU: 0x56D29, offset: 0x56D29, size: 0x8, addend: 0x0, symName: __ZNSt3__122__compressed_pair_elemIRNS_9allocatorI13InferenceRuleEELi1ELb0EE5__getB7v160006Ev, symObjAddr: 0xD368, symBinAddr: 0x10000F9C8, symSize: 0x18 }
  - { offsetInCU: 0x56D4F, offset: 0x56D4F, size: 0x8, addend: 0x0, symName: __ZNSt3__117__compressed_pairIP13InferenceRuleRNS_9allocatorIS1_EEE5firstB7v160006Ev, symObjAddr: 0xD380, symBinAddr: 0x10000F9E0, symSize: 0x24 }
  - { offsetInCU: 0x56D75, offset: 0x56D75, size: 0x8, addend: 0x0, symName: __ZNKSt3__16vectorI13InferenceRuleNS_9allocatorIS1_EEE17__annotate_deleteB7v160006Ev, symObjAddr: 0xD3A4, symBinAddr: 0x10000FA04, symSize: 0xD4 }
  - { offsetInCU: 0x56D9B, offset: 0x56D9B, size: 0x8, addend: 0x0, symName: __ZNSt3__116reverse_iteratorIP13InferenceRuleEC1B7v160006ES2_, symObjAddr: 0xD5A4, symBinAddr: 0x10000FC04, symSize: 0x34 }
  - { offsetInCU: 0x56DD3, offset: 0x56DD3, size: 0x8, addend: 0x0, symName: __ZNKSt3__116reverse_iteratorIP13InferenceRuleE4baseB7v160006Ev, symObjAddr: 0xD5D8, symBinAddr: 0x10000FC38, symSize: 0x18 }
  - { offsetInCU: 0x56DF9, offset: 0x56DF9, size: 0x8, addend: 0x0, symName: __ZNKSt3__16vectorI13InferenceRuleNS_9allocatorIS1_EEE14__annotate_newB7v160006Em, symObjAddr: 0xD62C, symBinAddr: 0x10000FC8C, symSize: 0xC8 }
  - { offsetInCU: 0x56E2E, offset: 0x56E2E, size: 0x8, addend: 0x0, symName: __ZNKSt3__16vectorI13InferenceRuleNS_9allocatorIS1_EEE31__annotate_contiguous_containerB7v160006EPKvS6_S6_S6_, symObjAddr: 0xD704, symBinAddr: 0x10000FD64, symSize: 0x20 }
  - { offsetInCU: 0x56E84, offset: 0x56E84, size: 0x8, addend: 0x0, symName: __ZNKSt3__16vectorI13InferenceRuleNS_9allocatorIS1_EEE4dataB7v160006Ev, symObjAddr: 0xD724, symBinAddr: 0x10000FD84, symSize: 0x28 }
  - { offsetInCU: 0x56EAA, offset: 0x56EAA, size: 0x8, addend: 0x0, symName: __ZNSt3__129_AllocatorDestroyRangeReverseINS_9allocatorI13InferenceRuleEENS_16reverse_iteratorIPS2_EEEC1B7v160006ERS3_RS6_S9_, symObjAddr: 0xD798, symBinAddr: 0x10000FDF8, symSize: 0x44 }
  - { offsetInCU: 0x56F07, offset: 0x56F07, size: 0x8, addend: 0x0, symName: __ZNSt3__116allocator_traitsINS_9allocatorI13InferenceRuleEEE9constructB7v160006IS2_JS2_EvvEEvRS3_PT_DpOT0_, symObjAddr: 0xD824, symBinAddr: 0x10000FE84, symSize: 0x30 }
  - { offsetInCU: 0x56F5C, offset: 0x56F5C, size: 0x8, addend: 0x0, symName: __ZNKSt3__116reverse_iteratorIP13InferenceRuleEdeB7v160006Ev, symObjAddr: 0xD878, symBinAddr: 0x10000FED8, symSize: 0x28 }
  - { offsetInCU: 0x56F90, offset: 0x56F90, size: 0x8, addend: 0x0, symName: __ZNSt3__116reverse_iteratorIP13InferenceRuleEppB7v160006Ev, symObjAddr: 0xD8A0, symBinAddr: 0x10000FF00, symSize: 0x20 }
  - { offsetInCU: 0x56FB6, offset: 0x56FB6, size: 0x8, addend: 0x0, symName: __ZNSt3__128__exception_guard_exceptionsINS_29_AllocatorDestroyRangeReverseINS_9allocatorI13InferenceRuleEENS_16reverse_iteratorIPS3_EEEEE10__completeB7v160006Ev, symObjAddr: 0xD8C0, symBinAddr: 0x10000FF20, symSize: 0x1C }
  - { offsetInCU: 0x56FDC, offset: 0x56FDC, size: 0x8, addend: 0x0, symName: __ZNSt3__128__exception_guard_exceptionsINS_29_AllocatorDestroyRangeReverseINS_9allocatorI13InferenceRuleEENS_16reverse_iteratorIPS3_EEEEED1B7v160006Ev, symObjAddr: 0xD8DC, symBinAddr: 0x10000FF3C, symSize: 0x2C }
  - { offsetInCU: 0x57006, offset: 0x57006, size: 0x8, addend: 0x0, symName: __ZNSt3__128__exception_guard_exceptionsINS_29_AllocatorDestroyRangeReverseINS_9allocatorI13InferenceRuleEENS_16reverse_iteratorIPS3_EEEEEC1B7v160006ES8_, symObjAddr: 0xD908, symBinAddr: 0x10000FF68, symSize: 0x34 }
  - { offsetInCU: 0x5703F, offset: 0x5703F, size: 0x8, addend: 0x0, symName: __ZNSt3__128__exception_guard_exceptionsINS_29_AllocatorDestroyRangeReverseINS_9allocatorI13InferenceRuleEENS_16reverse_iteratorIPS3_EEEEEC2B7v160006ES8_, symObjAddr: 0xD93C, symBinAddr: 0x10000FF9C, symSize: 0x30 }
  - { offsetInCU: 0x57078, offset: 0x57078, size: 0x8, addend: 0x0, symName: __ZNSt3__129_AllocatorDestroyRangeReverseINS_9allocatorI13InferenceRuleEENS_16reverse_iteratorIPS2_EEEC2B7v160006ERS3_RS6_S9_, symObjAddr: 0xD96C, symBinAddr: 0x10000FFCC, symSize: 0x38 }
  - { offsetInCU: 0x570CF, offset: 0x570CF, size: 0x8, addend: 0x0, symName: __ZN13InferenceRuleC1EOS_, symObjAddr: 0xD9E0, symBinAddr: 0x100010040, symSize: 0x34 }
  - { offsetInCU: 0x57104, offset: 0x57104, size: 0x8, addend: 0x0, symName: __ZN13InferenceRuleC2EOS_, symObjAddr: 0xDA14, symBinAddr: 0x100010074, symSize: 0x5C }
  - { offsetInCU: 0x5713F, offset: 0x5713F, size: 0x8, addend: 0x0, symName: __ZNSt3__119__to_address_helperINS_16reverse_iteratorIP13InferenceRuleEEvE6__callB7v160006ERKS4_, symObjAddr: 0xDA70, symBinAddr: 0x1000100D0, symSize: 0x38 }
  - { offsetInCU: 0x57162, offset: 0x57162, size: 0x8, addend: 0x0, symName: __ZNKSt3__116reverse_iteratorIP13InferenceRuleEptB7v160006Ev, symObjAddr: 0xDAA8, symBinAddr: 0x100010108, symSize: 0x2C }
  - { offsetInCU: 0x57188, offset: 0x57188, size: 0x8, addend: 0x0, symName: __ZNSt3__128__exception_guard_exceptionsINS_29_AllocatorDestroyRangeReverseINS_9allocatorI13InferenceRuleEENS_16reverse_iteratorIPS3_EEEEED2B7v160006Ev, symObjAddr: 0xDBA4, symBinAddr: 0x100010204, symSize: 0x50 }
  - { offsetInCU: 0x571B2, offset: 0x571B2, size: 0x8, addend: 0x0, symName: __ZNKSt3__129_AllocatorDestroyRangeReverseINS_9allocatorI13InferenceRuleEENS_16reverse_iteratorIPS2_EEEclB7v160006Ev, symObjAddr: 0xDBF4, symBinAddr: 0x100010254, symSize: 0xB4 }
  - { offsetInCU: 0x571D9, offset: 0x571D9, size: 0x8, addend: 0x0, symName: __ZNSt3__116reverse_iteratorINS0_IP13InferenceRuleEEEC1B7v160006ES3_, symObjAddr: 0xDD18, symBinAddr: 0x100010378, symSize: 0x3C }
  - { offsetInCU: 0x57211, offset: 0x57211, size: 0x8, addend: 0x0, symName: __ZNSt3__116allocator_traitsINS_9allocatorI13InferenceRuleEEE7destroyB7v160006IS2_vvEEvRS3_PT_, symObjAddr: 0xDDB4, symBinAddr: 0x100010414, symSize: 0x28 }
  - { offsetInCU: 0x5724C, offset: 0x5724C, size: 0x8, addend: 0x0, symName: __ZNSt3__116reverse_iteratorINS0_IP13InferenceRuleEEEppB7v160006Ev, symObjAddr: 0xDE00, symBinAddr: 0x100010460, symSize: 0x30 }
  - { offsetInCU: 0x57272, offset: 0x57272, size: 0x8, addend: 0x0, symName: __ZNKSt3__116reverse_iteratorINS0_IP13InferenceRuleEEE4baseB7v160006Ev, symObjAddr: 0xDE30, symBinAddr: 0x100010490, symSize: 0x24 }
  - { offsetInCU: 0x5729E, offset: 0x5729E, size: 0x8, addend: 0x0, symName: __ZNSt3__119__to_address_helperINS_16reverse_iteratorINS1_IP13InferenceRuleEEEEvE6__callB7v160006ERKS5_, symObjAddr: 0xDE9C, symBinAddr: 0x1000104FC, symSize: 0x38 }
  - { offsetInCU: 0x572C1, offset: 0x572C1, size: 0x8, addend: 0x0, symName: __ZNKSt3__116reverse_iteratorINS0_IP13InferenceRuleEEEptB7v160006Ev, symObjAddr: 0xDED4, symBinAddr: 0x100010534, symSize: 0x4C }
  - { offsetInCU: 0x572E7, offset: 0x572E7, size: 0x8, addend: 0x0, symName: __ZNSt3__116reverse_iteratorIP13InferenceRuleEpLB7v160006El, symObjAddr: 0xDFFC, symBinAddr: 0x10001065C, symSize: 0x30 }
  - { offsetInCU: 0x5731B, offset: 0x5731B, size: 0x8, addend: 0x0, symName: __ZNSt3__116reverse_iteratorIP13InferenceRuleEmmB7v160006Ev, symObjAddr: 0xE02C, symBinAddr: 0x10001068C, symSize: 0x20 }
  - { offsetInCU: 0x57341, offset: 0x57341, size: 0x8, addend: 0x0, symName: __ZNSt3__116reverse_iteratorINS0_IP13InferenceRuleEEEC2B7v160006ES3_, symObjAddr: 0xE04C, symBinAddr: 0x1000106AC, symSize: 0x2C }
  - { offsetInCU: 0x57379, offset: 0x57379, size: 0x8, addend: 0x0, symName: __ZNSt3__116reverse_iteratorIP13InferenceRuleEC2B7v160006ES2_, symObjAddr: 0xE078, symBinAddr: 0x1000106D8, symSize: 0x28 }
  - { offsetInCU: 0x573B1, offset: 0x573B1, size: 0x8, addend: 0x0, symName: __ZNSt3__114__split_bufferI13InferenceRuleRNS_9allocatorIS1_EEED2Ev, symObjAddr: 0xE0A0, symBinAddr: 0x100010700, symSize: 0x8C }
  - { offsetInCU: 0x573DD, offset: 0x573DD, size: 0x8, addend: 0x0, symName: __ZNSt3__114__split_bufferI13InferenceRuleRNS_9allocatorIS1_EEE5clearB7v160006Ev, symObjAddr: 0xE12C, symBinAddr: 0x10001078C, symSize: 0x28 }
  - { offsetInCU: 0x57403, offset: 0x57403, size: 0x8, addend: 0x0, symName: __ZNSt3__116allocator_traitsINS_9allocatorI13InferenceRuleEEE10deallocateB7v160006ERS3_PS2_m, symObjAddr: 0xE154, symBinAddr: 0x1000107B4, symSize: 0x34 }
  - { offsetInCU: 0x57445, offset: 0x57445, size: 0x8, addend: 0x0, symName: __ZNKSt3__114__split_bufferI13InferenceRuleRNS_9allocatorIS1_EEE8capacityB7v160006Ev, symObjAddr: 0xE188, symBinAddr: 0x1000107E8, symSize: 0x40 }
  - { offsetInCU: 0x5746B, offset: 0x5746B, size: 0x8, addend: 0x0, symName: __ZNSt3__114__split_bufferI13InferenceRuleRNS_9allocatorIS1_EEE17__destruct_at_endB7v160006EPS1_, symObjAddr: 0xE1C8, symBinAddr: 0x100010828, symSize: 0x2C }
  - { offsetInCU: 0x5749F, offset: 0x5749F, size: 0x8, addend: 0x0, symName: __ZNSt3__114__split_bufferI13InferenceRuleRNS_9allocatorIS1_EEE17__destruct_at_endB7v160006EPS1_NS_17integral_constantIbLb0EEE, symObjAddr: 0xE1F4, symBinAddr: 0x100010854, symSize: 0x80 }
  - { offsetInCU: 0x574DF, offset: 0x574DF, size: 0x8, addend: 0x0, symName: __ZNSt3__19allocatorI13InferenceRuleE10deallocateB7v160006EPS1_m, symObjAddr: 0xE274, symBinAddr: 0x1000108D4, symSize: 0x44 }
  - { offsetInCU: 0x57521, offset: 0x57521, size: 0x8, addend: 0x0, symName: __ZNKSt3__114__split_bufferI13InferenceRuleRNS_9allocatorIS1_EEE9__end_capB7v160006Ev, symObjAddr: 0xE2B8, symBinAddr: 0x100010918, symSize: 0x28 }
  - { offsetInCU: 0x57547, offset: 0x57547, size: 0x8, addend: 0x0, symName: __ZNKSt3__117__compressed_pairIP13InferenceRuleRNS_9allocatorIS1_EEE5firstB7v160006Ev, symObjAddr: 0xE2E0, symBinAddr: 0x100010940, symSize: 0x24 }
  - { offsetInCU: 0x5756D, offset: 0x5756D, size: 0x8, addend: 0x0, symName: __ZN13InferenceRuleD2Ev, symObjAddr: 0xE304, symBinAddr: 0x100010964, symSize: 0x44 }
  - { offsetInCU: 0x57599, offset: 0x57599, size: 0x8, addend: 0x0, symName: __ZNSt3__16vectorINS_12basic_stringIcNS_11char_traitsIcEENS_9allocatorIcEEEENS4_IS6_EEEaSB7v160006EOS8_, symObjAddr: 0xE348, symBinAddr: 0x1000109A8, symSize: 0x34 }
  - { offsetInCU: 0x575D0, offset: 0x575D0, size: 0x8, addend: 0x0, symName: __ZNSt3__16vectorINS_12basic_stringIcNS_11char_traitsIcEENS_9allocatorIcEEEENS4_IS6_EEE13__move_assignERS8_NS_17integral_constantIbLb1EEE, symObjAddr: 0xE37C, symBinAddr: 0x1000109DC, symSize: 0xA4 }
  - { offsetInCU: 0x57613, offset: 0x57613, size: 0x8, addend: 0x0, symName: __ZNSt3__16vectorINS_12basic_stringIcNS_11char_traitsIcEENS_9allocatorIcEEEENS4_IS6_EEE13__vdeallocateEv, symObjAddr: 0xE420, symBinAddr: 0x100010A80, symSize: 0x8C }
  - { offsetInCU: 0x5763B, offset: 0x5763B, size: 0x8, addend: 0x0, symName: __ZNSt3__16vectorINS_12basic_stringIcNS_11char_traitsIcEENS_9allocatorIcEEEENS4_IS6_EEE19__move_assign_allocB7v160006ERS8_, symObjAddr: 0xE4AC, symBinAddr: 0x100010B0C, symSize: 0x2C }
  - { offsetInCU: 0x57670, offset: 0x57670, size: 0x8, addend: 0x0, symName: __ZNSt3__16vectorINS_12basic_stringIcNS_11char_traitsIcEENS_9allocatorIcEEEENS4_IS6_EEE5clearB7v160006Ev, symObjAddr: 0xE4D8, symBinAddr: 0x100010B38, symSize: 0x4C }
  - { offsetInCU: 0x576A5, offset: 0x576A5, size: 0x8, addend: 0x0, symName: __ZNKSt3__16vectorINS_12basic_stringIcNS_11char_traitsIcEENS_9allocatorIcEEEENS4_IS6_EEE17__annotate_shrinkB7v160006Em, symObjAddr: 0xE524, symBinAddr: 0x100010B84, symSize: 0xD0 }
  - { offsetInCU: 0x576DA, offset: 0x576DA, size: 0x8, addend: 0x0, symName: __ZNSt3__16vectorINS_12basic_stringIcNS_11char_traitsIcEENS_9allocatorIcEEEENS4_IS6_EEE19__move_assign_allocB7v160006ERS8_NS_17integral_constantIbLb1EEE, symObjAddr: 0xE5F4, symBinAddr: 0x100010C54, symSize: 0x38 }
  - { offsetInCU: 0x5771B, offset: 0x5771B, size: 0x8, addend: 0x0, symName: __ZNSt3__112basic_stringIcNS_11char_traitsIcEENS_9allocatorIcEEE13__get_pointerB7v160006Ev, symObjAddr: 0xE62C, symBinAddr: 0x100010C8C, symSize: 0x54 }
  - { offsetInCU: 0x57741, offset: 0x57741, size: 0x8, addend: 0x0, symName: __ZNSt3__16vectorI11TargetRulesNS_9allocatorIS1_EEE17__destruct_at_endB7v160006EPS1_, symObjAddr: 0xE680, symBinAddr: 0x100010CE0, symSize: 0x60 }
  - { offsetInCU: 0x57785, offset: 0x57785, size: 0x8, addend: 0x0, symName: __ZNSt3__16vectorI11TargetRulesNS_9allocatorIS1_EEE27__invalidate_iterators_pastB7v160006EPS1_, symObjAddr: 0xE6E0, symBinAddr: 0x100010D40, symSize: 0x14 }
  - { offsetInCU: 0x577BC, offset: 0x577BC, size: 0x8, addend: 0x0, symName: __ZNSt3__16vectorI11TargetRulesNS_9allocatorIS1_EEE22__base_destruct_at_endB7v160006EPS1_, symObjAddr: 0xE6F4, symBinAddr: 0x100010D54, symSize: 0x8C }
  - { offsetInCU: 0x57800, offset: 0x57800, size: 0x8, addend: 0x0, symName: __ZNKSt3__16vectorI11TargetRulesNS_9allocatorIS1_EEE17__annotate_shrinkB7v160006Em, symObjAddr: 0xE780, symBinAddr: 0x100010DE0, symSize: 0xD0 }
  - { offsetInCU: 0x57835, offset: 0x57835, size: 0x8, addend: 0x0, symName: __ZNSt3__114basic_ifstreamIcNS_11char_traitsIcEEED2Ev, symObjAddr: 0xE850, symBinAddr: 0x100010EB0, symSize: 0x64 }
  - { offsetInCU: 0x5786F, offset: 0x5786F, size: 0x8, addend: 0x0, symName: __ZTv0_n24_NSt3__114basic_ifstreamIcNS_11char_traitsIcEEED1Ev, symObjAddr: 0xE8B4, symBinAddr: 0x100010F14, symSize: 0x28 }
  - { offsetInCU: 0x57886, offset: 0x57886, size: 0x8, addend: 0x0, symName: __ZNKSt3__16vectorI5MacroNS_9allocatorIS1_EEE11__make_iterB7v160006EPKS1_, symObjAddr: 0xE8DC, symBinAddr: 0x100010F3C, symSize: 0x34 }
  - { offsetInCU: 0x578BB, offset: 0x578BB, size: 0x8, addend: 0x0, symName: __ZNSt3__111__wrap_iterIPK5MacroEC1B7v160006EPKvS3_, symObjAddr: 0xE910, symBinAddr: 0x100010F70, symSize: 0x3C }
  - { offsetInCU: 0x57901, offset: 0x57901, size: 0x8, addend: 0x0, symName: __ZNSt3__111__wrap_iterIPK5MacroEC2B7v160006EPKvS3_, symObjAddr: 0xE94C, symBinAddr: 0x100010FAC, symSize: 0x24 }
  - { offsetInCU: 0x57947, offset: 0x57947, size: 0x8, addend: 0x0, symName: __ZNKSt3__111__wrap_iterIPK5MacroE4baseB7v160006Ev, symObjAddr: 0xE9B8, symBinAddr: 0x100011018, symSize: 0x18 }
  - { offsetInCU: 0x5796D, offset: 0x5796D, size: 0x8, addend: 0x0, symName: __ZNSt3__111basic_regexIcNS_12regex_traitsIcEEED2Ev, symObjAddr: 0xE9D0, symBinAddr: 0x100011030, symSize: 0x38 }
  - { offsetInCU: 0x5799A, offset: 0x5799A, size: 0x8, addend: 0x0, symName: __ZNSt3__110shared_ptrINS_13__empty_stateIcEEED1B7v160006Ev, symObjAddr: 0xEA08, symBinAddr: 0x100011068, symSize: 0x2C }
  - { offsetInCU: 0x579C4, offset: 0x579C4, size: 0x8, addend: 0x0, symName: __ZNSt3__112regex_traitsIcED1Ev, symObjAddr: 0xEA34, symBinAddr: 0x100011094, symSize: 0x2C }
  - { offsetInCU: 0x579F1, offset: 0x579F1, size: 0x8, addend: 0x0, symName: __ZNSt3__110shared_ptrINS_13__empty_stateIcEEED2B7v160006Ev, symObjAddr: 0xEA60, symBinAddr: 0x1000110C0, symSize: 0x54 }
  - { offsetInCU: 0x57A1B, offset: 0x57A1B, size: 0x8, addend: 0x0, symName: __ZNSt3__119__shared_weak_count16__release_sharedB7v160006Ev, symObjAddr: 0xEAB4, symBinAddr: 0x100011114, symSize: 0x3C }
  - { offsetInCU: 0x57A41, offset: 0x57A41, size: 0x8, addend: 0x0, symName: __ZNSt3__114__shared_count16__release_sharedB7v160006Ev, symObjAddr: 0xEAF0, symBinAddr: 0x100011150, symSize: 0x7C }
  - { offsetInCU: 0x57A67, offset: 0x57A67, size: 0x8, addend: 0x0, symName: __ZNSt3__112regex_traitsIcED2Ev, symObjAddr: 0xEB9C, symBinAddr: 0x1000111FC, symSize: 0x2C }
  - { offsetInCU: 0x57A94, offset: 0x57A94, size: 0x8, addend: 0x0, symName: __ZNKSt3__16vectorINS_12basic_stringIcNS_11char_traitsIcEENS_9allocatorIcEEEENS4_IS6_EEE11__make_iterB7v160006EPKS6_, symObjAddr: 0xEBC8, symBinAddr: 0x100011228, symSize: 0x34 }
  - { offsetInCU: 0x57AC9, offset: 0x57AC9, size: 0x8, addend: 0x0, symName: __ZNSt3__111__wrap_iterIPKNS_12basic_stringIcNS_11char_traitsIcEENS_9allocatorIcEEEEEC1B7v160006EPKvS8_, symObjAddr: 0xEBFC, symBinAddr: 0x10001125C, symSize: 0x3C }
  - { offsetInCU: 0x57B0F, offset: 0x57B0F, size: 0x8, addend: 0x0, symName: __ZNSt3__111__wrap_iterIPKNS_12basic_stringIcNS_11char_traitsIcEENS_9allocatorIcEEEEEC2B7v160006EPKvS8_, symObjAddr: 0xEC38, symBinAddr: 0x100011298, symSize: 0x24 }
  - { offsetInCU: 0x57B55, offset: 0x57B55, size: 0x8, addend: 0x0, symName: __ZNKSt3__111__wrap_iterIPKNS_12basic_stringIcNS_11char_traitsIcEENS_9allocatorIcEEEEE4baseB7v160006Ev, symObjAddr: 0xECA4, symBinAddr: 0x100011304, symSize: 0x18 }
  - { offsetInCU: 0x57B86, offset: 0x57B86, size: 0x8, addend: 0x0, symName: __ZNSt3__116allocator_traitsINS_9allocatorIcEEE37select_on_container_copy_constructionB7v160006IS2_vvEES2_RKS2_, symObjAddr: 0xECBC, symBinAddr: 0x10001131C, symSize: 0x10 }
  - { offsetInCU: 0x57BB5, offset: 0x57BB5, size: 0x8, addend: 0x0, symName: __ZNKSt3__112basic_stringIcNS_11char_traitsIcEENS_9allocatorIcEEE13get_allocatorB7v160006Ev, symObjAddr: 0xECCC, symBinAddr: 0x10001132C, symSize: 0x24 }
  - { offsetInCU: 0x57BDB, offset: 0x57BDB, size: 0x8, addend: 0x0, symName: __ZNSt3__112basic_stringIcNS_11char_traitsIcEENS_9allocatorIcEEEC1B7v160006ENS_24__uninitialized_size_tagEmRKS4_, symObjAddr: 0xECF0, symBinAddr: 0x100011350, symSize: 0x3C }
  - { offsetInCU: 0x57C2F, offset: 0x57C2F, size: 0x8, addend: 0x0, symName: __ZNSt3__111char_traitsIcE4copyEPcPKcm, symObjAddr: 0xED40, symBinAddr: 0x1000113A0, symSize: 0x5C }
  - { offsetInCU: 0x57C6E, offset: 0x57C6E, size: 0x8, addend: 0x0, symName: __ZNSt3__111char_traitsIcE6assignEPcmc, symObjAddr: 0xED9C, symBinAddr: 0x1000113FC, symSize: 0x44 }
  - { offsetInCU: 0x57CAD, offset: 0x57CAD, size: 0x8, addend: 0x0, symName: __ZNKSt3__112basic_stringIcNS_11char_traitsIcEENS_9allocatorIcEEE7__allocB7v160006Ev, symObjAddr: 0xEDE0, symBinAddr: 0x100011440, symSize: 0x24 }
  - { offsetInCU: 0x57CD3, offset: 0x57CD3, size: 0x8, addend: 0x0, symName: __ZNKSt3__117__compressed_pairINS_12basic_stringIcNS_11char_traitsIcEENS_9allocatorIcEEE5__repES5_E6secondB7v160006Ev, symObjAddr: 0xEE04, symBinAddr: 0x100011464, symSize: 0x24 }
  - { offsetInCU: 0x57CF9, offset: 0x57CF9, size: 0x8, addend: 0x0, symName: __ZNKSt3__122__compressed_pair_elemINS_9allocatorIcEELi1ELb1EE5__getB7v160006Ev, symObjAddr: 0xEE28, symBinAddr: 0x100011488, symSize: 0x14 }
  - { offsetInCU: 0x57D1F, offset: 0x57D1F, size: 0x8, addend: 0x0, symName: __ZNSt3__112basic_stringIcNS_11char_traitsIcEENS_9allocatorIcEEEC2B7v160006ENS_24__uninitialized_size_tagEmRKS4_, symObjAddr: 0xEE3C, symBinAddr: 0x10001149C, symSize: 0x118 }
  - { offsetInCU: 0x57DA0, offset: 0x57DA0, size: 0x8, addend: 0x0, symName: __ZNSt3__117__compressed_pairINS_12basic_stringIcNS_11char_traitsIcEENS_9allocatorIcEEE5__repES5_EC1B7v160006INS_18__default_init_tagERKS5_EEOT_OT0_, symObjAddr: 0xEF54, symBinAddr: 0x1000115B4, symSize: 0x3C }
  - { offsetInCU: 0x57DF8, offset: 0x57DF8, size: 0x8, addend: 0x0, symName: __ZNKSt3__112basic_stringIcNS_11char_traitsIcEENS_9allocatorIcEEE8max_sizeB7v160006Ev, symObjAddr: 0xEF90, symBinAddr: 0x1000115F0, symSize: 0xAC }
  - { offsetInCU: 0x57E4B, offset: 0x57E4B, size: 0x8, addend: 0x0, symName: __ZNKSt3__112basic_stringIcNS_11char_traitsIcEENS_9allocatorIcEEE20__throw_length_errorB7v160006Ev, symObjAddr: 0xF03C, symBinAddr: 0x10001169C, symSize: 0x1C }
  - { offsetInCU: 0x57E71, offset: 0x57E71, size: 0x8, addend: 0x0, symName: __ZNSt3__112basic_stringIcNS_11char_traitsIcEENS_9allocatorIcEEE13__fits_in_ssoB7v160006Em, symObjAddr: 0xF058, symBinAddr: 0x1000116B8, symSize: 0x20 }
  - { offsetInCU: 0x57E95, offset: 0x57E95, size: 0x8, addend: 0x0, symName: __ZNSt3__112basic_stringIcNS_11char_traitsIcEENS_9allocatorIcEEE11__recommendB7v160006Em, symObjAddr: 0xF078, symBinAddr: 0x1000116D8, symSize: 0x84 }
  - { offsetInCU: 0x57EC8, offset: 0x57EC8, size: 0x8, addend: 0x0, symName: __ZNSt3__116allocator_traitsINS_9allocatorIcEEE8allocateB7v160006ERS2_m, symObjAddr: 0xF0FC, symBinAddr: 0x10001175C, symSize: 0x2C }
  - { offsetInCU: 0x57EFB, offset: 0x57EFB, size: 0x8, addend: 0x0, symName: __ZNSt3__112basic_stringIcNS_11char_traitsIcEENS_9allocatorIcEEE16__begin_lifetimeB7v160006EPcm, symObjAddr: 0xF128, symBinAddr: 0x100011788, symSize: 0x14 }
  - { offsetInCU: 0x57F2E, offset: 0x57F2E, size: 0x8, addend: 0x0, symName: __ZNSt3__112basic_stringIcNS_11char_traitsIcEENS_9allocatorIcEEE14__set_long_capB7v160006Em, symObjAddr: 0xF13C, symBinAddr: 0x10001179C, symSize: 0x70 }
  - { offsetInCU: 0x57F63, offset: 0x57F63, size: 0x8, addend: 0x0, symName: __ZNSt3__112basic_stringIcNS_11char_traitsIcEENS_9allocatorIcEEE18__set_long_pointerB7v160006EPc, symObjAddr: 0xF1AC, symBinAddr: 0x10001180C, symSize: 0x38 }
  - { offsetInCU: 0x57F98, offset: 0x57F98, size: 0x8, addend: 0x0, symName: __ZNSt3__112basic_stringIcNS_11char_traitsIcEENS_9allocatorIcEEE15__set_long_sizeB7v160006Em, symObjAddr: 0xF1E4, symBinAddr: 0x100011844, symSize: 0x38 }
  - { offsetInCU: 0x57FCD, offset: 0x57FCD, size: 0x8, addend: 0x0, symName: __ZNSt3__117__compressed_pairINS_12basic_stringIcNS_11char_traitsIcEENS_9allocatorIcEEE5__repES5_EC2B7v160006INS_18__default_init_tagERKS5_EEOT_OT0_, symObjAddr: 0xF21C, symBinAddr: 0x10001187C, symSize: 0x40 }
  - { offsetInCU: 0x58025, offset: 0x58025, size: 0x8, addend: 0x0, symName: __ZNSt3__122__compressed_pair_elemINS_9allocatorIcEELi1ELb1EEC2B7v160006IRKS2_vEEOT_, symObjAddr: 0xF25C, symBinAddr: 0x1000118BC, symSize: 0x18 }
  - { offsetInCU: 0x58067, offset: 0x58067, size: 0x8, addend: 0x0, symName: __ZNSt3__116allocator_traitsINS_9allocatorIcEEE8max_sizeB7v160006IS2_vvEEmRKS2_, symObjAddr: 0xF274, symBinAddr: 0x1000118D4, symSize: 0x28 }
  - { offsetInCU: 0x58093, offset: 0x58093, size: 0x8, addend: 0x0, symName: __ZNSt3__112basic_stringIcNS_11char_traitsIcEENS_9allocatorIcEEE10__align_itB7v160006ILm16EEEmm, symObjAddr: 0xF29C, symBinAddr: 0x1000118FC, symSize: 0x1C }
  - { offsetInCU: 0x580C1, offset: 0x580C1, size: 0x8, addend: 0x0, symName: __ZNSt3__19allocatorIcE8allocateB7v160006Em, symObjAddr: 0xF2B8, symBinAddr: 0x100011918, symSize: 0x58 }
  - { offsetInCU: 0x5811D, offset: 0x5811D, size: 0x8, addend: 0x0, symName: __ZNKSt3__114__copy_trivialclB7v160006IKccLi0EEENS_4pairIPT_PT0_EES5_S5_S7_, symObjAddr: 0xF50C, symBinAddr: 0x100011B6C, symSize: 0x48 }
  - { offsetInCU: 0x58185, offset: 0x58185, size: 0x8, addend: 0x0, symName: __ZNSt3__119__unwrap_range_implIPKcS2_E8__unwrapB7v160006ES2_S2_, symObjAddr: 0xF618, symBinAddr: 0x100011C78, symSize: 0x58 }
  - { offsetInCU: 0x581BC, offset: 0x581BC, size: 0x8, addend: 0x0, symName: __ZNSt3__14pairIPKcS2_EC1B7v160006IS2_S2_LPv0EEEOT_OT0_, symObjAddr: 0xF694, symBinAddr: 0x100011CF4, symSize: 0x3C }
  - { offsetInCU: 0x5821A, offset: 0x5821A, size: 0x8, addend: 0x0, symName: __ZNSt3__118__unwrap_iter_implIPKcLb1EE8__unwrapB7v160006ES2_, symObjAddr: 0xF6D0, symBinAddr: 0x100011D30, symSize: 0x24 }
  - { offsetInCU: 0x5823D, offset: 0x5823D, size: 0x8, addend: 0x0, symName: __ZNSt3__14pairIPKcS2_EC2B7v160006IS2_S2_LPv0EEEOT_OT0_, symObjAddr: 0xF6F4, symBinAddr: 0x100011D54, symSize: 0x34 }
  - { offsetInCU: 0x582A7, offset: 0x582A7, size: 0x8, addend: 0x0, symName: __ZNSt3__14pairIPKcPcEC1B7v160006IRS2_S3_LPv0EEEOT_OT0_, symObjAddr: 0xF7DC, symBinAddr: 0x100011E3C, symSize: 0x3C }
  - { offsetInCU: 0x58305, offset: 0x58305, size: 0x8, addend: 0x0, symName: __ZNSt3__14pairIPKcPcEC2B7v160006IRS2_S3_LPv0EEEOT_OT0_, symObjAddr: 0xF818, symBinAddr: 0x100011E78, symSize: 0x34 }
  - { offsetInCU: 0x58363, offset: 0x58363, size: 0x8, addend: 0x0, symName: __ZNSt3__118__unwrap_iter_implIPcLb1EE8__unwrapB7v160006ES1_, symObjAddr: 0xF84C, symBinAddr: 0x100011EAC, symSize: 0x24 }
  - { offsetInCU: 0x58386, offset: 0x58386, size: 0x8, addend: 0x0, symName: __ZNSt3__14pairIPKcPcEC1B7v160006IS2_S3_LPv0EEEOT_OT0_, symObjAddr: 0xF870, symBinAddr: 0x100011ED0, symSize: 0x3C }
  - { offsetInCU: 0x583E4, offset: 0x583E4, size: 0x8, addend: 0x0, symName: __ZNSt3__14pairIPKcPcEC2B7v160006IS2_S3_LPv0EEEOT_OT0_, symObjAddr: 0xF8AC, symBinAddr: 0x100011F0C, symSize: 0x34 }
  - { offsetInCU: 0x58442, offset: 0x58442, size: 0x8, addend: 0x0, symName: __ZNSt3__119__unwrap_range_implIPKcS2_E8__rewrapB7v160006ES2_S2_, symObjAddr: 0xF8E0, symBinAddr: 0x100011F40, symSize: 0x2C }
  - { offsetInCU: 0x58473, offset: 0x58473, size: 0x8, addend: 0x0, symName: __ZNSt3__118__unwrap_iter_implIPKcLb1EE8__rewrapB7v160006ES2_S2_, symObjAddr: 0xF948, symBinAddr: 0x100011FA8, symSize: 0x48 }
  - { offsetInCU: 0x584A4, offset: 0x584A4, size: 0x8, addend: 0x0, symName: __ZNSt3__118__unwrap_iter_implIPcLb1EE8__rewrapB7v160006ES1_S1_, symObjAddr: 0xF990, symBinAddr: 0x100011FF0, symSize: 0x48 }
  - { offsetInCU: 0x584D5, offset: 0x584D5, size: 0x8, addend: 0x0, symName: __ZNSt3__112basic_stringIcNS_11char_traitsIcEENS_9allocatorIcEEE6appendB7v160006ERKS5_, symObjAddr: 0xFA94, symBinAddr: 0x1000120F4, symSize: 0x4C }
  - { offsetInCU: 0x5850A, offset: 0x5850A, size: 0x8, addend: 0x0, symName: __ZNSt3__112basic_stringIcNS_11char_traitsIcEENS_9allocatorIcEEEC2B7v160006EOS5_, symObjAddr: 0xFAE0, symBinAddr: 0x100012140, symSize: 0x80 }
  - { offsetInCU: 0x58543, offset: 0x58543, size: 0x8, addend: 0x0, symName: __ZNSt3__110__get_pairILm0EE3getB7v160006IKNS_12basic_stringIcNS_11char_traitsIcEENS_9allocatorIcEEEENS_6vectorIS8_NS6_IS8_EEEEEERKT_RKNS_4pairISD_T0_EE, symObjAddr: 0xFB74, symBinAddr: 0x1000121D4, symSize: 0x14 }
  - { offsetInCU: 0x58579, offset: 0x58579, size: 0x8, addend: 0x0, symName: __ZNSt3__110__get_pairILm1EE3getB7v160006IKNS_12basic_stringIcNS_11char_traitsIcEENS_9allocatorIcEEEENS_6vectorIS8_NS6_IS8_EEEEEERKT0_RKNS_4pairIT_SD_EE, symObjAddr: 0xFB88, symBinAddr: 0x1000121E8, symSize: 0x18 }
  - { offsetInCU: 0x585AF, offset: 0x585AF, size: 0x8, addend: 0x0, symName: __ZNSt3__15stackINS_12basic_stringIcNS_11char_traitsIcEENS_9allocatorIcEEEENS_5dequeIS6_NS4_IS6_EEEEED2Ev, symObjAddr: 0xFBA0, symBinAddr: 0x100012200, symSize: 0x2C }
  - { offsetInCU: 0x585DB, offset: 0x585DB, size: 0x8, addend: 0x0, symName: __ZNSt3__15dequeINS_12basic_stringIcNS_11char_traitsIcEENS_9allocatorIcEEEENS4_IS6_EEED1B7v160006Ev, symObjAddr: 0xFBCC, symBinAddr: 0x10001222C, symSize: 0x2C }
  - { offsetInCU: 0x58605, offset: 0x58605, size: 0x8, addend: 0x0, symName: __ZNSt3__15dequeINS_12basic_stringIcNS_11char_traitsIcEENS_9allocatorIcEEEENS4_IS6_EEED2B7v160006Ev, symObjAddr: 0xFBF8, symBinAddr: 0x100012258, symSize: 0x9C }
  - { offsetInCU: 0x5865C, offset: 0x5865C, size: 0x8, addend: 0x0, symName: __ZNSt3__15dequeINS_12basic_stringIcNS_11char_traitsIcEENS_9allocatorIcEEEENS4_IS6_EEE5clearEv, symObjAddr: 0xFC94, symBinAddr: 0x1000122F4, symSize: 0x180 }
  - { offsetInCU: 0x586B7, offset: 0x586B7, size: 0x8, addend: 0x0, symName: __ZNSt3__114__split_bufferIPNS_12basic_stringIcNS_11char_traitsIcEENS_9allocatorIcEEEENS4_IS7_EEE5beginB7v160006Ev, symObjAddr: 0xFE14, symBinAddr: 0x100012474, symSize: 0x18 }
  - { offsetInCU: 0x586DD, offset: 0x586DD, size: 0x8, addend: 0x0, symName: __ZNSt3__114__split_bufferIPNS_12basic_stringIcNS_11char_traitsIcEENS_9allocatorIcEEEENS4_IS7_EEE3endB7v160006Ev, symObjAddr: 0xFE2C, symBinAddr: 0x10001248C, symSize: 0x18 }
  - { offsetInCU: 0x58703, offset: 0x58703, size: 0x8, addend: 0x0, symName: __ZNSt3__15dequeINS_12basic_stringIcNS_11char_traitsIcEENS_9allocatorIcEEEENS4_IS6_EEE7__allocB7v160006Ev, symObjAddr: 0xFE44, symBinAddr: 0x1000124A4, symSize: 0x28 }
  - { offsetInCU: 0x58729, offset: 0x58729, size: 0x8, addend: 0x0, symName: __ZNSt3__114__split_bufferIPNS_12basic_stringIcNS_11char_traitsIcEENS_9allocatorIcEEEENS4_IS7_EEED1Ev, symObjAddr: 0xFE6C, symBinAddr: 0x1000124CC, symSize: 0x2C }
  - { offsetInCU: 0x58755, offset: 0x58755, size: 0x8, addend: 0x0, symName: __ZNSt3__15dequeINS_12basic_stringIcNS_11char_traitsIcEENS_9allocatorIcEEEENS4_IS6_EEE5beginB7v160006Ev, symObjAddr: 0xFE98, symBinAddr: 0x1000124F8, symSize: 0xC0 }
  - { offsetInCU: 0x5878A, offset: 0x5878A, size: 0x8, addend: 0x0, symName: __ZNSt3__15dequeINS_12basic_stringIcNS_11char_traitsIcEENS_9allocatorIcEEEENS4_IS6_EEE3endB7v160006Ev, symObjAddr: 0xFF58, symBinAddr: 0x1000125B8, symSize: 0xC4 }
  - { offsetInCU: 0x587CE, offset: 0x587CE, size: 0x8, addend: 0x0, symName: __ZNKSt3__116__deque_iteratorINS_12basic_stringIcNS_11char_traitsIcEENS_9allocatorIcEEEEPS6_RS6_PS7_lLl170EEdeB7v160006Ev, symObjAddr: 0x10050, symBinAddr: 0x1000126B0, symSize: 0x18 }
  - { offsetInCU: 0x587F4, offset: 0x587F4, size: 0x8, addend: 0x0, symName: __ZNSt3__116__deque_iteratorINS_12basic_stringIcNS_11char_traitsIcEENS_9allocatorIcEEEEPS6_RS6_PS7_lLl170EEppB7v160006Ev, symObjAddr: 0x10068, symBinAddr: 0x1000126C8, symSize: 0x70 }
  - { offsetInCU: 0x5881A, offset: 0x5881A, size: 0x8, addend: 0x0, symName: __ZNSt3__15dequeINS_12basic_stringIcNS_11char_traitsIcEENS_9allocatorIcEEEENS4_IS6_EEE6__sizeB7v160006Ev, symObjAddr: 0x100D8, symBinAddr: 0x100012738, symSize: 0x28 }
  - { offsetInCU: 0x58840, offset: 0x58840, size: 0x8, addend: 0x0, symName: __ZNKSt3__114__split_bufferIPNS_12basic_stringIcNS_11char_traitsIcEENS_9allocatorIcEEEENS4_IS7_EEE4sizeB7v160006Ev, symObjAddr: 0x10100, symBinAddr: 0x100012760, symSize: 0x28 }
  - { offsetInCU: 0x58866, offset: 0x58866, size: 0x8, addend: 0x0, symName: __ZNSt3__114__split_bufferIPNS_12basic_stringIcNS_11char_traitsIcEENS_9allocatorIcEEEENS4_IS7_EEE5frontB7v160006Ev, symObjAddr: 0x10128, symBinAddr: 0x100012788, symSize: 0x18 }
  - { offsetInCU: 0x5888C, offset: 0x5888C, size: 0x8, addend: 0x0, symName: __ZNSt3__114__split_bufferIPNS_12basic_stringIcNS_11char_traitsIcEENS_9allocatorIcEEEENS4_IS7_EEE9pop_frontB7v160006Ev, symObjAddr: 0x10140, symBinAddr: 0x1000127A0, symSize: 0x2C }
  - { offsetInCU: 0x588B2, offset: 0x588B2, size: 0x8, addend: 0x0, symName: __ZNKSt3__114__split_bufferIPNS_12basic_stringIcNS_11char_traitsIcEENS_9allocatorIcEEEENS4_IS7_EEE5emptyB7v160006Ev, symObjAddr: 0x1016C, symBinAddr: 0x1000127CC, symSize: 0x28 }
  - { offsetInCU: 0x588D8, offset: 0x588D8, size: 0x8, addend: 0x0, symName: __ZNSt3__116__deque_iteratorINS_12basic_stringIcNS_11char_traitsIcEENS_9allocatorIcEEEEPS6_RS6_PS7_lLl170EEC1B7v160006ES9_S7_, symObjAddr: 0x10194, symBinAddr: 0x1000127F4, symSize: 0x3C }
  - { offsetInCU: 0x58920, offset: 0x58920, size: 0x8, addend: 0x0, symName: __ZNSt3__116__deque_iteratorINS_12basic_stringIcNS_11char_traitsIcEENS_9allocatorIcEEEEPS6_RS6_PS7_lLl170EEC2B7v160006ES9_S7_, symObjAddr: 0x101D0, symBinAddr: 0x100012830, symSize: 0x2C }
  - { offsetInCU: 0x58968, offset: 0x58968, size: 0x8, addend: 0x0, symName: __ZNKSt3__15dequeINS_12basic_stringIcNS_11char_traitsIcEENS_9allocatorIcEEEENS4_IS6_EEE4sizeB7v160006Ev, symObjAddr: 0x101FC, symBinAddr: 0x10001285C, symSize: 0x28 }
  - { offsetInCU: 0x5898E, offset: 0x5898E, size: 0x8, addend: 0x0, symName: __ZNKSt3__15dequeINS_12basic_stringIcNS_11char_traitsIcEENS_9allocatorIcEEEENS4_IS6_EEE6__sizeB7v160006Ev, symObjAddr: 0x10224, symBinAddr: 0x100012884, symSize: 0x28 }
  - { offsetInCU: 0x589B4, offset: 0x589B4, size: 0x8, addend: 0x0, symName: __ZNKSt3__117__compressed_pairImNS_9allocatorINS_12basic_stringIcNS_11char_traitsIcEENS1_IcEEEEEEE5firstB7v160006Ev, symObjAddr: 0x1024C, symBinAddr: 0x1000128AC, symSize: 0x24 }
  - { offsetInCU: 0x589DA, offset: 0x589DA, size: 0x8, addend: 0x0, symName: __ZNKSt3__122__compressed_pair_elemImLi0ELb0EE5__getB7v160006Ev, symObjAddr: 0x10270, symBinAddr: 0x1000128D0, symSize: 0x14 }
  - { offsetInCU: 0x58A00, offset: 0x58A00, size: 0x8, addend: 0x0, symName: __ZNSt3__117__compressed_pairImNS_9allocatorINS_12basic_stringIcNS_11char_traitsIcEENS1_IcEEEEEEE5firstB7v160006Ev, symObjAddr: 0x102B4, symBinAddr: 0x100012914, symSize: 0x24 }
  - { offsetInCU: 0x58A26, offset: 0x58A26, size: 0x8, addend: 0x0, symName: __ZNSt3__122__compressed_pair_elemImLi0ELb0EE5__getB7v160006Ev, symObjAddr: 0x102D8, symBinAddr: 0x100012938, symSize: 0x14 }
  - { offsetInCU: 0x58A4C, offset: 0x58A4C, size: 0x8, addend: 0x0, symName: __ZNSt3__114__split_bufferIPNS_12basic_stringIcNS_11char_traitsIcEENS_9allocatorIcEEEENS4_IS7_EEE19__destruct_at_beginB7v160006EPS7_, symObjAddr: 0x102EC, symBinAddr: 0x10001294C, symSize: 0x2C }
  - { offsetInCU: 0x58A80, offset: 0x58A80, size: 0x8, addend: 0x0, symName: __ZNSt3__114__split_bufferIPNS_12basic_stringIcNS_11char_traitsIcEENS_9allocatorIcEEEENS4_IS7_EEE19__destruct_at_beginEPS7_NS_17integral_constantIbLb1EEE, symObjAddr: 0x10318, symBinAddr: 0x100012978, symSize: 0x20 }
  - { offsetInCU: 0x58AC0, offset: 0x58AC0, size: 0x8, addend: 0x0, symName: __ZNSt3__117__compressed_pairImNS_9allocatorINS_12basic_stringIcNS_11char_traitsIcEENS1_IcEEEEEEE6secondB7v160006Ev, symObjAddr: 0x10338, symBinAddr: 0x100012998, symSize: 0x24 }
  - { offsetInCU: 0x58AE6, offset: 0x58AE6, size: 0x8, addend: 0x0, symName: __ZNSt3__114__split_bufferIPNS_12basic_stringIcNS_11char_traitsIcEENS_9allocatorIcEEEENS4_IS7_EEED2Ev, symObjAddr: 0x1035C, symBinAddr: 0x1000129BC, symSize: 0x8C }
  - { offsetInCU: 0x58B12, offset: 0x58B12, size: 0x8, addend: 0x0, symName: __ZNSt3__114__split_bufferIPNS_12basic_stringIcNS_11char_traitsIcEENS_9allocatorIcEEEENS4_IS7_EEE5clearB7v160006Ev, symObjAddr: 0x103E8, symBinAddr: 0x100012A48, symSize: 0x28 }
  - { offsetInCU: 0x58B38, offset: 0x58B38, size: 0x8, addend: 0x0, symName: __ZNSt3__116allocator_traitsINS_9allocatorIPNS_12basic_stringIcNS_11char_traitsIcEENS1_IcEEEEEEE10deallocateB7v160006ERS8_PS7_m, symObjAddr: 0x10410, symBinAddr: 0x100012A70, symSize: 0x34 }
  - { offsetInCU: 0x58B7A, offset: 0x58B7A, size: 0x8, addend: 0x0, symName: __ZNSt3__114__split_bufferIPNS_12basic_stringIcNS_11char_traitsIcEENS_9allocatorIcEEEENS4_IS7_EEE7__allocB7v160006Ev, symObjAddr: 0x10444, symBinAddr: 0x100012AA4, symSize: 0x28 }
  - { offsetInCU: 0x58BA0, offset: 0x58BA0, size: 0x8, addend: 0x0, symName: __ZNKSt3__114__split_bufferIPNS_12basic_stringIcNS_11char_traitsIcEENS_9allocatorIcEEEENS4_IS7_EEE8capacityB7v160006Ev, symObjAddr: 0x1046C, symBinAddr: 0x100012ACC, symSize: 0x40 }
  - { offsetInCU: 0x58BC6, offset: 0x58BC6, size: 0x8, addend: 0x0, symName: __ZNSt3__114__split_bufferIPNS_12basic_stringIcNS_11char_traitsIcEENS_9allocatorIcEEEENS4_IS7_EEE17__destruct_at_endB7v160006EPS7_, symObjAddr: 0x104AC, symBinAddr: 0x100012B0C, symSize: 0x2C }
  - { offsetInCU: 0x58BFA, offset: 0x58BFA, size: 0x8, addend: 0x0, symName: __ZNSt3__114__split_bufferIPNS_12basic_stringIcNS_11char_traitsIcEENS_9allocatorIcEEEENS4_IS7_EEE17__destruct_at_endB7v160006EPS7_NS_17integral_constantIbLb0EEE, symObjAddr: 0x104D8, symBinAddr: 0x100012B38, symSize: 0x80 }
  - { offsetInCU: 0x58C40, offset: 0x58C40, size: 0x8, addend: 0x0, symName: __ZNSt3__116allocator_traitsINS_9allocatorIPNS_12basic_stringIcNS_11char_traitsIcEENS1_IcEEEEEEE7destroyB7v160006IS7_vvEEvRS8_PT_, symObjAddr: 0x10558, symBinAddr: 0x100012BB8, symSize: 0x28 }
  - { offsetInCU: 0x58C7B, offset: 0x58C7B, size: 0x8, addend: 0x0, symName: __ZNSt3__19allocatorIPNS_12basic_stringIcNS_11char_traitsIcEENS0_IcEEEEE10deallocateB7v160006EPS6_m, symObjAddr: 0x105C8, symBinAddr: 0x100012C28, symSize: 0x40 }
  - { offsetInCU: 0x58CBD, offset: 0x58CBD, size: 0x8, addend: 0x0, symName: __ZNSt3__117__compressed_pairIPPNS_12basic_stringIcNS_11char_traitsIcEENS_9allocatorIcEEEENS4_IS7_EEE6secondB7v160006Ev, symObjAddr: 0x10608, symBinAddr: 0x100012C68, symSize: 0x24 }
  - { offsetInCU: 0x58CE3, offset: 0x58CE3, size: 0x8, addend: 0x0, symName: __ZNSt3__122__compressed_pair_elemINS_9allocatorIPNS_12basic_stringIcNS_11char_traitsIcEENS1_IcEEEEEELi1ELb1EE5__getB7v160006Ev, symObjAddr: 0x1062C, symBinAddr: 0x100012C8C, symSize: 0x14 }
  - { offsetInCU: 0x58D09, offset: 0x58D09, size: 0x8, addend: 0x0, symName: __ZNKSt3__114__split_bufferIPNS_12basic_stringIcNS_11char_traitsIcEENS_9allocatorIcEEEENS4_IS7_EEE9__end_capB7v160006Ev, symObjAddr: 0x10640, symBinAddr: 0x100012CA0, symSize: 0x28 }
  - { offsetInCU: 0x58D2F, offset: 0x58D2F, size: 0x8, addend: 0x0, symName: __ZNKSt3__117__compressed_pairIPPNS_12basic_stringIcNS_11char_traitsIcEENS_9allocatorIcEEEENS4_IS7_EEE5firstB7v160006Ev, symObjAddr: 0x10668, symBinAddr: 0x100012CC8, symSize: 0x24 }
  - { offsetInCU: 0x58D55, offset: 0x58D55, size: 0x8, addend: 0x0, symName: __ZNKSt3__122__compressed_pair_elemIPPNS_12basic_stringIcNS_11char_traitsIcEENS_9allocatorIcEEEELi0ELb0EE5__getB7v160006Ev, symObjAddr: 0x1068C, symBinAddr: 0x100012CEC, symSize: 0x14 }
  - { offsetInCU: 0x58D7B, offset: 0x58D7B, size: 0x8, addend: 0x0, symName: __ZNSt3__16vectorINS_12basic_stringIcNS_11char_traitsIcEENS_9allocatorIcEEEENS4_IS6_EEE11__make_iterB7v160006EPS6_, symObjAddr: 0x106A0, symBinAddr: 0x100012D00, symSize: 0x34 }
  - { offsetInCU: 0x58DB0, offset: 0x58DB0, size: 0x8, addend: 0x0, symName: __ZNSt3__111__wrap_iterIPNS_12basic_stringIcNS_11char_traitsIcEENS_9allocatorIcEEEEEC1B7v160006EPKvS7_, symObjAddr: 0x106D4, symBinAddr: 0x100012D34, symSize: 0x3C }
  - { offsetInCU: 0x58DF6, offset: 0x58DF6, size: 0x8, addend: 0x0, symName: __ZNSt3__111__wrap_iterIPNS_12basic_stringIcNS_11char_traitsIcEENS_9allocatorIcEEEEEC2B7v160006EPKvS7_, symObjAddr: 0x10710, symBinAddr: 0x100012D70, symSize: 0x24 }
  - { offsetInCU: 0x58E3C, offset: 0x58E3C, size: 0x8, addend: 0x0, symName: __ZNKSt3__111__wrap_iterIPNS_12basic_stringIcNS_11char_traitsIcEENS_9allocatorIcEEEEE4baseB7v160006Ev, symObjAddr: 0x1077C, symBinAddr: 0x100012DDC, symSize: 0x18 }
  - { offsetInCU: 0x58E62, offset: 0x58E62, size: 0x8, addend: 0x0, symName: __ZNKSt3__16chrono10time_pointINS_4__fs10filesystem16_FilesystemClockENS0_8durationInNS_5ratioILl1ELl1000000000EEEEEE16time_since_epochB7v160006Ev, symObjAddr: 0x1082C, symBinAddr: 0x100012E8C, symSize: 0x30 }
  - { offsetInCU: 0x58E93, offset: 0x58E93, size: 0x8, addend: 0x0, symName: __ZNKSt3__16chrono13__duration_ltINS0_8durationInNS_5ratioILl1ELl1000000000EEEEES5_EclB7v160006ERKS5_S8_, symObjAddr: 0x1085C, symBinAddr: 0x100012EBC, symSize: 0x74 }
  - { offsetInCU: 0x58ED7, offset: 0x58ED7, size: 0x8, addend: 0x0, symName: __ZNKSt3__16chrono8durationInNS_5ratioILl1ELl1000000000EEEE5countB7v160006Ev, symObjAddr: 0x108D0, symBinAddr: 0x100012F30, symSize: 0x28 }
  - { offsetInCU: 0x58EFD, offset: 0x58EFD, size: 0x8, addend: 0x0, symName: __ZNSt3__16vectorI11TargetRulesNS_9allocatorIS1_EEE11__make_iterB7v160006EPS1_, symObjAddr: 0x108F8, symBinAddr: 0x100012F58, symSize: 0x34 }
  - { offsetInCU: 0x58F32, offset: 0x58F32, size: 0x8, addend: 0x0, symName: __ZNSt3__111__wrap_iterIP11TargetRulesEC1B7v160006EPKvS2_, symObjAddr: 0x1092C, symBinAddr: 0x100012F8C, symSize: 0x3C }
  - { offsetInCU: 0x58F78, offset: 0x58F78, size: 0x8, addend: 0x0, symName: __ZNSt3__111__wrap_iterIP11TargetRulesEC2B7v160006EPKvS2_, symObjAddr: 0x10968, symBinAddr: 0x100012FC8, symSize: 0x24 }
  - { offsetInCU: 0x58FBE, offset: 0x58FBE, size: 0x8, addend: 0x0, symName: __ZNKSt3__111__wrap_iterIP11TargetRulesE4baseB7v160006Ev, symObjAddr: 0x109D4, symBinAddr: 0x100013034, symSize: 0x18 }
  - { offsetInCU: 0x58FE4, offset: 0x58FE4, size: 0x8, addend: 0x0, symName: __ZN11TargetRulesC2ERKS_, symObjAddr: 0x109EC, symBinAddr: 0x10001304C, symSize: 0xA8 }
  - { offsetInCU: 0x59019, offset: 0x59019, size: 0x8, addend: 0x0, symName: __ZNSt3__112basic_stringIcNS_11char_traitsIcEENS_9allocatorIcEEE14__erase_to_endB7v160006Em, symObjAddr: 0x10A94, symBinAddr: 0x1000130F4, symSize: 0x40 }
  - { offsetInCU: 0x5904E, offset: 0x5904E, size: 0x8, addend: 0x0, symName: __ZNSt3__112basic_stringIcNS_11char_traitsIcEENS_9allocatorIcEEE19__null_terminate_atB7v160006EPcm, symObjAddr: 0x10AD4, symBinAddr: 0x100013134, symSize: 0x5C }
  - { offsetInCU: 0x59092, offset: 0x59092, size: 0x8, addend: 0x0, symName: __ZNSt3__112basic_stringIcNS_11char_traitsIcEENS_9allocatorIcEEE10__set_sizeB7v160006Em, symObjAddr: 0x10B30, symBinAddr: 0x100013190, symSize: 0x54 }
  - { offsetInCU: 0x590C7, offset: 0x590C7, size: 0x8, addend: 0x0, symName: __ZNSt3__112basic_stringIcNS_11char_traitsIcEENS_9allocatorIcEEE27__invalidate_iterators_pastB7v160006Em, symObjAddr: 0x10B84, symBinAddr: 0x1000131E4, symSize: 0x14 }
  - { offsetInCU: 0x590FE, offset: 0x590FE, size: 0x8, addend: 0x0, symName: __ZNSt3__16vectorIPcNS_9allocatorIS1_EEEC2B7v160006Ev, symObjAddr: 0x10B98, symBinAddr: 0x1000131F8, symSize: 0x58 }
  - { offsetInCU: 0x59128, offset: 0x59128, size: 0x8, addend: 0x0, symName: __ZNSt3__117__compressed_pairIPPcNS_9allocatorIS1_EEEC1B7v160006IDnNS_18__default_init_tagEEEOT_OT0_, symObjAddr: 0x10BF0, symBinAddr: 0x100013250, symSize: 0x3C }
  - { offsetInCU: 0x59180, offset: 0x59180, size: 0x8, addend: 0x0, symName: __ZNSt3__117__compressed_pairIPPcNS_9allocatorIS1_EEEC2B7v160006IDnNS_18__default_init_tagEEEOT_OT0_, symObjAddr: 0x10C3C, symBinAddr: 0x10001329C, symSize: 0x40 }
  - { offsetInCU: 0x591D8, offset: 0x591D8, size: 0x8, addend: 0x0, symName: __ZNSt3__122__compressed_pair_elemIPPcLi0ELb0EEC2B7v160006IDnvEEOT_, symObjAddr: 0x10C7C, symBinAddr: 0x1000132DC, symSize: 0x1C }
  - { offsetInCU: 0x5921A, offset: 0x5921A, size: 0x8, addend: 0x0, symName: __ZNSt3__122__compressed_pair_elemINS_9allocatorIPcEELi1ELb1EEC2B7v160006ENS_18__default_init_tagE, symObjAddr: 0x10C98, symBinAddr: 0x1000132F8, symSize: 0x2C }
  - { offsetInCU: 0x5924E, offset: 0x5924E, size: 0x8, addend: 0x0, symName: __ZNSt3__19allocatorIPcEC2B7v160006Ev, symObjAddr: 0x10CC4, symBinAddr: 0x100013324, symSize: 0x2C }
  - { offsetInCU: 0x59278, offset: 0x59278, size: 0x8, addend: 0x0, symName: __ZNSt3__116__non_trivial_ifILb1ENS_9allocatorIPcEEEC2B7v160006Ev, symObjAddr: 0x10CF0, symBinAddr: 0x100013350, symSize: 0x14 }
  - { offsetInCU: 0x592A2, offset: 0x592A2, size: 0x8, addend: 0x0, symName: __ZNSt3__16vectorIPcNS_9allocatorIS1_EEE9__end_capB7v160006Ev, symObjAddr: 0x10D04, symBinAddr: 0x100013364, symSize: 0x28 }
  - { offsetInCU: 0x592C8, offset: 0x592C8, size: 0x8, addend: 0x0, symName: __ZNSt3__16vectorIPcNS_9allocatorIS1_EEE22__construct_one_at_endB7v160006IJRKS1_EEEvDpOT_, symObjAddr: 0x10D2C, symBinAddr: 0x10001338C, symSize: 0x90 }
  - { offsetInCU: 0x59317, offset: 0x59317, size: 0x8, addend: 0x0, symName: __ZNSt3__16vectorIPcNS_9allocatorIS1_EEE21__push_back_slow_pathIRKS1_EEvOT_, symObjAddr: 0x10DBC, symBinAddr: 0x10001341C, symSize: 0xD8 }
  - { offsetInCU: 0x59375, offset: 0x59375, size: 0x8, addend: 0x0, symName: __ZNSt3__117__compressed_pairIPPcNS_9allocatorIS1_EEE5firstB7v160006Ev, symObjAddr: 0x10E94, symBinAddr: 0x1000134F4, symSize: 0x24 }
  - { offsetInCU: 0x5939B, offset: 0x5939B, size: 0x8, addend: 0x0, symName: __ZNSt3__122__compressed_pair_elemIPPcLi0ELb0EE5__getB7v160006Ev, symObjAddr: 0x10EB8, symBinAddr: 0x100013518, symSize: 0x14 }
  - { offsetInCU: 0x593DD, offset: 0x593DD, size: 0x8, addend: 0x0, symName: __ZNSt3__16vectorIPcNS_9allocatorIS1_EEE21_ConstructTransactionC1B7v160006ERS4_m, symObjAddr: 0x10ECC, symBinAddr: 0x10001352C, symSize: 0x3C }
  - { offsetInCU: 0x59425, offset: 0x59425, size: 0x8, addend: 0x0, symName: __ZNSt3__116allocator_traitsINS_9allocatorIPcEEE9constructB7v160006IS2_JRKS2_EvvEEvRS3_PT_DpOT0_, symObjAddr: 0x10F08, symBinAddr: 0x100013568, symSize: 0x30 }
  - { offsetInCU: 0x5947A, offset: 0x5947A, size: 0x8, addend: 0x0, symName: __ZNSt3__16vectorIPcNS_9allocatorIS1_EEE7__allocB7v160006Ev, symObjAddr: 0x10F38, symBinAddr: 0x100013598, symSize: 0x28 }
  - { offsetInCU: 0x594A0, offset: 0x594A0, size: 0x8, addend: 0x0, symName: __ZNSt3__16vectorIPcNS_9allocatorIS1_EEE21_ConstructTransactionD1B7v160006Ev, symObjAddr: 0x10F74, symBinAddr: 0x1000135D4, symSize: 0x2C }
  - { offsetInCU: 0x594CA, offset: 0x594CA, size: 0x8, addend: 0x0, symName: __ZNSt3__16vectorIPcNS_9allocatorIS1_EEE21_ConstructTransactionC2B7v160006ERS4_m, symObjAddr: 0x10FA0, symBinAddr: 0x100013600, symSize: 0x44 }
  - { offsetInCU: 0x59512, offset: 0x59512, size: 0x8, addend: 0x0, symName: __ZNSt3__117__compressed_pairIPPcNS_9allocatorIS1_EEE6secondB7v160006Ev, symObjAddr: 0x11010, symBinAddr: 0x100013670, symSize: 0x24 }
  - { offsetInCU: 0x59538, offset: 0x59538, size: 0x8, addend: 0x0, symName: __ZNSt3__122__compressed_pair_elemINS_9allocatorIPcEELi1ELb1EE5__getB7v160006Ev, symObjAddr: 0x11034, symBinAddr: 0x100013694, symSize: 0x14 }
  - { offsetInCU: 0x5955E, offset: 0x5955E, size: 0x8, addend: 0x0, symName: __ZNSt3__16vectorIPcNS_9allocatorIS1_EEE21_ConstructTransactionD2B7v160006Ev, symObjAddr: 0x11048, symBinAddr: 0x1000136A8, symSize: 0x20 }
  - { offsetInCU: 0x59588, offset: 0x59588, size: 0x8, addend: 0x0, symName: __ZNKSt3__16vectorIPcNS_9allocatorIS1_EEE11__recommendB7v160006Em, symObjAddr: 0x11068, symBinAddr: 0x1000136C8, symSize: 0xB4 }
  - { offsetInCU: 0x595DD, offset: 0x595DD, size: 0x8, addend: 0x0, symName: __ZNKSt3__16vectorIPcNS_9allocatorIS1_EEE4sizeB7v160006Ev, symObjAddr: 0x1111C, symBinAddr: 0x10001377C, symSize: 0x28 }
  - { offsetInCU: 0x59603, offset: 0x59603, size: 0x8, addend: 0x0, symName: __ZNSt3__114__split_bufferIPcRNS_9allocatorIS1_EEEC1EmmS4_, symObjAddr: 0x11144, symBinAddr: 0x1000137A4, symSize: 0x44 }
  - { offsetInCU: 0x59659, offset: 0x59659, size: 0x8, addend: 0x0, symName: __ZNSt3__114__split_bufferIPcRNS_9allocatorIS1_EEED1Ev, symObjAddr: 0x112A0, symBinAddr: 0x100013900, symSize: 0x2C }
  - { offsetInCU: 0x59685, offset: 0x59685, size: 0x8, addend: 0x0, symName: __ZNKSt3__16vectorIPcNS_9allocatorIS1_EEE8max_sizeEv, symObjAddr: 0x112CC, symBinAddr: 0x10001392C, symSize: 0x60 }
  - { offsetInCU: 0x596AD, offset: 0x596AD, size: 0x8, addend: 0x0, symName: __ZNKSt3__16vectorIPcNS_9allocatorIS1_EEE20__throw_length_errorB7v160006Ev, symObjAddr: 0x1132C, symBinAddr: 0x10001398C, symSize: 0x1C }
  - { offsetInCU: 0x596D3, offset: 0x596D3, size: 0x8, addend: 0x0, symName: __ZNKSt3__16vectorIPcNS_9allocatorIS1_EEE8capacityB7v160006Ev, symObjAddr: 0x11348, symBinAddr: 0x1000139A8, symSize: 0x40 }
  - { offsetInCU: 0x59704, offset: 0x59704, size: 0x8, addend: 0x0, symName: __ZNSt3__116allocator_traitsINS_9allocatorIPcEEE8max_sizeB7v160006IS3_vvEEmRKS3_, symObjAddr: 0x11388, symBinAddr: 0x1000139E8, symSize: 0x28 }
  - { offsetInCU: 0x59730, offset: 0x59730, size: 0x8, addend: 0x0, symName: __ZNKSt3__16vectorIPcNS_9allocatorIS1_EEE7__allocB7v160006Ev, symObjAddr: 0x113B0, symBinAddr: 0x100013A10, symSize: 0x28 }
  - { offsetInCU: 0x59756, offset: 0x59756, size: 0x8, addend: 0x0, symName: __ZNKSt3__117__compressed_pairIPPcNS_9allocatorIS1_EEE6secondB7v160006Ev, symObjAddr: 0x113D8, symBinAddr: 0x100013A38, symSize: 0x24 }
  - { offsetInCU: 0x5977C, offset: 0x5977C, size: 0x8, addend: 0x0, symName: __ZNKSt3__122__compressed_pair_elemINS_9allocatorIPcEELi1ELb1EE5__getB7v160006Ev, symObjAddr: 0x113FC, symBinAddr: 0x100013A5C, symSize: 0x14 }
  - { offsetInCU: 0x597A2, offset: 0x597A2, size: 0x8, addend: 0x0, symName: __ZNKSt3__16vectorIPcNS_9allocatorIS1_EEE9__end_capB7v160006Ev, symObjAddr: 0x11410, symBinAddr: 0x100013A70, symSize: 0x28 }
  - { offsetInCU: 0x597C8, offset: 0x597C8, size: 0x8, addend: 0x0, symName: __ZNKSt3__117__compressed_pairIPPcNS_9allocatorIS1_EEE5firstB7v160006Ev, symObjAddr: 0x11438, symBinAddr: 0x100013A98, symSize: 0x24 }
  - { offsetInCU: 0x597EE, offset: 0x597EE, size: 0x8, addend: 0x0, symName: __ZNKSt3__122__compressed_pair_elemIPPcLi0ELb0EE5__getB7v160006Ev, symObjAddr: 0x1145C, symBinAddr: 0x100013ABC, symSize: 0x14 }
  - { offsetInCU: 0x59814, offset: 0x59814, size: 0x8, addend: 0x0, symName: __ZNSt3__114__split_bufferIPcRNS_9allocatorIS1_EEEC2EmmS4_, symObjAddr: 0x11470, symBinAddr: 0x100013AD0, symSize: 0xD4 }
  - { offsetInCU: 0x59888, offset: 0x59888, size: 0x8, addend: 0x0, symName: __ZNSt3__117__compressed_pairIPPcRNS_9allocatorIS1_EEEC1B7v160006IDnS5_EEOT_OT0_, symObjAddr: 0x11544, symBinAddr: 0x100013BA4, symSize: 0x3C }
  - { offsetInCU: 0x598E0, offset: 0x598E0, size: 0x8, addend: 0x0, symName: __ZNSt3__114__split_bufferIPcRNS_9allocatorIS1_EEE7__allocB7v160006Ev, symObjAddr: 0x115C0, symBinAddr: 0x100013C20, symSize: 0x28 }
  - { offsetInCU: 0x59906, offset: 0x59906, size: 0x8, addend: 0x0, symName: __ZNSt3__114__split_bufferIPcRNS_9allocatorIS1_EEE9__end_capB7v160006Ev, symObjAddr: 0x115E8, symBinAddr: 0x100013C48, symSize: 0x28 }
  - { offsetInCU: 0x5992C, offset: 0x5992C, size: 0x8, addend: 0x0, symName: __ZNSt3__117__compressed_pairIPPcRNS_9allocatorIS1_EEEC2B7v160006IDnS5_EEOT_OT0_, symObjAddr: 0x11610, symBinAddr: 0x100013C70, symSize: 0x48 }
  - { offsetInCU: 0x59984, offset: 0x59984, size: 0x8, addend: 0x0, symName: __ZNSt3__122__compressed_pair_elemIRNS_9allocatorIPcEELi1ELb0EEC2B7v160006IS4_vEEOT_, symObjAddr: 0x11658, symBinAddr: 0x100013CB8, symSize: 0x20 }
  - { offsetInCU: 0x599C6, offset: 0x599C6, size: 0x8, addend: 0x0, symName: __ZNSt3__19allocatorIPcE8allocateB7v160006Em, symObjAddr: 0x11678, symBinAddr: 0x100013CD8, symSize: 0x58 }
  - { offsetInCU: 0x599FA, offset: 0x599FA, size: 0x8, addend: 0x0, symName: __ZNSt3__117__compressed_pairIPPcRNS_9allocatorIS1_EEE6secondB7v160006Ev, symObjAddr: 0x116D0, symBinAddr: 0x100013D30, symSize: 0x28 }
  - { offsetInCU: 0x59A20, offset: 0x59A20, size: 0x8, addend: 0x0, symName: __ZNSt3__122__compressed_pair_elemIRNS_9allocatorIPcEELi1ELb0EE5__getB7v160006Ev, symObjAddr: 0x116F8, symBinAddr: 0x100013D58, symSize: 0x18 }
  - { offsetInCU: 0x59A46, offset: 0x59A46, size: 0x8, addend: 0x0, symName: __ZNSt3__117__compressed_pairIPPcRNS_9allocatorIS1_EEE5firstB7v160006Ev, symObjAddr: 0x11710, symBinAddr: 0x100013D70, symSize: 0x24 }
  - { offsetInCU: 0x59A6C, offset: 0x59A6C, size: 0x8, addend: 0x0, symName: __ZNKSt3__16vectorIPcNS_9allocatorIS1_EEE17__annotate_deleteB7v160006Ev, symObjAddr: 0x11734, symBinAddr: 0x100013D94, symSize: 0xB8 }
  - { offsetInCU: 0x59A92, offset: 0x59A92, size: 0x8, addend: 0x0, symName: __ZNSt3__116reverse_iteratorIPPcEC1B7v160006ES2_, symObjAddr: 0x11864, symBinAddr: 0x100013EC4, symSize: 0x34 }
  - { offsetInCU: 0x59ACA, offset: 0x59ACA, size: 0x8, addend: 0x0, symName: __ZNKSt3__116reverse_iteratorIPPcE4baseB7v160006Ev, symObjAddr: 0x11898, symBinAddr: 0x100013EF8, symSize: 0x18 }
  - { offsetInCU: 0x59AF0, offset: 0x59AF0, size: 0x8, addend: 0x0, symName: __ZNKSt3__16vectorIPcNS_9allocatorIS1_EEE14__annotate_newB7v160006Em, symObjAddr: 0x118EC, symBinAddr: 0x100013F4C, symSize: 0xAC }
  - { offsetInCU: 0x59B25, offset: 0x59B25, size: 0x8, addend: 0x0, symName: __ZNKSt3__16vectorIPcNS_9allocatorIS1_EEE31__annotate_contiguous_containerB7v160006EPKvS6_S6_S6_, symObjAddr: 0x119A8, symBinAddr: 0x100014008, symSize: 0x20 }
  - { offsetInCU: 0x59B7B, offset: 0x59B7B, size: 0x8, addend: 0x0, symName: __ZNKSt3__16vectorIPcNS_9allocatorIS1_EEE4dataB7v160006Ev, symObjAddr: 0x119C8, symBinAddr: 0x100014028, symSize: 0x28 }
  - { offsetInCU: 0x59BC9, offset: 0x59BC9, size: 0x8, addend: 0x0, symName: __ZNKSt3__111__move_loopINS_17_ClassicAlgPolicyEEclB7v160006INS_16reverse_iteratorIPPcEES7_S7_EENS_4pairIT_T1_EES9_T0_SA_, symObjAddr: 0x11CA8, symBinAddr: 0x100014308, symSize: 0xA0 }
  - { offsetInCU: 0x59C34, offset: 0x59C34, size: 0x8, addend: 0x0, symName: __ZNSt3__119__unwrap_range_implINS_16reverse_iteratorIPPcEES4_E8__unwrapB7v160006ES4_S4_, symObjAddr: 0x11E94, symBinAddr: 0x1000144F4, symSize: 0x84 }
  - { offsetInCU: 0x59C6B, offset: 0x59C6B, size: 0x8, addend: 0x0, symName: __ZNSt3__14pairINS_16reverse_iteratorIPPcEES4_EC1B7v160006IS4_S4_LPv0EEEOT_OT0_, symObjAddr: 0x11F18, symBinAddr: 0x100014578, symSize: 0x3C }
  - { offsetInCU: 0x59CC9, offset: 0x59CC9, size: 0x8, addend: 0x0, symName: __ZNSt3__14pairINS_16reverse_iteratorIPPcEES4_EC2B7v160006IS4_S4_LPv0EEEOT_OT0_, symObjAddr: 0x11F54, symBinAddr: 0x1000145B4, symSize: 0x34 }
  - { offsetInCU: 0x59D27, offset: 0x59D27, size: 0x8, addend: 0x0, symName: __ZNSt3__18_IterOpsINS_17_ClassicAlgPolicyEE11__iter_moveB7v160006IRNS_16reverse_iteratorIPPcEEEENS_9enable_ifIXsr12is_referenceIDTdeclsr3stdE7declvalIRT_EEEEE5valueEDTclsr3stdE4movedeclsr3stdE7declvalISB_EEEEE4typeEOSA_, symObjAddr: 0x11FD0, symBinAddr: 0x100014630, symSize: 0x28 }
  - { offsetInCU: 0x59D53, offset: 0x59D53, size: 0x8, addend: 0x0, symName: __ZNKSt3__116reverse_iteratorIPPcEdeB7v160006Ev, symObjAddr: 0x11FF8, symBinAddr: 0x100014658, symSize: 0x28 }
  - { offsetInCU: 0x59D87, offset: 0x59D87, size: 0x8, addend: 0x0, symName: __ZNSt3__116reverse_iteratorIPPcEppB7v160006Ev, symObjAddr: 0x12020, symBinAddr: 0x100014680, symSize: 0x20 }
  - { offsetInCU: 0x59DAD, offset: 0x59DAD, size: 0x8, addend: 0x0, symName: __ZNSt3__18_IterOpsINS_17_ClassicAlgPolicyEE25__validate_iter_referenceB7v160006IRNS_16reverse_iteratorIPPcEEEEvv, symObjAddr: 0x12040, symBinAddr: 0x1000146A0, symSize: 0x4 }
  - { offsetInCU: 0x59DCB, offset: 0x59DCB, size: 0x8, addend: 0x0, symName: __ZNSt3__118__unwrap_iter_implINS_16reverse_iteratorIPPcEELb0EE8__unwrapB7v160006ES4_, symObjAddr: 0x12044, symBinAddr: 0x1000146A4, symSize: 0x24 }
  - { offsetInCU: 0x59DEE, offset: 0x59DEE, size: 0x8, addend: 0x0, symName: __ZNSt3__119__unwrap_range_implINS_16reverse_iteratorIPPcEES4_E8__rewrapB7v160006ES4_S4_, symObjAddr: 0x12068, symBinAddr: 0x1000146C8, symSize: 0x5C }
  - { offsetInCU: 0x59E1F, offset: 0x59E1F, size: 0x8, addend: 0x0, symName: __ZNSt3__118__unwrap_iter_implINS_16reverse_iteratorIPPcEELb0EE8__rewrapB7v160006ES4_S4_, symObjAddr: 0x120C4, symBinAddr: 0x100014724, symSize: 0x2C }
  - { offsetInCU: 0x59E4C, offset: 0x59E4C, size: 0x8, addend: 0x0, symName: __ZNSt3__116reverse_iteratorIPPcEC2B7v160006ES2_, symObjAddr: 0x120F0, symBinAddr: 0x100014750, symSize: 0x28 }
  - { offsetInCU: 0x59E84, offset: 0x59E84, size: 0x8, addend: 0x0, symName: __ZNSt3__114__split_bufferIPcRNS_9allocatorIS1_EEED2Ev, symObjAddr: 0x12118, symBinAddr: 0x100014778, symSize: 0x8C }
  - { offsetInCU: 0x59EB0, offset: 0x59EB0, size: 0x8, addend: 0x0, symName: __ZNSt3__114__split_bufferIPcRNS_9allocatorIS1_EEE5clearB7v160006Ev, symObjAddr: 0x121A4, symBinAddr: 0x100014804, symSize: 0x28 }
  - { offsetInCU: 0x59ED6, offset: 0x59ED6, size: 0x8, addend: 0x0, symName: __ZNSt3__116allocator_traitsINS_9allocatorIPcEEE10deallocateB7v160006ERS3_PS2_m, symObjAddr: 0x121CC, symBinAddr: 0x10001482C, symSize: 0x34 }
  - { offsetInCU: 0x59F18, offset: 0x59F18, size: 0x8, addend: 0x0, symName: __ZNKSt3__114__split_bufferIPcRNS_9allocatorIS1_EEE8capacityB7v160006Ev, symObjAddr: 0x12200, symBinAddr: 0x100014860, symSize: 0x40 }
  - { offsetInCU: 0x59F3E, offset: 0x59F3E, size: 0x8, addend: 0x0, symName: __ZNSt3__114__split_bufferIPcRNS_9allocatorIS1_EEE17__destruct_at_endB7v160006EPS1_, symObjAddr: 0x12240, symBinAddr: 0x1000148A0, symSize: 0x2C }
  - { offsetInCU: 0x59F72, offset: 0x59F72, size: 0x8, addend: 0x0, symName: __ZNSt3__114__split_bufferIPcRNS_9allocatorIS1_EEE17__destruct_at_endB7v160006EPS1_NS_17integral_constantIbLb0EEE, symObjAddr: 0x1226C, symBinAddr: 0x1000148CC, symSize: 0x80 }
  - { offsetInCU: 0x59FB2, offset: 0x59FB2, size: 0x8, addend: 0x0, symName: __ZNSt3__116allocator_traitsINS_9allocatorIPcEEE7destroyB7v160006IS2_vvEEvRS3_PT_, symObjAddr: 0x122EC, symBinAddr: 0x10001494C, symSize: 0x28 }
  - { offsetInCU: 0x59FED, offset: 0x59FED, size: 0x8, addend: 0x0, symName: __ZNSt3__19allocatorIPcE10deallocateB7v160006EPS1_m, symObjAddr: 0x12348, symBinAddr: 0x1000149A8, symSize: 0x40 }
  - { offsetInCU: 0x5A02F, offset: 0x5A02F, size: 0x8, addend: 0x0, symName: __ZNKSt3__114__split_bufferIPcRNS_9allocatorIS1_EEE9__end_capB7v160006Ev, symObjAddr: 0x12388, symBinAddr: 0x1000149E8, symSize: 0x28 }
  - { offsetInCU: 0x5A055, offset: 0x5A055, size: 0x8, addend: 0x0, symName: __ZNKSt3__117__compressed_pairIPPcRNS_9allocatorIS1_EEE5firstB7v160006Ev, symObjAddr: 0x123B0, symBinAddr: 0x100014A10, symSize: 0x24 }
  - { offsetInCU: 0x5A07B, offset: 0x5A07B, size: 0x8, addend: 0x0, symName: __ZNSt3__16vectorIPcNS_9allocatorIS1_EEE22__construct_one_at_endB7v160006IJS1_EEEvDpOT_, symObjAddr: 0x123D4, symBinAddr: 0x100014A34, symSize: 0x90 }
  - { offsetInCU: 0x5A0CA, offset: 0x5A0CA, size: 0x8, addend: 0x0, symName: __ZNSt3__16vectorIPcNS_9allocatorIS1_EEE21__push_back_slow_pathIS1_EEvOT_, symObjAddr: 0x12464, symBinAddr: 0x100014AC4, symSize: 0xD8 }
  - { offsetInCU: 0x5A128, offset: 0x5A128, size: 0x8, addend: 0x0, symName: __ZNSt3__116allocator_traitsINS_9allocatorIPcEEE9constructB7v160006IS2_JS2_EvvEEvRS3_PT_DpOT0_, symObjAddr: 0x1253C, symBinAddr: 0x100014B9C, symSize: 0x30 }
  - { offsetInCU: 0x5A17D, offset: 0x5A17D, size: 0x8, addend: 0x0, symName: __ZNSt3__16vectorIPcNS_9allocatorIS1_EEED2B7v160006Ev, symObjAddr: 0x12598, symBinAddr: 0x100014BF8, symSize: 0x44 }
  - { offsetInCU: 0x5A1A7, offset: 0x5A1A7, size: 0x8, addend: 0x0, symName: __ZNSt3__16vectorIPcNS_9allocatorIS1_EEE16__destroy_vectorC1ERS4_, symObjAddr: 0x125DC, symBinAddr: 0x100014C3C, symSize: 0x34 }
  - { offsetInCU: 0x5A1E0, offset: 0x5A1E0, size: 0x8, addend: 0x0, symName: __ZNSt3__16vectorIPcNS_9allocatorIS1_EEE16__destroy_vectorclB7v160006Ev, symObjAddr: 0x12610, symBinAddr: 0x100014C70, symSize: 0x9C }
  - { offsetInCU: 0x5A206, offset: 0x5A206, size: 0x8, addend: 0x0, symName: __ZNSt3__16vectorIPcNS_9allocatorIS1_EEE16__destroy_vectorC2ERS4_, symObjAddr: 0x126AC, symBinAddr: 0x100014D0C, symSize: 0x20 }
  - { offsetInCU: 0x5A23F, offset: 0x5A23F, size: 0x8, addend: 0x0, symName: __ZNSt3__16vectorIPcNS_9allocatorIS1_EEE7__clearB7v160006Ev, symObjAddr: 0x126DC, symBinAddr: 0x100014D3C, symSize: 0x28 }
  - { offsetInCU: 0x5A265, offset: 0x5A265, size: 0x8, addend: 0x0, symName: __ZNSt3__16vectorIPcNS_9allocatorIS1_EEE22__base_destruct_at_endB7v160006EPS1_, symObjAddr: 0x12704, symBinAddr: 0x100014D64, symSize: 0x8C }
  - { offsetInCU: 0x5A2A9, offset: 0x5A2A9, size: 0x8, addend: 0x0, symName: __ZNSt3__14__fs10filesystem4pathD2B7v160006Ev, symObjAddr: 0x12790, symBinAddr: 0x100014DF0, symSize: 0x2C }
  - { offsetInCU: 0x5A2D3, offset: 0x5A2D3, size: 0x8, addend: 0x0, symName: __ZNSt3__14__fs10filesystem18directory_iteratorC1B7v160006EOS2_, symObjAddr: 0x127BC, symBinAddr: 0x100014E1C, symSize: 0x34 }
  - { offsetInCU: 0x5A307, offset: 0x5A307, size: 0x8, addend: 0x0, symName: __ZNSt3__14__fs10filesystem18directory_iteratorC2B7v160006EOS2_, symObjAddr: 0x127F0, symBinAddr: 0x100014E50, symSize: 0x34 }
  - { offsetInCU: 0x5A33B, offset: 0x5A33B, size: 0x8, addend: 0x0, symName: __ZNSt3__110shared_ptrINS_4__fs10filesystem12__dir_streamEEC1B7v160006EOS4_, symObjAddr: 0x12824, symBinAddr: 0x100014E84, symSize: 0x34 }
  - { offsetInCU: 0x5A374, offset: 0x5A374, size: 0x8, addend: 0x0, symName: __ZNSt3__110shared_ptrINS_4__fs10filesystem12__dir_streamEEC2B7v160006EOS4_, symObjAddr: 0x12858, symBinAddr: 0x100014EB8, symSize: 0x40 }
  - { offsetInCU: 0x5A3AD, offset: 0x5A3AD, size: 0x8, addend: 0x0, symName: __ZNSt3__14__fs10filesystem18directory_iteratorC2B7v160006ERKS2_, symObjAddr: 0x12898, symBinAddr: 0x100014EF8, symSize: 0x34 }
  - { offsetInCU: 0x5A3E1, offset: 0x5A3E1, size: 0x8, addend: 0x0, symName: __ZNSt3__110shared_ptrINS_4__fs10filesystem12__dir_streamEEC1B7v160006ERKS4_, symObjAddr: 0x128CC, symBinAddr: 0x100014F2C, symSize: 0x34 }
  - { offsetInCU: 0x5A41A, offset: 0x5A41A, size: 0x8, addend: 0x0, symName: __ZNSt3__110shared_ptrINS_4__fs10filesystem12__dir_streamEEC2B7v160006ERKS4_, symObjAddr: 0x12900, symBinAddr: 0x100014F60, symSize: 0x70 }
  - { offsetInCU: 0x5A453, offset: 0x5A453, size: 0x8, addend: 0x0, symName: __ZNSt3__119__shared_weak_count12__add_sharedB7v160006Ev, symObjAddr: 0x12970, symBinAddr: 0x100014FD0, symSize: 0x24 }
  - { offsetInCU: 0x5A479, offset: 0x5A479, size: 0x8, addend: 0x0, symName: __ZNSt3__114__shared_count12__add_sharedB7v160006Ev, symObjAddr: 0x12994, symBinAddr: 0x100014FF4, symSize: 0x28 }
  - { offsetInCU: 0x5A49F, offset: 0x5A49F, size: 0x8, addend: 0x0, symName: __ZNSt3__14__fs10filesystem18directory_iteratorD2B7v160006Ev, symObjAddr: 0x129EC, symBinAddr: 0x10001504C, symSize: 0x2C }
  - { offsetInCU: 0x5A4C9, offset: 0x5A4C9, size: 0x8, addend: 0x0, symName: __ZNSt3__110shared_ptrINS_4__fs10filesystem12__dir_streamEED1B7v160006Ev, symObjAddr: 0x12A18, symBinAddr: 0x100015078, symSize: 0x2C }
  - { offsetInCU: 0x5A4F3, offset: 0x5A4F3, size: 0x8, addend: 0x0, symName: __ZNSt3__110shared_ptrINS_4__fs10filesystem12__dir_streamEED2B7v160006Ev, symObjAddr: 0x12A44, symBinAddr: 0x1000150A4, symSize: 0x54 }
  - { offsetInCU: 0x5A51D, offset: 0x5A51D, size: 0x8, addend: 0x0, symName: __ZNSt3__14__fs10filesystem18directory_iteratorC1B7v160006Ev, symObjAddr: 0x12A98, symBinAddr: 0x1000150F8, symSize: 0x2C }
  - { offsetInCU: 0x5A547, offset: 0x5A547, size: 0x8, addend: 0x0, symName: __ZNSt3__14__fs10filesystem18directory_iteratorC2B7v160006Ev, symObjAddr: 0x12AC4, symBinAddr: 0x100015124, symSize: 0x2C }
  - { offsetInCU: 0x5A571, offset: 0x5A571, size: 0x8, addend: 0x0, symName: __ZNSt3__110shared_ptrINS_4__fs10filesystem12__dir_streamEEC1B7v160006Ev, symObjAddr: 0x12AF0, symBinAddr: 0x100015150, symSize: 0x2C }
  - { offsetInCU: 0x5A59B, offset: 0x5A59B, size: 0x8, addend: 0x0, symName: __ZNSt3__110shared_ptrINS_4__fs10filesystem12__dir_streamEEC2B7v160006Ev, symObjAddr: 0x12B1C, symBinAddr: 0x10001517C, symSize: 0x1C }
  - { offsetInCU: 0x5A5C5, offset: 0x5A5C5, size: 0x8, addend: 0x0, symName: __ZNKSt3__110shared_ptrINS_4__fs10filesystem12__dir_streamEE3getB7v160006Ev, symObjAddr: 0x12BB0, symBinAddr: 0x100015210, symSize: 0x18 }
  - { offsetInCU: 0x5A5EB, offset: 0x5A5EB, size: 0x8, addend: 0x0, symName: __ZNSt3__16vectorINS_12basic_stringIcNS_11char_traitsIcEENS_9allocatorIcEEEENS4_IS6_EEE22__construct_one_at_endB7v160006IJS6_EEEvDpOT_, symObjAddr: 0x12BC8, symBinAddr: 0x100015228, symSize: 0x90 }
  - { offsetInCU: 0x5A63A, offset: 0x5A63A, size: 0x8, addend: 0x0, symName: __ZNSt3__16vectorINS_12basic_stringIcNS_11char_traitsIcEENS_9allocatorIcEEEENS4_IS6_EEE21__push_back_slow_pathIS6_EEvOT_, symObjAddr: 0x12C58, symBinAddr: 0x1000152B8, symSize: 0xD8 }
  - { offsetInCU: 0x5A698, offset: 0x5A698, size: 0x8, addend: 0x0, symName: __ZNSt3__112basic_stringIcNS_11char_traitsIcEENS_9allocatorIcEEEC1INS_17basic_string_viewIcS2_EEvEERKT_, symObjAddr: 0x12D30, symBinAddr: 0x100015390, symSize: 0x34 }
  - { offsetInCU: 0x5A6DD, offset: 0x5A6DD, size: 0x8, addend: 0x0, symName: __ZNSt3__14__fs10filesystem4pathC1B7v160006EONS_12basic_stringIcNS_11char_traitsIcEENS_9allocatorIcEEEENS2_6formatE, symObjAddr: 0x12D64, symBinAddr: 0x1000153C4, symSize: 0x3C }
  - { offsetInCU: 0x5A722, offset: 0x5A722, size: 0x8, addend: 0x0, symName: __ZNSt3__112basic_stringIcNS_11char_traitsIcEENS_9allocatorIcEEEC2INS_17basic_string_viewIcS2_EEvEERKT_, symObjAddr: 0x12DA0, symBinAddr: 0x100015400, symSize: 0x78 }
  - { offsetInCU: 0x5A785, offset: 0x5A785, size: 0x8, addend: 0x0, symName: __ZNSt3__14__fs10filesystem4pathC2B7v160006EONS_12basic_stringIcNS_11char_traitsIcEENS_9allocatorIcEEEENS2_6formatE, symObjAddr: 0x12E18, symBinAddr: 0x100015478, symSize: 0x38 }
  - { offsetInCU: 0x5A7CA, offset: 0x5A7CA, size: 0x8, addend: 0x0, symName: __ZN8MakefileC2Ev, symObjAddr: 0x12E50, symBinAddr: 0x1000154B0, symSize: 0x44 }
  - { offsetInCU: 0x5A7F6, offset: 0x5A7F6, size: 0x8, addend: 0x0, symName: __ZNSt3__16vectorI5MacroNS_9allocatorIS1_EEEC1B7v160006Ev, symObjAddr: 0x12E94, symBinAddr: 0x1000154F4, symSize: 0x2C }
  - { offsetInCU: 0x5A820, offset: 0x5A820, size: 0x8, addend: 0x0, symName: __ZNSt3__16vectorI11TargetRulesNS_9allocatorIS1_EEEC1B7v160006Ev, symObjAddr: 0x12EC0, symBinAddr: 0x100015520, symSize: 0x2C }
  - { offsetInCU: 0x5A84A, offset: 0x5A84A, size: 0x8, addend: 0x0, symName: __ZNSt3__16vectorI13InferenceRuleNS_9allocatorIS1_EEEC1B7v160006Ev, symObjAddr: 0x12EEC, symBinAddr: 0x10001554C, symSize: 0x2C }
  - { offsetInCU: 0x5A874, offset: 0x5A874, size: 0x8, addend: 0x0, symName: __ZNSt3__16vectorI5MacroNS_9allocatorIS1_EEEC2B7v160006Ev, symObjAddr: 0x12F18, symBinAddr: 0x100015578, symSize: 0x58 }
  - { offsetInCU: 0x5A89E, offset: 0x5A89E, size: 0x8, addend: 0x0, symName: __ZNSt3__117__compressed_pairIP5MacroNS_9allocatorIS1_EEEC1B7v160006IDnNS_18__default_init_tagEEEOT_OT0_, symObjAddr: 0x12F70, symBinAddr: 0x1000155D0, symSize: 0x3C }
  - { offsetInCU: 0x5A8F6, offset: 0x5A8F6, size: 0x8, addend: 0x0, symName: __ZNSt3__117__compressed_pairIP5MacroNS_9allocatorIS1_EEEC2B7v160006IDnNS_18__default_init_tagEEEOT_OT0_, symObjAddr: 0x12FBC, symBinAddr: 0x10001561C, symSize: 0x40 }
  - { offsetInCU: 0x5A94E, offset: 0x5A94E, size: 0x8, addend: 0x0, symName: __ZNSt3__122__compressed_pair_elemINS_9allocatorI5MacroEELi1ELb1EEC2B7v160006ENS_18__default_init_tagE, symObjAddr: 0x12FFC, symBinAddr: 0x10001565C, symSize: 0x2C }
  - { offsetInCU: 0x5A982, offset: 0x5A982, size: 0x8, addend: 0x0, symName: __ZNSt3__19allocatorI5MacroEC2B7v160006Ev, symObjAddr: 0x13028, symBinAddr: 0x100015688, symSize: 0x2C }
  - { offsetInCU: 0x5A9AC, offset: 0x5A9AC, size: 0x8, addend: 0x0, symName: __ZNSt3__116__non_trivial_ifILb1ENS_9allocatorI5MacroEEEC2B7v160006Ev, symObjAddr: 0x13054, symBinAddr: 0x1000156B4, symSize: 0x14 }
  - { offsetInCU: 0x5A9D6, offset: 0x5A9D6, size: 0x8, addend: 0x0, symName: __ZNSt3__16vectorI11TargetRulesNS_9allocatorIS1_EEEC2B7v160006Ev, symObjAddr: 0x13068, symBinAddr: 0x1000156C8, symSize: 0x58 }
  - { offsetInCU: 0x5AA00, offset: 0x5AA00, size: 0x8, addend: 0x0, symName: __ZNSt3__117__compressed_pairIP11TargetRulesNS_9allocatorIS1_EEEC1B7v160006IDnNS_18__default_init_tagEEEOT_OT0_, symObjAddr: 0x130C0, symBinAddr: 0x100015720, symSize: 0x3C }
  - { offsetInCU: 0x5AA58, offset: 0x5AA58, size: 0x8, addend: 0x0, symName: __ZNSt3__117__compressed_pairIP11TargetRulesNS_9allocatorIS1_EEEC2B7v160006IDnNS_18__default_init_tagEEEOT_OT0_, symObjAddr: 0x1310C, symBinAddr: 0x10001576C, symSize: 0x40 }
  - { offsetInCU: 0x5AAB0, offset: 0x5AAB0, size: 0x8, addend: 0x0, symName: __ZNSt3__122__compressed_pair_elemINS_9allocatorI11TargetRulesEELi1ELb1EEC2B7v160006ENS_18__default_init_tagE, symObjAddr: 0x1314C, symBinAddr: 0x1000157AC, symSize: 0x2C }
  - { offsetInCU: 0x5AAE4, offset: 0x5AAE4, size: 0x8, addend: 0x0, symName: __ZNSt3__19allocatorI11TargetRulesEC2B7v160006Ev, symObjAddr: 0x13178, symBinAddr: 0x1000157D8, symSize: 0x2C }
  - { offsetInCU: 0x5AB0E, offset: 0x5AB0E, size: 0x8, addend: 0x0, symName: __ZNSt3__116__non_trivial_ifILb1ENS_9allocatorI11TargetRulesEEEC2B7v160006Ev, symObjAddr: 0x131A4, symBinAddr: 0x100015804, symSize: 0x14 }
  - { offsetInCU: 0x5AB38, offset: 0x5AB38, size: 0x8, addend: 0x0, symName: __ZNSt3__16vectorI13InferenceRuleNS_9allocatorIS1_EEEC2B7v160006Ev, symObjAddr: 0x131B8, symBinAddr: 0x100015818, symSize: 0x58 }
  - { offsetInCU: 0x5AB62, offset: 0x5AB62, size: 0x8, addend: 0x0, symName: __ZNSt3__117__compressed_pairIP13InferenceRuleNS_9allocatorIS1_EEEC1B7v160006IDnNS_18__default_init_tagEEEOT_OT0_, symObjAddr: 0x13210, symBinAddr: 0x100015870, symSize: 0x3C }
  - { offsetInCU: 0x5ABBA, offset: 0x5ABBA, size: 0x8, addend: 0x0, symName: __ZNSt3__117__compressed_pairIP13InferenceRuleNS_9allocatorIS1_EEEC2B7v160006IDnNS_18__default_init_tagEEEOT_OT0_, symObjAddr: 0x1325C, symBinAddr: 0x1000158BC, symSize: 0x40 }
  - { offsetInCU: 0x5AC12, offset: 0x5AC12, size: 0x8, addend: 0x0, symName: __ZNSt3__122__compressed_pair_elemINS_9allocatorI13InferenceRuleEELi1ELb1EEC2B7v160006ENS_18__default_init_tagE, symObjAddr: 0x1329C, symBinAddr: 0x1000158FC, symSize: 0x2C }
  - { offsetInCU: 0x5AC46, offset: 0x5AC46, size: 0x8, addend: 0x0, symName: __ZNSt3__19allocatorI13InferenceRuleEC2B7v160006Ev, symObjAddr: 0x132C8, symBinAddr: 0x100015928, symSize: 0x2C }
  - { offsetInCU: 0x5AC70, offset: 0x5AC70, size: 0x8, addend: 0x0, symName: __ZNSt3__116__non_trivial_ifILb1ENS_9allocatorI13InferenceRuleEEEC2B7v160006Ev, symObjAddr: 0x132F4, symBinAddr: 0x100015954, symSize: 0x14 }
  - { offsetInCU: 0x5AC9A, offset: 0x5AC9A, size: 0x8, addend: 0x0, symName: __ZNSt3__16vectorINS_12basic_stringIcNS_11char_traitsIcEENS_9allocatorIcEEEENS4_IS6_EEEC2IPPcLi0EEET_SC_, symObjAddr: 0x13308, symBinAddr: 0x100015968, symSize: 0x104 }
  - { offsetInCU: 0x5AD18, offset: 0x5AD18, size: 0x8, addend: 0x0, symName: __ZNSt3__16vectorINS_12basic_stringIcNS_11char_traitsIcEENS_9allocatorIcEEEENS4_IS6_EEE18__construct_at_endIPPcLi0EEEvT_SC_m, symObjAddr: 0x13438, symBinAddr: 0x100015A98, symSize: 0x8C }
  - { offsetInCU: 0x5AD8B, offset: 0x5AD8B, size: 0x8, addend: 0x0, symName: __ZNSt3__116allocator_traitsINS_9allocatorINS_12basic_stringIcNS_11char_traitsIcEENS1_IcEEEEEEE9constructB7v160006IS6_JRPcEvvEEvRS7_PT_DpOT0_, symObjAddr: 0x135E0, symBinAddr: 0x100015C40, symSize: 0x30 }
  - { offsetInCU: 0x5ADE0, offset: 0x5ADE0, size: 0x8, addend: 0x0, symName: __ZNSt3__16vectorINS_12basic_stringIcNS_11char_traitsIcEENS_9allocatorIcEEEENS4_IS6_EEE19__copy_assign_allocB7v160006ERKS8_, symObjAddr: 0x13650, symBinAddr: 0x100015CB0, symSize: 0x2C }
  - { offsetInCU: 0x5AE15, offset: 0x5AE15, size: 0x8, addend: 0x0, symName: __ZNSt3__16vectorINS_12basic_stringIcNS_11char_traitsIcEENS_9allocatorIcEEEENS4_IS6_EEE6assignIPS6_Li0EEEvT_SB_, symObjAddr: 0x1367C, symBinAddr: 0x100015CDC, symSize: 0x17C }
  - { offsetInCU: 0x5AEB5, offset: 0x5AEB5, size: 0x8, addend: 0x0, symName: __ZNSt3__16vectorINS_12basic_stringIcNS_11char_traitsIcEENS_9allocatorIcEEEENS4_IS6_EEE19__copy_assign_allocB7v160006ERKS8_NS_17integral_constantIbLb0EEE, symObjAddr: 0x137F8, symBinAddr: 0x100015E58, symSize: 0x14 }
  - { offsetInCU: 0x5AEF3, offset: 0x5AEF3, size: 0x8, addend: 0x0, symName: __ZNSt3__16vectorINS_12basic_stringIcNS_11char_traitsIcEENS_9allocatorIcEEEENS4_IS6_EEE17__destruct_at_endB7v160006EPS6_, symObjAddr: 0x138C8, symBinAddr: 0x100015F28, symSize: 0x60 }
  - { offsetInCU: 0x5AF5F, offset: 0x5AF5F, size: 0x8, addend: 0x0, symName: __ZNKSt3__111__copy_loopINS_17_ClassicAlgPolicyEEclB7v160006IPNS_12basic_stringIcNS_11char_traitsIcEENS_9allocatorIcEEEESA_SA_EENS_4pairIT_T1_EESC_T0_SD_, symObjAddr: 0x13AC8, symBinAddr: 0x100016128, symSize: 0x88 }
  - { offsetInCU: 0x5AFCA, offset: 0x5AFCA, size: 0x8, addend: 0x0, symName: __ZNSt3__119__unwrap_range_implIPNS_12basic_stringIcNS_11char_traitsIcEENS_9allocatorIcEEEES7_E8__unwrapB7v160006ES7_S7_, symObjAddr: 0x13C14, symBinAddr: 0x100016274, symSize: 0x58 }
  - { offsetInCU: 0x5B001, offset: 0x5B001, size: 0x8, addend: 0x0, symName: __ZNSt3__14pairIPNS_12basic_stringIcNS_11char_traitsIcEENS_9allocatorIcEEEES7_EC1B7v160006IS7_S7_LPv0EEEOT_OT0_, symObjAddr: 0x13C6C, symBinAddr: 0x1000162CC, symSize: 0x3C }
  - { offsetInCU: 0x5B05F, offset: 0x5B05F, size: 0x8, addend: 0x0, symName: __ZNSt3__14pairIPNS_12basic_stringIcNS_11char_traitsIcEENS_9allocatorIcEEEES7_EC2B7v160006IS7_S7_LPv0EEEOT_OT0_, symObjAddr: 0x13CA8, symBinAddr: 0x100016308, symSize: 0x34 }
  - { offsetInCU: 0x5B0BD, offset: 0x5B0BD, size: 0x8, addend: 0x0, symName: __ZNSt3__118__unwrap_iter_implIPNS_12basic_stringIcNS_11char_traitsIcEENS_9allocatorIcEEEELb1EE8__unwrapB7v160006ES7_, symObjAddr: 0x13CDC, symBinAddr: 0x10001633C, symSize: 0x24 }
  - { offsetInCU: 0x5B0E0, offset: 0x5B0E0, size: 0x8, addend: 0x0, symName: __ZNSt3__119__unwrap_range_implIPNS_12basic_stringIcNS_11char_traitsIcEENS_9allocatorIcEEEES7_E8__rewrapB7v160006ES7_S7_, symObjAddr: 0x13D00, symBinAddr: 0x100016360, symSize: 0x2C }
  - { offsetInCU: 0x5B111, offset: 0x5B111, size: 0x8, addend: 0x0, symName: __ZNSt3__118__unwrap_iter_implIPNS_12basic_stringIcNS_11char_traitsIcEENS_9allocatorIcEEEELb1EE8__rewrapB7v160006ES7_S7_, symObjAddr: 0x13D2C, symBinAddr: 0x10001638C, symSize: 0x58 }
  - { offsetInCU: 0x5B142, offset: 0x5B142, size: 0x8, addend: 0x0, symName: __ZNSt3__16vectorINS_12basic_stringIcNS_11char_traitsIcEENS_9allocatorIcEEEENS4_IS6_EEE27__invalidate_iterators_pastB7v160006EPS6_, symObjAddr: 0x13D84, symBinAddr: 0x1000163E4, symSize: 0x14 }
  - { offsetInCU: 0x5B179, offset: 0x5B179, size: 0x8, addend: 0x0, symName: __ZN8MakefileC2ERKS_, symObjAddr: 0x13D98, symBinAddr: 0x1000163F8, symSize: 0xA8 }
  - { offsetInCU: 0x5B1AE, offset: 0x5B1AE, size: 0x8, addend: 0x0, symName: __ZNSt3__16vectorI5MacroNS_9allocatorIS1_EEEC1ERKS4_, symObjAddr: 0x13E40, symBinAddr: 0x1000164A0, symSize: 0x34 }
  - { offsetInCU: 0x5B1E9, offset: 0x5B1E9, size: 0x8, addend: 0x0, symName: __ZNSt3__16vectorI11TargetRulesNS_9allocatorIS1_EEEC1ERKS4_, symObjAddr: 0x13E74, symBinAddr: 0x1000164D4, symSize: 0x34 }
  - { offsetInCU: 0x5B224, offset: 0x5B224, size: 0x8, addend: 0x0, symName: __ZNSt3__16vectorI13InferenceRuleNS_9allocatorIS1_EEEC1ERKS4_, symObjAddr: 0x13EA8, symBinAddr: 0x100016508, symSize: 0x34 }
  - { offsetInCU: 0x5B25F, offset: 0x5B25F, size: 0x8, addend: 0x0, symName: __ZNSt3__16vectorI11TargetRulesNS_9allocatorIS1_EEED1B7v160006Ev, symObjAddr: 0x13EDC, symBinAddr: 0x10001653C, symSize: 0x2C }
  - { offsetInCU: 0x5B289, offset: 0x5B289, size: 0x8, addend: 0x0, symName: __ZNSt3__16vectorI5MacroNS_9allocatorIS1_EEED1B7v160006Ev, symObjAddr: 0x13F08, symBinAddr: 0x100016568, symSize: 0x2C }
  - { offsetInCU: 0x5B2B3, offset: 0x5B2B3, size: 0x8, addend: 0x0, symName: __ZNSt3__16vectorI5MacroNS_9allocatorIS1_EEEC2ERKS4_, symObjAddr: 0x13F34, symBinAddr: 0x100016594, symSize: 0x110 }
  - { offsetInCU: 0x5B312, offset: 0x5B312, size: 0x8, addend: 0x0, symName: __ZNSt3__116allocator_traitsINS_9allocatorI5MacroEEE37select_on_container_copy_constructionB7v160006IS3_vvEES3_RKS3_, symObjAddr: 0x14044, symBinAddr: 0x1000166A4, symSize: 0x10 }
  - { offsetInCU: 0x5B347, offset: 0x5B347, size: 0x8, addend: 0x0, symName: __ZNSt3__117__compressed_pairIP5MacroNS_9allocatorIS1_EEEC1B7v160006IDnS4_EEOT_OT0_, symObjAddr: 0x14054, symBinAddr: 0x1000166B4, symSize: 0x3C }
  - { offsetInCU: 0x5B39F, offset: 0x5B39F, size: 0x8, addend: 0x0, symName: __ZNSt3__16vectorI5MacroNS_9allocatorIS1_EEE16__destroy_vectorC1ERS4_, symObjAddr: 0x140D0, symBinAddr: 0x100016730, symSize: 0x34 }
  - { offsetInCU: 0x5B3D8, offset: 0x5B3D8, size: 0x8, addend: 0x0, symName: __ZNSt3__16vectorI5MacroNS_9allocatorIS1_EEE11__vallocateB7v160006Em, symObjAddr: 0x14104, symBinAddr: 0x100016764, symSize: 0xB4 }
  - { offsetInCU: 0x5B41C, offset: 0x5B41C, size: 0x8, addend: 0x0, symName: __ZNSt3__16vectorI5MacroNS_9allocatorIS1_EEE18__construct_at_endIPS1_Li0EEEvT_S7_m, symObjAddr: 0x141B8, symBinAddr: 0x100016818, symSize: 0x8C }
  - { offsetInCU: 0x5B48F, offset: 0x5B48F, size: 0x8, addend: 0x0, symName: __ZNSt3__128__exception_guard_exceptionsINS_6vectorI5MacroNS_9allocatorIS2_EEE16__destroy_vectorEE10__completeB7v160006Ev, symObjAddr: 0x14244, symBinAddr: 0x1000168A4, symSize: 0x1C }
  - { offsetInCU: 0x5B4B5, offset: 0x5B4B5, size: 0x8, addend: 0x0, symName: __ZNSt3__128__exception_guard_exceptionsINS_6vectorI5MacroNS_9allocatorIS2_EEE16__destroy_vectorEED1B7v160006Ev, symObjAddr: 0x14260, symBinAddr: 0x1000168C0, symSize: 0x2C }
  - { offsetInCU: 0x5B4DF, offset: 0x5B4DF, size: 0x8, addend: 0x0, symName: __ZNSt3__117__compressed_pairIP5MacroNS_9allocatorIS1_EEEC2B7v160006IDnS4_EEOT_OT0_, symObjAddr: 0x1428C, symBinAddr: 0x1000168EC, symSize: 0x44 }
  - { offsetInCU: 0x5B537, offset: 0x5B537, size: 0x8, addend: 0x0, symName: __ZNSt3__122__compressed_pair_elemINS_9allocatorI5MacroEELi1ELb1EEC2B7v160006IS3_vEEOT_, symObjAddr: 0x142D0, symBinAddr: 0x100016930, symSize: 0x18 }
  - { offsetInCU: 0x5B579, offset: 0x5B579, size: 0x8, addend: 0x0, symName: __ZNSt3__128__exception_guard_exceptionsINS_6vectorI5MacroNS_9allocatorIS2_EEE16__destroy_vectorEEC1B7v160006ES6_, symObjAddr: 0x142E8, symBinAddr: 0x100016948, symSize: 0x34 }
  - { offsetInCU: 0x5B5B1, offset: 0x5B5B1, size: 0x8, addend: 0x0, symName: __ZNSt3__128__exception_guard_exceptionsINS_6vectorI5MacroNS_9allocatorIS2_EEE16__destroy_vectorEEC2B7v160006ES6_, symObjAddr: 0x1431C, symBinAddr: 0x10001697C, symSize: 0x24 }
  - { offsetInCU: 0x5B5E9, offset: 0x5B5E9, size: 0x8, addend: 0x0, symName: __ZNSt3__16vectorI5MacroNS_9allocatorIS1_EEE16__destroy_vectorC2ERS4_, symObjAddr: 0x14340, symBinAddr: 0x1000169A0, symSize: 0x20 }
  - { offsetInCU: 0x5B622, offset: 0x5B622, size: 0x8, addend: 0x0, symName: __ZNSt3__129_AllocatorDestroyRangeReverseINS_9allocatorI5MacroEEPS2_EC1B7v160006ERS3_RS4_S7_, symObjAddr: 0x144A0, symBinAddr: 0x100016B00, symSize: 0x44 }
  - { offsetInCU: 0x5B679, offset: 0x5B679, size: 0x8, addend: 0x0, symName: __ZNSt3__116allocator_traitsINS_9allocatorI5MacroEEE9constructB7v160006IS2_JRS2_EvvEEvRS3_PT_DpOT0_, symObjAddr: 0x144E4, symBinAddr: 0x100016B44, symSize: 0x30 }
  - { offsetInCU: 0x5B6CE, offset: 0x5B6CE, size: 0x8, addend: 0x0, symName: __ZNSt3__128__exception_guard_exceptionsINS_29_AllocatorDestroyRangeReverseINS_9allocatorI5MacroEEPS3_EEE10__completeB7v160006Ev, symObjAddr: 0x14514, symBinAddr: 0x100016B74, symSize: 0x1C }
  - { offsetInCU: 0x5B6F4, offset: 0x5B6F4, size: 0x8, addend: 0x0, symName: __ZNSt3__128__exception_guard_exceptionsINS_29_AllocatorDestroyRangeReverseINS_9allocatorI5MacroEEPS3_EEED1B7v160006Ev, symObjAddr: 0x14530, symBinAddr: 0x100016B90, symSize: 0x2C }
  - { offsetInCU: 0x5B71E, offset: 0x5B71E, size: 0x8, addend: 0x0, symName: __ZNSt3__128__exception_guard_exceptionsINS_29_AllocatorDestroyRangeReverseINS_9allocatorI5MacroEEPS3_EEEC1B7v160006ES6_, symObjAddr: 0x1455C, symBinAddr: 0x100016BBC, symSize: 0x34 }
  - { offsetInCU: 0x5B757, offset: 0x5B757, size: 0x8, addend: 0x0, symName: __ZNSt3__128__exception_guard_exceptionsINS_29_AllocatorDestroyRangeReverseINS_9allocatorI5MacroEEPS3_EEEC2B7v160006ES6_, symObjAddr: 0x14590, symBinAddr: 0x100016BF0, symSize: 0x30 }
  - { offsetInCU: 0x5B790, offset: 0x5B790, size: 0x8, addend: 0x0, symName: __ZNSt3__129_AllocatorDestroyRangeReverseINS_9allocatorI5MacroEEPS2_EC2B7v160006ERS3_RS4_S7_, symObjAddr: 0x145C0, symBinAddr: 0x100016C20, symSize: 0x38 }
  - { offsetInCU: 0x5B7E7, offset: 0x5B7E7, size: 0x8, addend: 0x0, symName: __ZNSt3__128__exception_guard_exceptionsINS_29_AllocatorDestroyRangeReverseINS_9allocatorI5MacroEEPS3_EEED2B7v160006Ev, symObjAddr: 0x14634, symBinAddr: 0x100016C94, symSize: 0x50 }
  - { offsetInCU: 0x5B811, offset: 0x5B811, size: 0x8, addend: 0x0, symName: __ZNKSt3__129_AllocatorDestroyRangeReverseINS_9allocatorI5MacroEEPS2_EclB7v160006Ev, symObjAddr: 0x14684, symBinAddr: 0x100016CE4, symSize: 0x68 }
  - { offsetInCU: 0x5B837, offset: 0x5B837, size: 0x8, addend: 0x0, symName: __ZNSt3__128__exception_guard_exceptionsINS_6vectorI5MacroNS_9allocatorIS2_EEE16__destroy_vectorEED2B7v160006Ev, symObjAddr: 0x1475C, symBinAddr: 0x100016DBC, symSize: 0x50 }
  - { offsetInCU: 0x5B861, offset: 0x5B861, size: 0x8, addend: 0x0, symName: __ZNSt3__16vectorI5MacroNS_9allocatorIS1_EEE16__destroy_vectorclB7v160006Ev, symObjAddr: 0x147AC, symBinAddr: 0x100016E0C, symSize: 0x9C }
  - { offsetInCU: 0x5B887, offset: 0x5B887, size: 0x8, addend: 0x0, symName: __ZNSt3__16vectorI5MacroNS_9allocatorIS1_EEE7__clearB7v160006Ev, symObjAddr: 0x14858, symBinAddr: 0x100016EB8, symSize: 0x28 }
  - { offsetInCU: 0x5B8AD, offset: 0x5B8AD, size: 0x8, addend: 0x0, symName: __ZNSt3__16vectorI5MacroNS_9allocatorIS1_EEE22__base_destruct_at_endB7v160006EPS1_, symObjAddr: 0x14880, symBinAddr: 0x100016EE0, symSize: 0x8C }
  - { offsetInCU: 0x5B8F1, offset: 0x5B8F1, size: 0x8, addend: 0x0, symName: __ZNSt3__16vectorI11TargetRulesNS_9allocatorIS1_EEEC2ERKS4_, symObjAddr: 0x1490C, symBinAddr: 0x100016F6C, symSize: 0x110 }
  - { offsetInCU: 0x5B950, offset: 0x5B950, size: 0x8, addend: 0x0, symName: __ZNSt3__116allocator_traitsINS_9allocatorI11TargetRulesEEE37select_on_container_copy_constructionB7v160006IS3_vvEES3_RKS3_, symObjAddr: 0x14A1C, symBinAddr: 0x10001707C, symSize: 0x10 }
  - { offsetInCU: 0x5B985, offset: 0x5B985, size: 0x8, addend: 0x0, symName: __ZNSt3__117__compressed_pairIP11TargetRulesNS_9allocatorIS1_EEEC1B7v160006IDnS4_EEOT_OT0_, symObjAddr: 0x14A2C, symBinAddr: 0x10001708C, symSize: 0x3C }
  - { offsetInCU: 0x5B9DD, offset: 0x5B9DD, size: 0x8, addend: 0x0, symName: __ZNSt3__16vectorI11TargetRulesNS_9allocatorIS1_EEE16__destroy_vectorC1ERS4_, symObjAddr: 0x14AA8, symBinAddr: 0x100017108, symSize: 0x34 }
  - { offsetInCU: 0x5BA16, offset: 0x5BA16, size: 0x8, addend: 0x0, symName: __ZNSt3__16vectorI11TargetRulesNS_9allocatorIS1_EEE11__vallocateB7v160006Em, symObjAddr: 0x14ADC, symBinAddr: 0x10001713C, symSize: 0xB4 }
  - { offsetInCU: 0x5BA5A, offset: 0x5BA5A, size: 0x8, addend: 0x0, symName: __ZNSt3__16vectorI11TargetRulesNS_9allocatorIS1_EEE18__construct_at_endIPS1_Li0EEEvT_S7_m, symObjAddr: 0x14B90, symBinAddr: 0x1000171F0, symSize: 0x8C }
  - { offsetInCU: 0x5BACD, offset: 0x5BACD, size: 0x8, addend: 0x0, symName: __ZNSt3__128__exception_guard_exceptionsINS_6vectorI11TargetRulesNS_9allocatorIS2_EEE16__destroy_vectorEE10__completeB7v160006Ev, symObjAddr: 0x14C1C, symBinAddr: 0x10001727C, symSize: 0x1C }
  - { offsetInCU: 0x5BAF3, offset: 0x5BAF3, size: 0x8, addend: 0x0, symName: __ZNSt3__128__exception_guard_exceptionsINS_6vectorI11TargetRulesNS_9allocatorIS2_EEE16__destroy_vectorEED1B7v160006Ev, symObjAddr: 0x14C38, symBinAddr: 0x100017298, symSize: 0x2C }
  - { offsetInCU: 0x5BB1D, offset: 0x5BB1D, size: 0x8, addend: 0x0, symName: __ZNSt3__117__compressed_pairIP11TargetRulesNS_9allocatorIS1_EEEC2B7v160006IDnS4_EEOT_OT0_, symObjAddr: 0x14C64, symBinAddr: 0x1000172C4, symSize: 0x44 }
  - { offsetInCU: 0x5BB75, offset: 0x5BB75, size: 0x8, addend: 0x0, symName: __ZNSt3__122__compressed_pair_elemINS_9allocatorI11TargetRulesEELi1ELb1EEC2B7v160006IS3_vEEOT_, symObjAddr: 0x14CA8, symBinAddr: 0x100017308, symSize: 0x18 }
  - { offsetInCU: 0x5BBB7, offset: 0x5BBB7, size: 0x8, addend: 0x0, symName: __ZNSt3__128__exception_guard_exceptionsINS_6vectorI11TargetRulesNS_9allocatorIS2_EEE16__destroy_vectorEEC1B7v160006ES6_, symObjAddr: 0x14CC0, symBinAddr: 0x100017320, symSize: 0x34 }
  - { offsetInCU: 0x5BBEF, offset: 0x5BBEF, size: 0x8, addend: 0x0, symName: __ZNSt3__128__exception_guard_exceptionsINS_6vectorI11TargetRulesNS_9allocatorIS2_EEE16__destroy_vectorEEC2B7v160006ES6_, symObjAddr: 0x14CF4, symBinAddr: 0x100017354, symSize: 0x24 }
  - { offsetInCU: 0x5BC27, offset: 0x5BC27, size: 0x8, addend: 0x0, symName: __ZNSt3__16vectorI11TargetRulesNS_9allocatorIS1_EEE16__destroy_vectorC2ERS4_, symObjAddr: 0x14D18, symBinAddr: 0x100017378, symSize: 0x20 }
  - { offsetInCU: 0x5BC60, offset: 0x5BC60, size: 0x8, addend: 0x0, symName: __ZNSt3__129_AllocatorDestroyRangeReverseINS_9allocatorI11TargetRulesEEPS2_EC1B7v160006ERS3_RS4_S7_, symObjAddr: 0x14E78, symBinAddr: 0x1000174D8, symSize: 0x44 }
  - { offsetInCU: 0x5BCB7, offset: 0x5BCB7, size: 0x8, addend: 0x0, symName: __ZNSt3__116allocator_traitsINS_9allocatorI11TargetRulesEEE9constructB7v160006IS2_JRS2_EvvEEvRS3_PT_DpOT0_, symObjAddr: 0x14EBC, symBinAddr: 0x10001751C, symSize: 0x30 }
  - { offsetInCU: 0x5BD0C, offset: 0x5BD0C, size: 0x8, addend: 0x0, symName: __ZNSt3__128__exception_guard_exceptionsINS_29_AllocatorDestroyRangeReverseINS_9allocatorI11TargetRulesEEPS3_EEE10__completeB7v160006Ev, symObjAddr: 0x14EEC, symBinAddr: 0x10001754C, symSize: 0x1C }
  - { offsetInCU: 0x5BD32, offset: 0x5BD32, size: 0x8, addend: 0x0, symName: __ZNSt3__128__exception_guard_exceptionsINS_29_AllocatorDestroyRangeReverseINS_9allocatorI11TargetRulesEEPS3_EEED1B7v160006Ev, symObjAddr: 0x14F08, symBinAddr: 0x100017568, symSize: 0x2C }
  - { offsetInCU: 0x5BD5C, offset: 0x5BD5C, size: 0x8, addend: 0x0, symName: __ZNSt3__128__exception_guard_exceptionsINS_29_AllocatorDestroyRangeReverseINS_9allocatorI11TargetRulesEEPS3_EEEC1B7v160006ES6_, symObjAddr: 0x14F34, symBinAddr: 0x100017594, symSize: 0x34 }
  - { offsetInCU: 0x5BD95, offset: 0x5BD95, size: 0x8, addend: 0x0, symName: __ZNSt3__128__exception_guard_exceptionsINS_29_AllocatorDestroyRangeReverseINS_9allocatorI11TargetRulesEEPS3_EEEC2B7v160006ES6_, symObjAddr: 0x14F68, symBinAddr: 0x1000175C8, symSize: 0x30 }
  - { offsetInCU: 0x5BDCE, offset: 0x5BDCE, size: 0x8, addend: 0x0, symName: __ZNSt3__129_AllocatorDestroyRangeReverseINS_9allocatorI11TargetRulesEEPS2_EC2B7v160006ERS3_RS4_S7_, symObjAddr: 0x14F98, symBinAddr: 0x1000175F8, symSize: 0x38 }
  - { offsetInCU: 0x5BE25, offset: 0x5BE25, size: 0x8, addend: 0x0, symName: __ZNSt3__128__exception_guard_exceptionsINS_29_AllocatorDestroyRangeReverseINS_9allocatorI11TargetRulesEEPS3_EEED2B7v160006Ev, symObjAddr: 0x1500C, symBinAddr: 0x10001766C, symSize: 0x50 }
  - { offsetInCU: 0x5BE4F, offset: 0x5BE4F, size: 0x8, addend: 0x0, symName: __ZNKSt3__129_AllocatorDestroyRangeReverseINS_9allocatorI11TargetRulesEEPS2_EclB7v160006Ev, symObjAddr: 0x1505C, symBinAddr: 0x1000176BC, symSize: 0x68 }
  - { offsetInCU: 0x5BE75, offset: 0x5BE75, size: 0x8, addend: 0x0, symName: __ZNSt3__128__exception_guard_exceptionsINS_6vectorI11TargetRulesNS_9allocatorIS2_EEE16__destroy_vectorEED2B7v160006Ev, symObjAddr: 0x15134, symBinAddr: 0x100017794, symSize: 0x50 }
  - { offsetInCU: 0x5BE9F, offset: 0x5BE9F, size: 0x8, addend: 0x0, symName: __ZNSt3__16vectorI11TargetRulesNS_9allocatorIS1_EEE16__destroy_vectorclB7v160006Ev, symObjAddr: 0x15184, symBinAddr: 0x1000177E4, symSize: 0x9C }
  - { offsetInCU: 0x5BEC5, offset: 0x5BEC5, size: 0x8, addend: 0x0, symName: __ZNSt3__16vectorI11TargetRulesNS_9allocatorIS1_EEE7__clearB7v160006Ev, symObjAddr: 0x15230, symBinAddr: 0x100017890, symSize: 0x28 }
  - { offsetInCU: 0x5BEEB, offset: 0x5BEEB, size: 0x8, addend: 0x0, symName: __ZNSt3__16vectorI13InferenceRuleNS_9allocatorIS1_EEEC2ERKS4_, symObjAddr: 0x15258, symBinAddr: 0x1000178B8, symSize: 0x110 }
  - { offsetInCU: 0x5BF4A, offset: 0x5BF4A, size: 0x8, addend: 0x0, symName: __ZNSt3__116allocator_traitsINS_9allocatorI13InferenceRuleEEE37select_on_container_copy_constructionB7v160006IS3_vvEES3_RKS3_, symObjAddr: 0x15368, symBinAddr: 0x1000179C8, symSize: 0x10 }
  - { offsetInCU: 0x5BF7F, offset: 0x5BF7F, size: 0x8, addend: 0x0, symName: __ZNSt3__117__compressed_pairIP13InferenceRuleNS_9allocatorIS1_EEEC1B7v160006IDnS4_EEOT_OT0_, symObjAddr: 0x15378, symBinAddr: 0x1000179D8, symSize: 0x3C }
  - { offsetInCU: 0x5BFD7, offset: 0x5BFD7, size: 0x8, addend: 0x0, symName: __ZNSt3__16vectorI13InferenceRuleNS_9allocatorIS1_EEE16__destroy_vectorC1ERS4_, symObjAddr: 0x153F4, symBinAddr: 0x100017A54, symSize: 0x34 }
  - { offsetInCU: 0x5C010, offset: 0x5C010, size: 0x8, addend: 0x0, symName: __ZNSt3__16vectorI13InferenceRuleNS_9allocatorIS1_EEE11__vallocateB7v160006Em, symObjAddr: 0x15428, symBinAddr: 0x100017A88, symSize: 0xB4 }
  - { offsetInCU: 0x5C054, offset: 0x5C054, size: 0x8, addend: 0x0, symName: __ZNSt3__16vectorI13InferenceRuleNS_9allocatorIS1_EEE18__construct_at_endIPS1_Li0EEEvT_S7_m, symObjAddr: 0x154DC, symBinAddr: 0x100017B3C, symSize: 0x8C }
  - { offsetInCU: 0x5C0C7, offset: 0x5C0C7, size: 0x8, addend: 0x0, symName: __ZNSt3__128__exception_guard_exceptionsINS_6vectorI13InferenceRuleNS_9allocatorIS2_EEE16__destroy_vectorEE10__completeB7v160006Ev, symObjAddr: 0x15568, symBinAddr: 0x100017BC8, symSize: 0x1C }
  - { offsetInCU: 0x5C0ED, offset: 0x5C0ED, size: 0x8, addend: 0x0, symName: __ZNSt3__128__exception_guard_exceptionsINS_6vectorI13InferenceRuleNS_9allocatorIS2_EEE16__destroy_vectorEED1B7v160006Ev, symObjAddr: 0x15584, symBinAddr: 0x100017BE4, symSize: 0x2C }
  - { offsetInCU: 0x5C117, offset: 0x5C117, size: 0x8, addend: 0x0, symName: __ZNSt3__117__compressed_pairIP13InferenceRuleNS_9allocatorIS1_EEEC2B7v160006IDnS4_EEOT_OT0_, symObjAddr: 0x155B0, symBinAddr: 0x100017C10, symSize: 0x44 }
  - { offsetInCU: 0x5C16F, offset: 0x5C16F, size: 0x8, addend: 0x0, symName: __ZNSt3__122__compressed_pair_elemINS_9allocatorI13InferenceRuleEELi1ELb1EEC2B7v160006IS3_vEEOT_, symObjAddr: 0x155F4, symBinAddr: 0x100017C54, symSize: 0x18 }
  - { offsetInCU: 0x5C1B1, offset: 0x5C1B1, size: 0x8, addend: 0x0, symName: __ZNSt3__128__exception_guard_exceptionsINS_6vectorI13InferenceRuleNS_9allocatorIS2_EEE16__destroy_vectorEEC1B7v160006ES6_, symObjAddr: 0x1560C, symBinAddr: 0x100017C6C, symSize: 0x34 }
  - { offsetInCU: 0x5C1E9, offset: 0x5C1E9, size: 0x8, addend: 0x0, symName: __ZNSt3__128__exception_guard_exceptionsINS_6vectorI13InferenceRuleNS_9allocatorIS2_EEE16__destroy_vectorEEC2B7v160006ES6_, symObjAddr: 0x15640, symBinAddr: 0x100017CA0, symSize: 0x24 }
  - { offsetInCU: 0x5C221, offset: 0x5C221, size: 0x8, addend: 0x0, symName: __ZNSt3__16vectorI13InferenceRuleNS_9allocatorIS1_EEE16__destroy_vectorC2ERS4_, symObjAddr: 0x15664, symBinAddr: 0x100017CC4, symSize: 0x20 }
  - { offsetInCU: 0x5C25A, offset: 0x5C25A, size: 0x8, addend: 0x0, symName: __ZNSt3__129_AllocatorDestroyRangeReverseINS_9allocatorI13InferenceRuleEEPS2_EC1B7v160006ERS3_RS4_S7_, symObjAddr: 0x157C4, symBinAddr: 0x100017E24, symSize: 0x44 }
  - { offsetInCU: 0x5C2B1, offset: 0x5C2B1, size: 0x8, addend: 0x0, symName: __ZNSt3__116allocator_traitsINS_9allocatorI13InferenceRuleEEE9constructB7v160006IS2_JRS2_EvvEEvRS3_PT_DpOT0_, symObjAddr: 0x15808, symBinAddr: 0x100017E68, symSize: 0x30 }
  - { offsetInCU: 0x5C306, offset: 0x5C306, size: 0x8, addend: 0x0, symName: __ZNSt3__128__exception_guard_exceptionsINS_29_AllocatorDestroyRangeReverseINS_9allocatorI13InferenceRuleEEPS3_EEE10__completeB7v160006Ev, symObjAddr: 0x15838, symBinAddr: 0x100017E98, symSize: 0x1C }
  - { offsetInCU: 0x5C32C, offset: 0x5C32C, size: 0x8, addend: 0x0, symName: __ZNSt3__128__exception_guard_exceptionsINS_29_AllocatorDestroyRangeReverseINS_9allocatorI13InferenceRuleEEPS3_EEED1B7v160006Ev, symObjAddr: 0x15854, symBinAddr: 0x100017EB4, symSize: 0x2C }
  - { offsetInCU: 0x5C356, offset: 0x5C356, size: 0x8, addend: 0x0, symName: __ZNSt3__128__exception_guard_exceptionsINS_29_AllocatorDestroyRangeReverseINS_9allocatorI13InferenceRuleEEPS3_EEEC1B7v160006ES6_, symObjAddr: 0x15880, symBinAddr: 0x100017EE0, symSize: 0x34 }
  - { offsetInCU: 0x5C38F, offset: 0x5C38F, size: 0x8, addend: 0x0, symName: __ZNSt3__128__exception_guard_exceptionsINS_29_AllocatorDestroyRangeReverseINS_9allocatorI13InferenceRuleEEPS3_EEEC2B7v160006ES6_, symObjAddr: 0x158B4, symBinAddr: 0x100017F14, symSize: 0x30 }
  - { offsetInCU: 0x5C3C8, offset: 0x5C3C8, size: 0x8, addend: 0x0, symName: __ZNSt3__129_AllocatorDestroyRangeReverseINS_9allocatorI13InferenceRuleEEPS2_EC2B7v160006ERS3_RS4_S7_, symObjAddr: 0x158E4, symBinAddr: 0x100017F44, symSize: 0x38 }
  - { offsetInCU: 0x5C41F, offset: 0x5C41F, size: 0x8, addend: 0x0, symName: __ZNSt3__128__exception_guard_exceptionsINS_29_AllocatorDestroyRangeReverseINS_9allocatorI13InferenceRuleEEPS3_EEED2B7v160006Ev, symObjAddr: 0x15958, symBinAddr: 0x100017FB8, symSize: 0x50 }
  - { offsetInCU: 0x5C449, offset: 0x5C449, size: 0x8, addend: 0x0, symName: __ZNKSt3__129_AllocatorDestroyRangeReverseINS_9allocatorI13InferenceRuleEEPS2_EclB7v160006Ev, symObjAddr: 0x159A8, symBinAddr: 0x100018008, symSize: 0x68 }
  - { offsetInCU: 0x5C46F, offset: 0x5C46F, size: 0x8, addend: 0x0, symName: __ZNSt3__128__exception_guard_exceptionsINS_6vectorI13InferenceRuleNS_9allocatorIS2_EEE16__destroy_vectorEED2B7v160006Ev, symObjAddr: 0x15A80, symBinAddr: 0x1000180E0, symSize: 0x50 }
  - { offsetInCU: 0x5C499, offset: 0x5C499, size: 0x8, addend: 0x0, symName: __ZNSt3__16vectorI13InferenceRuleNS_9allocatorIS1_EEE16__destroy_vectorclB7v160006Ev, symObjAddr: 0x15AD0, symBinAddr: 0x100018130, symSize: 0x9C }
  - { offsetInCU: 0x5C4BF, offset: 0x5C4BF, size: 0x8, addend: 0x0, symName: __ZNSt3__16vectorI13InferenceRuleNS_9allocatorIS1_EEE7__clearB7v160006Ev, symObjAddr: 0x15B7C, symBinAddr: 0x1000181DC, symSize: 0x28 }
  - { offsetInCU: 0x5C4E5, offset: 0x5C4E5, size: 0x8, addend: 0x0, symName: __ZNSt3__16vectorI13InferenceRuleNS_9allocatorIS1_EEE22__base_destruct_at_endB7v160006EPS1_, symObjAddr: 0x15BA4, symBinAddr: 0x100018204, symSize: 0x8C }
  - { offsetInCU: 0x5C529, offset: 0x5C529, size: 0x8, addend: 0x0, symName: __ZNSt3__16vectorI11TargetRulesNS_9allocatorIS1_EEED2B7v160006Ev, symObjAddr: 0x15C30, symBinAddr: 0x100018290, symSize: 0x44 }
  - { offsetInCU: 0x5C553, offset: 0x5C553, size: 0x8, addend: 0x0, symName: __ZNSt3__16vectorI5MacroNS_9allocatorIS1_EEED2B7v160006Ev, symObjAddr: 0x15C74, symBinAddr: 0x1000182D4, symSize: 0x44 }
  - { offsetInCU: 0x5C57D, offset: 0x5C57D, size: 0x8, addend: 0x0, symName: __ZN8MakefileD2Ev, symObjAddr: 0x15CB8, symBinAddr: 0x100018318, symSize: 0x44 }
  - { offsetInCU: 0x5C5A9, offset: 0x5C5A9, size: 0x8, addend: 0x0, symName: __ZNSt3__16vectorI13InferenceRuleNS_9allocatorIS1_EEED1B7v160006Ev, symObjAddr: 0x15CFC, symBinAddr: 0x10001835C, symSize: 0x2C }
  - { offsetInCU: 0x5C5D3, offset: 0x5C5D3, size: 0x8, addend: 0x0, symName: __ZNSt3__16vectorI13InferenceRuleNS_9allocatorIS1_EEED2B7v160006Ev, symObjAddr: 0x15D28, symBinAddr: 0x100018388, symSize: 0x44 }
  - { offsetInCU: 0x5C620, offset: 0x5C620, size: 0x8, addend: 0x0, symName: __ZNKSt3__113basic_ostreamIcNS_11char_traitsIcEEE6sentrycvbB7v160006Ev, symObjAddr: 0x15F58, symBinAddr: 0x1000185B8, symSize: 0x1C }
  - { offsetInCU: 0x5C646, offset: 0x5C646, size: 0x8, addend: 0x0, symName: __ZNSt3__119ostreambuf_iteratorIcNS_11char_traitsIcEEEC1B7v160006ERNS_13basic_ostreamIcS2_EE, symObjAddr: 0x161B4, symBinAddr: 0x100018814, symSize: 0x34 }
  - { offsetInCU: 0x5C67E, offset: 0x5C67E, size: 0x8, addend: 0x0, symName: __ZNKSt3__18ios_base5flagsB7v160006Ev, symObjAddr: 0x161E8, symBinAddr: 0x100018848, symSize: 0x18 }
  - { offsetInCU: 0x5C6A6, offset: 0x5C6A6, size: 0x8, addend: 0x0, symName: __ZNKSt3__19basic_iosIcNS_11char_traitsIcEEE4fillB7v160006Ev, symObjAddr: 0x16200, symBinAddr: 0x100018860, symSize: 0x64 }
  - { offsetInCU: 0x5C6CE, offset: 0x5C6CE, size: 0x8, addend: 0x0, symName: __ZNKSt3__119ostreambuf_iteratorIcNS_11char_traitsIcEEE6failedB7v160006Ev, symObjAddr: 0x16264, symBinAddr: 0x1000188C4, symSize: 0x24 }
  - { offsetInCU: 0x5C6F4, offset: 0x5C6F4, size: 0x8, addend: 0x0, symName: __ZNSt3__19basic_iosIcNS_11char_traitsIcEEE8setstateB7v160006Ej, symObjAddr: 0x16288, symBinAddr: 0x1000188E8, symSize: 0x2C }
  - { offsetInCU: 0x5C729, offset: 0x5C729, size: 0x8, addend: 0x0, symName: __ZNKSt3__18ios_base5widthB7v160006Ev, symObjAddr: 0x162B4, symBinAddr: 0x100018914, symSize: 0x18 }
  - { offsetInCU: 0x5C751, offset: 0x5C751, size: 0x8, addend: 0x0, symName: __ZNSt3__115basic_streambufIcNS_11char_traitsIcEEE5sputnB7v160006EPKcl, symObjAddr: 0x162CC, symBinAddr: 0x10001892C, symSize: 0x3C }
  - { offsetInCU: 0x5C793, offset: 0x5C793, size: 0x8, addend: 0x0, symName: __ZNSt3__112basic_stringIcNS_11char_traitsIcEENS_9allocatorIcEEEC1B7v160006Emc, symObjAddr: 0x16308, symBinAddr: 0x100018968, symSize: 0x3C }
  - { offsetInCU: 0x5C7DB, offset: 0x5C7DB, size: 0x8, addend: 0x0, symName: __ZNSt3__112basic_stringIcNS_11char_traitsIcEENS_9allocatorIcEEE4dataB7v160006Ev, symObjAddr: 0x16344, symBinAddr: 0x1000189A4, symSize: 0x28 }
  - { offsetInCU: 0x5C801, offset: 0x5C801, size: 0x8, addend: 0x0, symName: __ZNSt3__18ios_base5widthB7v160006El, symObjAddr: 0x1636C, symBinAddr: 0x1000189CC, symSize: 0x2C }
  - { offsetInCU: 0x5C847, offset: 0x5C847, size: 0x8, addend: 0x0, symName: __ZNSt3__112basic_stringIcNS_11char_traitsIcEENS_9allocatorIcEEEC2B7v160006Emc, symObjAddr: 0x16398, symBinAddr: 0x1000189F8, symSize: 0x54 }
  - { offsetInCU: 0x5C88F, offset: 0x5C88F, size: 0x8, addend: 0x0, symName: __ZNSt3__119ostreambuf_iteratorIcNS_11char_traitsIcEEEC2B7v160006ERNS_13basic_ostreamIcS2_EE, symObjAddr: 0x163EC, symBinAddr: 0x100018A4C, symSize: 0x54 }
  - { offsetInCU: 0x5C8C7, offset: 0x5C8C7, size: 0x8, addend: 0x0, symName: __ZNKSt3__19basic_iosIcNS_11char_traitsIcEEE5rdbufB7v160006Ev, symObjAddr: 0x16440, symBinAddr: 0x100018AA0, symSize: 0x24 }
  - { offsetInCU: 0x5C8EF, offset: 0x5C8EF, size: 0x8, addend: 0x0, symName: __ZNKSt3__18ios_base5rdbufB7v160006Ev, symObjAddr: 0x16464, symBinAddr: 0x100018AC4, symSize: 0x18 }
  - { offsetInCU: 0x5C915, offset: 0x5C915, size: 0x8, addend: 0x0, symName: __ZNSt3__111char_traitsIcE11eq_int_typeEii, symObjAddr: 0x1647C, symBinAddr: 0x100018ADC, symSize: 0x28 }
  - { offsetInCU: 0x5C946, offset: 0x5C946, size: 0x8, addend: 0x0, symName: __ZNSt3__111char_traitsIcE3eofEv, symObjAddr: 0x164A4, symBinAddr: 0x100018B04, symSize: 0x8 }
  - { offsetInCU: 0x5C95A, offset: 0x5C95A, size: 0x8, addend: 0x0, symName: __ZNKSt3__19basic_iosIcNS_11char_traitsIcEEE5widenB7v160006Ec, symObjAddr: 0x164AC, symBinAddr: 0x100018B0C, symSize: 0x84 }
  - { offsetInCU: 0x5C991, offset: 0x5C991, size: 0x8, addend: 0x0, symName: __ZNKSt3__15ctypeIcE5widenB7v160006Ec, symObjAddr: 0x1655C, symBinAddr: 0x100018BBC, symSize: 0x38 }
  - { offsetInCU: 0x5C9C6, offset: 0x5C9C6, size: 0x8, addend: 0x0, symName: __ZNSt3__18ios_base8setstateB7v160006Ej, symObjAddr: 0x16594, symBinAddr: 0x100018BF4, symSize: 0x34 }
  - { offsetInCU: 0x5C9FD, offset: 0x5C9FD, size: 0x8, addend: 0x0, symName: __ZNSt3__19basic_iosIcNS_11char_traitsIcEEEC2B7v160006Ev, symObjAddr: 0x165C8, symBinAddr: 0x100018C28, symSize: 0x44 }
  - { offsetInCU: 0x5CA27, offset: 0x5CA27, size: 0x8, addend: 0x0, symName: __ZNSt3__113basic_istreamIcNS_11char_traitsIcEEEC2B7v160006EPNS_15basic_streambufIcS2_EE, symObjAddr: 0x1660C, symBinAddr: 0x100018C6C, symSize: 0x64 }
  - { offsetInCU: 0x5CA6C, offset: 0x5CA6C, size: 0x8, addend: 0x0, symName: __ZNSt3__115basic_stringbufIcNS_11char_traitsIcEENS_9allocatorIcEEEC1B7v160006ERKNS_12basic_stringIcS2_S4_EEj, symObjAddr: 0x16670, symBinAddr: 0x100018CD0, symSize: 0x3C }
  - { offsetInCU: 0x5CAB2, offset: 0x5CAB2, size: 0x8, addend: 0x0, symName: __ZNSt3__18ios_baseC2B7v160006Ev, symObjAddr: 0x166AC, symBinAddr: 0x100018D0C, symSize: 0x24 }
  - { offsetInCU: 0x5CADC, offset: 0x5CADC, size: 0x8, addend: 0x0, symName: __ZNSt3__19basic_iosIcNS_11char_traitsIcEEE4initB7v160006EPNS_15basic_streambufIcS2_EE, symObjAddr: 0x166D0, symBinAddr: 0x100018D30, symSize: 0x44 }
  - { offsetInCU: 0x5CB13, offset: 0x5CB13, size: 0x8, addend: 0x0, symName: __ZNSt3__115basic_stringbufIcNS_11char_traitsIcEENS_9allocatorIcEEEC2B7v160006ERKNS_12basic_stringIcS2_S4_EEj, symObjAddr: 0x16714, symBinAddr: 0x100018D74, symSize: 0xB4 }
  - { offsetInCU: 0x5CB59, offset: 0x5CB59, size: 0x8, addend: 0x0, symName: __ZNSt3__112basic_stringIcNS_11char_traitsIcEENS_9allocatorIcEEEC1B7v160006ERKS4_, symObjAddr: 0x167C8, symBinAddr: 0x100018E28, symSize: 0x34 }
  - { offsetInCU: 0x5CB92, offset: 0x5CB92, size: 0x8, addend: 0x0, symName: __ZNSt3__112basic_stringIcNS_11char_traitsIcEENS_9allocatorIcEEEC2B7v160006ERKS4_, symObjAddr: 0x167FC, symBinAddr: 0x100018E5C, symSize: 0x50 }
  - { offsetInCU: 0x5CBEE, offset: 0x5CBEE, size: 0x8, addend: 0x0, symName: __ZNKSt3__113basic_istreamIcNS_11char_traitsIcEEE6sentrycvbB7v160006Ev, symObjAddr: 0x1684C, symBinAddr: 0x100018EAC, symSize: 0x1C }
  - { offsetInCU: 0x5CC14, offset: 0x5CC14, size: 0x8, addend: 0x0, symName: __ZNSt3__115basic_streambufIcNS_11char_traitsIcEEE5sgetcB7v160006Ev, symObjAddr: 0x16868, symBinAddr: 0x100018EC8, symSize: 0x70 }
  - { offsetInCU: 0x5CC3A, offset: 0x5CC3A, size: 0x8, addend: 0x0, symName: __ZNKSt3__15ctypeIcE2isB7v160006Ejc, symObjAddr: 0x168D8, symBinAddr: 0x100018F38, symSize: 0x7C }
  - { offsetInCU: 0x5CC7E, offset: 0x5CC7E, size: 0x8, addend: 0x0, symName: __ZNSt3__111char_traitsIcE12to_char_typeEi, symObjAddr: 0x16954, symBinAddr: 0x100018FB4, symSize: 0x18 }
  - { offsetInCU: 0x5CCA1, offset: 0x5CCA1, size: 0x8, addend: 0x0, symName: __ZNSt3__115basic_streambufIcNS_11char_traitsIcEEE6sbumpcB7v160006Ev, symObjAddr: 0x1696C, symBinAddr: 0x100018FCC, symSize: 0x78 }
  - { offsetInCU: 0x5CCC7, offset: 0x5CCC7, size: 0x8, addend: 0x0, symName: __ZNSt3__18ios_base18__setstate_nothrowB7v160006Ej, symObjAddr: 0x169E4, symBinAddr: 0x100019044, symSize: 0x64 }
  - { offsetInCU: 0x5CCFC, offset: 0x5CCFC, size: 0x8, addend: 0x0, symName: __ZNKSt3__19basic_iosIcNS_11char_traitsIcEEE10exceptionsB7v160006Ev, symObjAddr: 0x16A48, symBinAddr: 0x1000190A8, symSize: 0x24 }
  - { offsetInCU: 0x5CD22, offset: 0x5CD22, size: 0x8, addend: 0x0, symName: __ZNSt3__111char_traitsIcE11to_int_typeEc, symObjAddr: 0x16A6C, symBinAddr: 0x1000190CC, symSize: 0x14 }
  - { offsetInCU: 0x5CD45, offset: 0x5CD45, size: 0x8, addend: 0x0, symName: __Z7isasciii, symObjAddr: 0x16A80, symBinAddr: 0x1000190E0, symSize: 0x24 }
  - { offsetInCU: 0x5CD72, offset: 0x5CD72, size: 0x8, addend: 0x0, symName: __ZNKSt3__18ios_base10exceptionsB7v160006Ev, symObjAddr: 0x16AA4, symBinAddr: 0x100019104, symSize: 0x18 }
  - { offsetInCU: 0x5CD9A, offset: 0x5CD9A, size: 0x8, addend: 0x0, symName: __ZNSt3__112basic_stringIcNS_11char_traitsIcEENS_9allocatorIcEEE5clearB7v160006Ev, symObjAddr: 0x16ABC, symBinAddr: 0x10001911C, symSize: 0x88 }
  - { offsetInCU: 0x5CDC2, offset: 0x5CDC2, size: 0x8, addend: 0x0, symName: __ZNSt3__111char_traitsIcE2eqEcc, symObjAddr: 0x16B44, symBinAddr: 0x1000191A4, symSize: 0x28 }
  - { offsetInCU: 0x5CDF3, offset: 0x5CDF3, size: 0x8, addend: 0x0, symName: __ZNKSt3__19basic_iosIcNS_11char_traitsIcEEE4failB7v160006Ev, symObjAddr: 0x16B7C, symBinAddr: 0x1000191DC, symSize: 0x28 }
  - { offsetInCU: 0x5CE19, offset: 0x5CE19, size: 0x8, addend: 0x0, symName: __ZNKSt3__18ios_base4failB7v160006Ev, symObjAddr: 0x16BA4, symBinAddr: 0x100019204, symSize: 0x28 }
  - { offsetInCU: 0x5CE41, offset: 0x5CE41, size: 0x8, addend: 0x0, symName: __ZNSt3__113basic_filebufIcNS_11char_traitsIcEEE4openERKNS_12basic_stringIcS2_NS_9allocatorIcEEEEj, symObjAddr: 0x16BCC, symBinAddr: 0x10001922C, symSize: 0x44 }
  - { offsetInCU: 0x5CE85, offset: 0x5CE85, size: 0x8, addend: 0x0, symName: __ZNKSt3__113basic_filebufIcNS_11char_traitsIcEEE7is_openEv, symObjAddr: 0x16C10, symBinAddr: 0x100019270, symSize: 0x24 }
  - { offsetInCU: 0x5CEAD, offset: 0x5CEAD, size: 0x8, addend: 0x0, symName: __ZNSt3__111basic_regexIcNS_12regex_traitsIcEEEC2B7v160006INS_11char_traitsIcEENS_9allocatorIcEEEERKNS_12basic_stringIcT_T0_EENS_15regex_constants18syntax_option_typeE, symObjAddr: 0x16C34, symBinAddr: 0x100019294, symSize: 0xBC }
  - { offsetInCU: 0x5CF07, offset: 0x5CF07, size: 0x8, addend: 0x0, symName: __ZNSt3__112regex_traitsIcEC1Ev, symObjAddr: 0x16CF0, symBinAddr: 0x100019350, symSize: 0x2C }
  - { offsetInCU: 0x5CF33, offset: 0x5CF33, size: 0x8, addend: 0x0, symName: __ZNSt3__110shared_ptrINS_13__empty_stateIcEEEC1B7v160006Ev, symObjAddr: 0x16D1C, symBinAddr: 0x10001937C, symSize: 0x2C }
  - { offsetInCU: 0x5CF5D, offset: 0x5CF5D, size: 0x8, addend: 0x0, symName: __ZNSt3__111basic_regexIcNS_12regex_traitsIcEEE6__initINS_11__wrap_iterIPKcEEEEvT_S9_, symObjAddr: 0x16D48, symBinAddr: 0x1000193A8, symSize: 0xA0 }
  - { offsetInCU: 0x5CFBB, offset: 0x5CFBB, size: 0x8, addend: 0x0, symName: __ZNKSt3__112basic_stringIcNS_11char_traitsIcEENS_9allocatorIcEEE5beginB7v160006Ev, symObjAddr: 0x16DE8, symBinAddr: 0x100019448, symSize: 0x4C }
  - { offsetInCU: 0x5CFE1, offset: 0x5CFE1, size: 0x8, addend: 0x0, symName: __ZNKSt3__112basic_stringIcNS_11char_traitsIcEENS_9allocatorIcEEE3endB7v160006Ev, symObjAddr: 0x16E34, symBinAddr: 0x100019494, symSize: 0x54 }
  - { offsetInCU: 0x5D007, offset: 0x5D007, size: 0x8, addend: 0x0, symName: __ZNSt3__112regex_traitsIcEC2Ev, symObjAddr: 0x16E88, symBinAddr: 0x1000194E8, symSize: 0x5C }
  - { offsetInCU: 0x5D033, offset: 0x5D033, size: 0x8, addend: 0x0, symName: __ZNSt3__112regex_traitsIcE6__initEv, symObjAddr: 0x16EE4, symBinAddr: 0x100019544, symSize: 0x40 }
  - { offsetInCU: 0x5D05B, offset: 0x5D05B, size: 0x8, addend: 0x0, symName: __ZNSt3__110shared_ptrINS_13__empty_stateIcEEEC2B7v160006Ev, symObjAddr: 0x16F50, symBinAddr: 0x1000195B0, symSize: 0x1C }
  - { offsetInCU: 0x5D085, offset: 0x5D085, size: 0x8, addend: 0x0, symName: __ZNSt3__111basic_regexIcNS_12regex_traitsIcEEE7__parseINS_11__wrap_iterIPKcEEEET_S9_S9_, symObjAddr: 0x16FC0, symBinAddr: 0x100019620, symSize: 0x29C }
  - { offsetInCU: 0x5D100, offset: 0x5D100, size: 0x8, addend: 0x0, symName: __ZNSt3__111__end_stateIcEC1B7v160006Ev, symObjAddr: 0x17310, symBinAddr: 0x100019970, symSize: 0x2C }
  - { offsetInCU: 0x5D1CB, offset: 0x5D1CB, size: 0x8, addend: 0x0, symName: __ZNSt3__110unique_ptrINS_6__nodeIcEENS_14default_deleteIS2_EEEC1B7v160006ILb1EvEEPS2_, symObjAddr: 0x1733C, symBinAddr: 0x10001999C, symSize: 0x34 }
  - { offsetInCU: 0x5D214, offset: 0x5D214, size: 0x8, addend: 0x0, symName: __ZNSt3__110shared_ptrINS_13__empty_stateIcEEE5resetB7v160006IS2_vEEvPT_, symObjAddr: 0x17370, symBinAddr: 0x1000199D0, symSize: 0x4C }
  - { offsetInCU: 0x5D253, offset: 0x5D253, size: 0x8, addend: 0x0, symName: __ZNKSt3__110unique_ptrINS_6__nodeIcEENS_14default_deleteIS2_EEE3getB7v160006Ev, symObjAddr: 0x173BC, symBinAddr: 0x100019A1C, symSize: 0x28 }
  - { offsetInCU: 0x5D279, offset: 0x5D279, size: 0x8, addend: 0x0, symName: __ZNSt3__113__empty_stateIcEC1B7v160006EPNS_6__nodeIcEE, symObjAddr: 0x173E4, symBinAddr: 0x100019A44, symSize: 0x34 }
  - { offsetInCU: 0x5D2B2, offset: 0x5D2B2, size: 0x8, addend: 0x0, symName: __ZNSt3__110unique_ptrINS_6__nodeIcEENS_14default_deleteIS2_EEE7releaseB7v160006Ev, symObjAddr: 0x17418, symBinAddr: 0x100019A78, symSize: 0x44 }
  - { offsetInCU: 0x5D2E7, offset: 0x5D2E7, size: 0x8, addend: 0x0, symName: __ZNKSt3__110shared_ptrINS_13__empty_stateIcEEE3getB7v160006Ev, symObjAddr: 0x1745C, symBinAddr: 0x100019ABC, symSize: 0x18 }
  - { offsetInCU: 0x5D30D, offset: 0x5D30D, size: 0x8, addend: 0x0, symName: __ZNSt3__110unique_ptrINS_6__nodeIcEENS_14default_deleteIS2_EEED1B7v160006Ev, symObjAddr: 0x17474, symBinAddr: 0x100019AD4, symSize: 0x2C }
  - { offsetInCU: 0x5D337, offset: 0x5D337, size: 0x8, addend: 0x0, symName: __ZNSt3__111basic_regexIcNS_12regex_traitsIcEEE16__parse_ecma_expINS_11__wrap_iterIPKcEEEET_S9_S9_, symObjAddr: 0x174A0, symBinAddr: 0x100019B00, symSize: 0x160 }
  - { offsetInCU: 0x5D3C2, offset: 0x5D3C2, size: 0x8, addend: 0x0, symName: __ZNSt3__111basic_regexIcNS_12regex_traitsIcEEE21__parse_basic_reg_expINS_11__wrap_iterIPKcEEEET_S9_S9_, symObjAddr: 0x17600, symBinAddr: 0x100019C60, symSize: 0x16C }
  - { offsetInCU: 0x5D42F, offset: 0x5D42F, size: 0x8, addend: 0x0, symName: __ZNSt3__111basic_regexIcNS_12regex_traitsIcEEE24__parse_extended_reg_expINS_11__wrap_iterIPKcEEEET_S9_S9_, symObjAddr: 0x1776C, symBinAddr: 0x100019DCC, symSize: 0x150 }
  - { offsetInCU: 0x5D4BA, offset: 0x5D4BA, size: 0x8, addend: 0x0, symName: __ZNSt3__111basic_regexIcNS_12regex_traitsIcEEE12__parse_grepINS_11__wrap_iterIPKcEEEET_S9_S9_, symObjAddr: 0x178BC, symBinAddr: 0x100019F1C, symSize: 0x1CC }
  - { offsetInCU: 0x5D545, offset: 0x5D545, size: 0x8, addend: 0x0, symName: __ZNSt3__111basic_regexIcNS_12regex_traitsIcEEE13__parse_egrepINS_11__wrap_iterIPKcEEEET_S9_S9_, symObjAddr: 0x17A88, symBinAddr: 0x10001A0E8, symSize: 0x1CC }
  - { offsetInCU: 0x5D5D0, offset: 0x5D5D0, size: 0x8, addend: 0x0, symName: __ZNSt3__111__end_stateIcEC2B7v160006Ev, symObjAddr: 0x17CB4, symBinAddr: 0x10001A314, symSize: 0x44 }
  - { offsetInCU: 0x5D5FA, offset: 0x5D5FA, size: 0x8, addend: 0x0, symName: __ZNSt3__16__nodeIcEC2B7v160006Ev, symObjAddr: 0x17CF8, symBinAddr: 0x10001A358, symSize: 0x24 }
  - { offsetInCU: 0x5D624, offset: 0x5D624, size: 0x8, addend: 0x0, symName: __ZNSt3__111__end_stateIcED1Ev, symObjAddr: 0x17D1C, symBinAddr: 0x10001A37C, symSize: 0x2C }
  - { offsetInCU: 0x5D651, offset: 0x5D651, size: 0x8, addend: 0x0, symName: __ZNSt3__111__end_stateIcED0Ev, symObjAddr: 0x17D48, symBinAddr: 0x10001A3A8, symSize: 0x30 }
  - { offsetInCU: 0x5D67E, offset: 0x5D67E, size: 0x8, addend: 0x0, symName: __ZNKSt3__111__end_stateIcE6__execERNS_7__stateIcEE, symObjAddr: 0x17D78, symBinAddr: 0x10001A3D8, symSize: 0x20 }
  - { offsetInCU: 0x5D6B5, offset: 0x5D6B5, size: 0x8, addend: 0x0, symName: __ZNKSt3__16__nodeIcE12__exec_splitEbRNS_7__stateIcEE, symObjAddr: 0x17D98, symBinAddr: 0x10001A3F8, symSize: 0x1C }
  - { offsetInCU: 0x5D6F3, offset: 0x5D6F3, size: 0x8, addend: 0x0, symName: __ZNSt3__16__nodeIcED1Ev, symObjAddr: 0x17DB4, symBinAddr: 0x10001A414, symSize: 0x2C }
  - { offsetInCU: 0x5D71D, offset: 0x5D71D, size: 0x8, addend: 0x0, symName: __ZNSt3__16__nodeIcED0Ev, symObjAddr: 0x17DE0, symBinAddr: 0x10001A440, symSize: 0x30 }
  - { offsetInCU: 0x5D747, offset: 0x5D747, size: 0x8, addend: 0x0, symName: __ZNKSt3__16__nodeIcE6__execERNS_7__stateIcEE, symObjAddr: 0x17E10, symBinAddr: 0x10001A470, symSize: 0x14 }
  - { offsetInCU: 0x5D779, offset: 0x5D779, size: 0x8, addend: 0x0, symName: __ZNSt3__16__nodeIcED2Ev, symObjAddr: 0x17E24, symBinAddr: 0x10001A484, symSize: 0x14 }
  - { offsetInCU: 0x5D7A3, offset: 0x5D7A3, size: 0x8, addend: 0x0, symName: __ZNSt3__111__end_stateIcED2Ev, symObjAddr: 0x17E38, symBinAddr: 0x10001A498, symSize: 0x2C }
  - { offsetInCU: 0x5D7D0, offset: 0x5D7D0, size: 0x8, addend: 0x0, symName: __ZNSt3__110unique_ptrINS_6__nodeIcEENS_14default_deleteIS2_EEEC2B7v160006ILb1EvEEPS2_, symObjAddr: 0x17E64, symBinAddr: 0x10001A4C4, symSize: 0x44 }
  - { offsetInCU: 0x5D819, offset: 0x5D819, size: 0x8, addend: 0x0, symName: __ZNSt3__117__compressed_pairIPNS_6__nodeIcEENS_14default_deleteIS2_EEEC1B7v160006IRS3_NS_16__value_init_tagEEEOT_OT0_, symObjAddr: 0x17EA8, symBinAddr: 0x10001A508, symSize: 0x3C }
  - { offsetInCU: 0x5D871, offset: 0x5D871, size: 0x8, addend: 0x0, symName: __ZNSt3__117__compressed_pairIPNS_6__nodeIcEENS_14default_deleteIS2_EEEC2B7v160006IRS3_NS_16__value_init_tagEEEOT_OT0_, symObjAddr: 0x17EE4, symBinAddr: 0x10001A544, symSize: 0x40 }
  - { offsetInCU: 0x5D8C9, offset: 0x5D8C9, size: 0x8, addend: 0x0, symName: __ZNSt3__122__compressed_pair_elemIPNS_6__nodeIcEELi0ELb0EEC2B7v160006IRS3_vEEOT_, symObjAddr: 0x17F24, symBinAddr: 0x10001A584, symSize: 0x24 }
  - { offsetInCU: 0x5D90B, offset: 0x5D90B, size: 0x8, addend: 0x0, symName: __ZNSt3__122__compressed_pair_elemINS_14default_deleteINS_6__nodeIcEEEELi1ELb1EEC2B7v160006ENS_16__value_init_tagE, symObjAddr: 0x17F48, symBinAddr: 0x10001A5A8, symSize: 0x14 }
  - { offsetInCU: 0x5D93F, offset: 0x5D93F, size: 0x8, addend: 0x0, symName: __ZNSt3__110shared_ptrINS_13__empty_stateIcEEEC1IS2_vEEPT_, symObjAddr: 0x17F5C, symBinAddr: 0x10001A5BC, symSize: 0x34 }
  - { offsetInCU: 0x5D982, offset: 0x5D982, size: 0x8, addend: 0x0, symName: __ZNSt3__110shared_ptrINS_13__empty_stateIcEEE4swapB7v160006ERS3_, symObjAddr: 0x17F90, symBinAddr: 0x10001A5F0, symSize: 0x44 }
  - { offsetInCU: 0x5D9B7, offset: 0x5D9B7, size: 0x8, addend: 0x0, symName: __ZNSt3__110shared_ptrINS_13__empty_stateIcEEEC2IS2_vEEPT_, symObjAddr: 0x17FD4, symBinAddr: 0x10001A634, symSize: 0xEC }
  - { offsetInCU: 0x5DAB6, offset: 0x5DAB6, size: 0x8, addend: 0x0, symName: __ZNSt3__110unique_ptrINS_13__empty_stateIcEENS_14default_deleteIS2_EEEC1B7v160006ILb1EvEEPS2_, symObjAddr: 0x180C0, symBinAddr: 0x10001A720, symSize: 0x34 }
  - { offsetInCU: 0x5DB05, offset: 0x5DB05, size: 0x8, addend: 0x0, symName: __ZNSt3__19allocatorINS_13__empty_stateIcEEEC1B7v160006Ev, symObjAddr: 0x180F4, symBinAddr: 0x10001A754, symSize: 0x2C }
  - { offsetInCU: 0x5DBE7, offset: 0x5DBE7, size: 0x8, addend: 0x0, symName: __ZNSt3__120__shared_ptr_pointerIPNS_13__empty_stateIcEENS_10shared_ptrIS2_E27__shared_ptr_default_deleteIS2_S2_EENS_9allocatorIS2_EEEC1B7v160006ES3_S7_S9_, symObjAddr: 0x18120, symBinAddr: 0x10001A780, symSize: 0x34 }
  - { offsetInCU: 0x5DC3B, offset: 0x5DC3B, size: 0x8, addend: 0x0, symName: __ZNSt3__110unique_ptrINS_13__empty_stateIcEENS_14default_deleteIS2_EEE7releaseB7v160006Ev, symObjAddr: 0x18154, symBinAddr: 0x10001A7B4, symSize: 0x44 }
  - { offsetInCU: 0x5DC70, offset: 0x5DC70, size: 0x8, addend: 0x0, symName: __ZNSt3__110shared_ptrINS_13__empty_stateIcEEE18__enable_weak_thisB7v160006Ez, symObjAddr: 0x18198, symBinAddr: 0x10001A7F8, symSize: 0x10 }
  - { offsetInCU: 0x5DC97, offset: 0x5DC97, size: 0x8, addend: 0x0, symName: __ZNSt3__110unique_ptrINS_13__empty_stateIcEENS_14default_deleteIS2_EEED1B7v160006Ev, symObjAddr: 0x181A8, symBinAddr: 0x10001A808, symSize: 0x2C }
  - { offsetInCU: 0x5DCC1, offset: 0x5DCC1, size: 0x8, addend: 0x0, symName: __ZNSt3__110unique_ptrINS_13__empty_stateIcEENS_14default_deleteIS2_EEEC2B7v160006ILb1EvEEPS2_, symObjAddr: 0x181D4, symBinAddr: 0x10001A834, symSize: 0x44 }
  - { offsetInCU: 0x5DD04, offset: 0x5DD04, size: 0x8, addend: 0x0, symName: __ZNSt3__117__compressed_pairIPNS_13__empty_stateIcEENS_14default_deleteIS2_EEEC1B7v160006IRS3_NS_16__value_init_tagEEEOT_OT0_, symObjAddr: 0x18218, symBinAddr: 0x10001A878, symSize: 0x3C }
  - { offsetInCU: 0x5DD5C, offset: 0x5DD5C, size: 0x8, addend: 0x0, symName: __ZNSt3__117__compressed_pairIPNS_13__empty_stateIcEENS_14default_deleteIS2_EEEC2B7v160006IRS3_NS_16__value_init_tagEEEOT_OT0_, symObjAddr: 0x18254, symBinAddr: 0x10001A8B4, symSize: 0x40 }
  - { offsetInCU: 0x5DDB4, offset: 0x5DDB4, size: 0x8, addend: 0x0, symName: __ZNSt3__122__compressed_pair_elemIPNS_13__empty_stateIcEELi0ELb0EEC2B7v160006IRS3_vEEOT_, symObjAddr: 0x18294, symBinAddr: 0x10001A8F4, symSize: 0x24 }
  - { offsetInCU: 0x5DDF6, offset: 0x5DDF6, size: 0x8, addend: 0x0, symName: __ZNSt3__122__compressed_pair_elemINS_14default_deleteINS_13__empty_stateIcEEEELi1ELb1EEC2B7v160006ENS_16__value_init_tagE, symObjAddr: 0x182B8, symBinAddr: 0x10001A918, symSize: 0x14 }
  - { offsetInCU: 0x5DE2A, offset: 0x5DE2A, size: 0x8, addend: 0x0, symName: __ZNSt3__19allocatorINS_13__empty_stateIcEEEC2B7v160006Ev, symObjAddr: 0x182CC, symBinAddr: 0x10001A92C, symSize: 0x2C }
  - { offsetInCU: 0x5DE54, offset: 0x5DE54, size: 0x8, addend: 0x0, symName: __ZNSt3__116__non_trivial_ifILb1ENS_9allocatorINS_13__empty_stateIcEEEEEC2B7v160006Ev, symObjAddr: 0x182F8, symBinAddr: 0x10001A958, symSize: 0x14 }
  - { offsetInCU: 0x5DE7E, offset: 0x5DE7E, size: 0x8, addend: 0x0, symName: __ZNSt3__120__shared_ptr_pointerIPNS_13__empty_stateIcEENS_10shared_ptrIS2_E27__shared_ptr_default_deleteIS2_S2_EENS_9allocatorIS2_EEEC2B7v160006ES3_S7_S9_, symObjAddr: 0x1830C, symBinAddr: 0x10001A96C, symSize: 0xA8 }
  - { offsetInCU: 0x5DED2, offset: 0x5DED2, size: 0x8, addend: 0x0, symName: __ZNSt3__119__shared_weak_countC2B7v160006El, symObjAddr: 0x183B4, symBinAddr: 0x10001AA14, symSize: 0x54 }
  - { offsetInCU: 0x5DF10, offset: 0x5DF10, size: 0x8, addend: 0x0, symName: __ZNSt3__117__compressed_pairIPNS_13__empty_stateIcEENS_10shared_ptrIS2_E27__shared_ptr_default_deleteIS2_S2_EEEC1B7v160006IRS3_S7_EEOT_OT0_, symObjAddr: 0x18408, symBinAddr: 0x10001AA68, symSize: 0x3C }
  - { offsetInCU: 0x5DF74, offset: 0x5DF74, size: 0x8, addend: 0x0, symName: __ZNSt3__117__compressed_pairINS0_IPNS_13__empty_stateIcEENS_10shared_ptrIS2_E27__shared_ptr_default_deleteIS2_S2_EEEENS_9allocatorIS2_EEEC1B7v160006IS8_SA_EEOT_OT0_, symObjAddr: 0x18444, symBinAddr: 0x10001AAA4, symSize: 0x3C }
  - { offsetInCU: 0x5DFCC, offset: 0x5DFCC, size: 0x8, addend: 0x0, symName: __ZNSt3__120__shared_ptr_pointerIPNS_13__empty_stateIcEENS_10shared_ptrIS2_E27__shared_ptr_default_deleteIS2_S2_EENS_9allocatorIS2_EEED1Ev, symObjAddr: 0x18480, symBinAddr: 0x10001AAE0, symSize: 0x2C }
  - { offsetInCU: 0x5DFF8, offset: 0x5DFF8, size: 0x8, addend: 0x0, symName: __ZNSt3__120__shared_ptr_pointerIPNS_13__empty_stateIcEENS_10shared_ptrIS2_E27__shared_ptr_default_deleteIS2_S2_EENS_9allocatorIS2_EEED0Ev, symObjAddr: 0x184AC, symBinAddr: 0x10001AB0C, symSize: 0x30 }
  - { offsetInCU: 0x5E024, offset: 0x5E024, size: 0x8, addend: 0x0, symName: __ZNSt3__120__shared_ptr_pointerIPNS_13__empty_stateIcEENS_10shared_ptrIS2_E27__shared_ptr_default_deleteIS2_S2_EENS_9allocatorIS2_EEE16__on_zero_sharedEv, symObjAddr: 0x184DC, symBinAddr: 0x10001AB3C, symSize: 0x64 }
  - { offsetInCU: 0x5E04B, offset: 0x5E04B, size: 0x8, addend: 0x0, symName: __ZNKSt3__120__shared_ptr_pointerIPNS_13__empty_stateIcEENS_10shared_ptrIS2_E27__shared_ptr_default_deleteIS2_S2_EENS_9allocatorIS2_EEE13__get_deleterERKSt9type_info, symObjAddr: 0x18540, symBinAddr: 0x10001ABA0, symSize: 0x68 }
  - { offsetInCU: 0x5E080, offset: 0x5E080, size: 0x8, addend: 0x0, symName: __ZNSt3__120__shared_ptr_pointerIPNS_13__empty_stateIcEENS_10shared_ptrIS2_E27__shared_ptr_default_deleteIS2_S2_EENS_9allocatorIS2_EEE21__on_zero_shared_weakEv, symObjAddr: 0x185A8, symBinAddr: 0x10001AC08, symSize: 0x60 }
  - { offsetInCU: 0x5E0C1, offset: 0x5E0C1, size: 0x8, addend: 0x0, symName: __ZNSt3__114__shared_countC2B7v160006El, symObjAddr: 0x18608, symBinAddr: 0x10001AC68, symSize: 0x30 }
  - { offsetInCU: 0x5E0F9, offset: 0x5E0F9, size: 0x8, addend: 0x0, symName: __ZNSt3__117__compressed_pairIPNS_13__empty_stateIcEENS_10shared_ptrIS2_E27__shared_ptr_default_deleteIS2_S2_EEEC2B7v160006IRS3_S7_EEOT_OT0_, symObjAddr: 0x18638, symBinAddr: 0x10001AC98, symSize: 0x44 }
  - { offsetInCU: 0x5E151, offset: 0x5E151, size: 0x8, addend: 0x0, symName: __ZNSt3__122__compressed_pair_elemINS_10shared_ptrINS_13__empty_stateIcEEE27__shared_ptr_default_deleteIS3_S3_EELi1ELb1EEC2B7v160006IS6_vEEOT_, symObjAddr: 0x1867C, symBinAddr: 0x10001ACDC, symSize: 0x18 }
  - { offsetInCU: 0x5E193, offset: 0x5E193, size: 0x8, addend: 0x0, symName: __ZNSt3__117__compressed_pairINS0_IPNS_13__empty_stateIcEENS_10shared_ptrIS2_E27__shared_ptr_default_deleteIS2_S2_EEEENS_9allocatorIS2_EEEC2B7v160006IS8_SA_EEOT_OT0_, symObjAddr: 0x18694, symBinAddr: 0x10001ACF4, symSize: 0x44 }
  - { offsetInCU: 0x5E1EB, offset: 0x5E1EB, size: 0x8, addend: 0x0, symName: __ZNSt3__122__compressed_pair_elemINS_17__compressed_pairIPNS_13__empty_stateIcEENS_10shared_ptrIS3_E27__shared_ptr_default_deleteIS3_S3_EEEELi0ELb0EEC2B7v160006IS9_vEEOT_, symObjAddr: 0x186D8, symBinAddr: 0x10001AD38, symSize: 0x24 }
  - { offsetInCU: 0x5E22D, offset: 0x5E22D, size: 0x8, addend: 0x0, symName: __ZNSt3__122__compressed_pair_elemINS_9allocatorINS_13__empty_stateIcEEEELi1ELb1EEC2B7v160006IS4_vEEOT_, symObjAddr: 0x186FC, symBinAddr: 0x10001AD5C, symSize: 0x18 }
  - { offsetInCU: 0x5E26F, offset: 0x5E26F, size: 0x8, addend: 0x0, symName: __ZNSt3__120__shared_ptr_pointerIPNS_13__empty_stateIcEENS_10shared_ptrIS2_E27__shared_ptr_default_deleteIS2_S2_EENS_9allocatorIS2_EEED2Ev, symObjAddr: 0x18714, symBinAddr: 0x10001AD74, symSize: 0x2C }
  - { offsetInCU: 0x5E29B, offset: 0x5E29B, size: 0x8, addend: 0x0, symName: __ZNSt3__117__compressed_pairINS0_IPNS_13__empty_stateIcEENS_10shared_ptrIS2_E27__shared_ptr_default_deleteIS2_S2_EEEENS_9allocatorIS2_EEE5firstB7v160006Ev, symObjAddr: 0x18740, symBinAddr: 0x10001ADA0, symSize: 0x24 }
  - { offsetInCU: 0x5E2C1, offset: 0x5E2C1, size: 0x8, addend: 0x0, symName: __ZNSt3__117__compressed_pairIPNS_13__empty_stateIcEENS_10shared_ptrIS2_E27__shared_ptr_default_deleteIS2_S2_EEE6secondB7v160006Ev, symObjAddr: 0x18764, symBinAddr: 0x10001ADC4, symSize: 0x24 }
  - { offsetInCU: 0x5E2E7, offset: 0x5E2E7, size: 0x8, addend: 0x0, symName: __ZNKSt3__114default_deleteINS_13__empty_stateIcEEEclB7v160006EPS2_, symObjAddr: 0x18788, symBinAddr: 0x10001ADE8, symSize: 0x4C }
  - { offsetInCU: 0x5E31B, offset: 0x5E31B, size: 0x8, addend: 0x0, symName: __ZNSt3__117__compressed_pairIPNS_13__empty_stateIcEENS_10shared_ptrIS2_E27__shared_ptr_default_deleteIS2_S2_EEE5firstB7v160006Ev, symObjAddr: 0x187D4, symBinAddr: 0x10001AE34, symSize: 0x24 }
  - { offsetInCU: 0x5E341, offset: 0x5E341, size: 0x8, addend: 0x0, symName: __ZNSt3__122__compressed_pair_elemINS_17__compressed_pairIPNS_13__empty_stateIcEENS_10shared_ptrIS3_E27__shared_ptr_default_deleteIS3_S3_EEEELi0ELb0EE5__getB7v160006Ev, symObjAddr: 0x187F8, symBinAddr: 0x10001AE58, symSize: 0x14 }
  - { offsetInCU: 0x5E367, offset: 0x5E367, size: 0x8, addend: 0x0, symName: __ZNSt3__122__compressed_pair_elemINS_10shared_ptrINS_13__empty_stateIcEEE27__shared_ptr_default_deleteIS3_S3_EELi1ELb1EE5__getB7v160006Ev, symObjAddr: 0x1880C, symBinAddr: 0x10001AE6C, symSize: 0x14 }
  - { offsetInCU: 0x5E38D, offset: 0x5E38D, size: 0x8, addend: 0x0, symName: __ZNSt3__122__compressed_pair_elemIPNS_13__empty_stateIcEELi0ELb0EE5__getB7v160006Ev, symObjAddr: 0x18820, symBinAddr: 0x10001AE80, symSize: 0x14 }
  - { offsetInCU: 0x5E3E9, offset: 0x5E3E9, size: 0x8, addend: 0x0, symName: __ZNKSt9type_infoeqB7v160006ERKS_, symObjAddr: 0x18834, symBinAddr: 0x10001AE94, symSize: 0xDC }
  - { offsetInCU: 0x5E487, offset: 0x5E487, size: 0x8, addend: 0x0, symName: __ZNKSt3__117__compressed_pairINS0_IPNS_13__empty_stateIcEENS_10shared_ptrIS2_E27__shared_ptr_default_deleteIS2_S2_EEEENS_9allocatorIS2_EEE5firstB7v160006Ev, symObjAddr: 0x18910, symBinAddr: 0x10001AF70, symSize: 0x24 }
  - { offsetInCU: 0x5E4AD, offset: 0x5E4AD, size: 0x8, addend: 0x0, symName: __ZNKSt3__117__compressed_pairIPNS_13__empty_stateIcEENS_10shared_ptrIS2_E27__shared_ptr_default_deleteIS2_S2_EEE6secondB7v160006Ev, symObjAddr: 0x18934, symBinAddr: 0x10001AF94, symSize: 0x24 }
  - { offsetInCU: 0x5E4D3, offset: 0x5E4D3, size: 0x8, addend: 0x0, symName: __ZNSt27__type_info_implementations30__non_unique_arm_rtti_bit_impl21__is_type_name_uniqueB7v160006Em, symObjAddr: 0x18958, symBinAddr: 0x10001AFB8, symSize: 0x20 }
  - { offsetInCU: 0x5E4F7, offset: 0x5E4F7, size: 0x8, addend: 0x0, symName: __ZNKSt3__122__compressed_pair_elemINS_17__compressed_pairIPNS_13__empty_stateIcEENS_10shared_ptrIS3_E27__shared_ptr_default_deleteIS3_S3_EEEELi0ELb0EE5__getB7v160006Ev, symObjAddr: 0x18978, symBinAddr: 0x10001AFD8, symSize: 0x14 }
  - { offsetInCU: 0x5E51D, offset: 0x5E51D, size: 0x8, addend: 0x0, symName: __ZNKSt3__122__compressed_pair_elemINS_10shared_ptrINS_13__empty_stateIcEEE27__shared_ptr_default_deleteIS3_S3_EELi1ELb1EE5__getB7v160006Ev, symObjAddr: 0x1898C, symBinAddr: 0x10001AFEC, symSize: 0x14 }
  - { offsetInCU: 0x5E543, offset: 0x5E543, size: 0x8, addend: 0x0, symName: __ZNSt3__117__compressed_pairINS0_IPNS_13__empty_stateIcEENS_10shared_ptrIS2_E27__shared_ptr_default_deleteIS2_S2_EEEENS_9allocatorIS2_EEE6secondB7v160006Ev, symObjAddr: 0x189A0, symBinAddr: 0x10001B000, symSize: 0x24 }
  - { offsetInCU: 0x5E57B, offset: 0x5E57B, size: 0x8, addend: 0x0, symName: __ZNSt3__19allocatorINS_20__shared_ptr_pointerIPNS_13__empty_stateIcEENS_10shared_ptrIS3_E27__shared_ptr_default_deleteIS3_S3_EENS0_IS3_EEEEEC1B7v160006IS3_EERKNS0_IT_EE, symObjAddr: 0x189C4, symBinAddr: 0x10001B024, symSize: 0x34 }
  - { offsetInCU: 0x5E5B8, offset: 0x5E5B8, size: 0x8, addend: 0x0, symName: __ZNSt3__19allocatorINS_20__shared_ptr_pointerIPNS_13__empty_stateIcEENS_10shared_ptrIS3_E27__shared_ptr_default_deleteIS3_S3_EENS0_IS3_EEEEE10deallocateB7v160006EPSA_m, symObjAddr: 0x189F8, symBinAddr: 0x10001B058, symSize: 0x40 }
  - { offsetInCU: 0x5E600, offset: 0x5E600, size: 0x8, addend: 0x0, symName: __ZNSt3__114pointer_traitsIPNS_20__shared_ptr_pointerIPNS_13__empty_stateIcEENS_10shared_ptrIS3_E27__shared_ptr_default_deleteIS3_S3_EENS_9allocatorIS3_EEEEE10pointer_toB7v160006ERSB_, symObjAddr: 0x18A38, symBinAddr: 0x10001B098, symSize: 0x14 }
  - { offsetInCU: 0x5E623, offset: 0x5E623, size: 0x8, addend: 0x0, symName: __ZNSt3__122__compressed_pair_elemINS_9allocatorINS_13__empty_stateIcEEEELi1ELb1EE5__getB7v160006Ev, symObjAddr: 0x18A4C, symBinAddr: 0x10001B0AC, symSize: 0x14 }
  - { offsetInCU: 0x5E649, offset: 0x5E649, size: 0x8, addend: 0x0, symName: __ZNSt3__19allocatorINS_20__shared_ptr_pointerIPNS_13__empty_stateIcEENS_10shared_ptrIS3_E27__shared_ptr_default_deleteIS3_S3_EENS0_IS3_EEEEEC2B7v160006IS3_EERKNS0_IT_EE, symObjAddr: 0x18A60, symBinAddr: 0x10001B0C0, symSize: 0x30 }
  - { offsetInCU: 0x5E686, offset: 0x5E686, size: 0x8, addend: 0x0, symName: __ZNSt3__116__non_trivial_ifILb1ENS_9allocatorINS_20__shared_ptr_pointerIPNS_13__empty_stateIcEENS_10shared_ptrIS4_E27__shared_ptr_default_deleteIS4_S4_EENS1_IS4_EEEEEEEC2B7v160006Ev, symObjAddr: 0x18A90, symBinAddr: 0x10001B0F0, symSize: 0x14 }
  - { offsetInCU: 0x5E6B0, offset: 0x5E6B0, size: 0x8, addend: 0x0, symName: __ZNSt3__117__compressed_pairIPNS_13__empty_stateIcEENS_14default_deleteIS2_EEE5firstB7v160006Ev, symObjAddr: 0x18AA4, symBinAddr: 0x10001B104, symSize: 0x24 }
  - { offsetInCU: 0x5E6D6, offset: 0x5E6D6, size: 0x8, addend: 0x0, symName: __ZNSt3__110unique_ptrINS_13__empty_stateIcEENS_14default_deleteIS2_EEED2B7v160006Ev, symObjAddr: 0x18AC8, symBinAddr: 0x10001B128, symSize: 0x30 }
  - { offsetInCU: 0x5E700, offset: 0x5E700, size: 0x8, addend: 0x0, symName: __ZNSt3__110unique_ptrINS_13__empty_stateIcEENS_14default_deleteIS2_EEE5resetB7v160006EPS2_, symObjAddr: 0x18AF8, symBinAddr: 0x10001B158, symSize: 0x78 }
  - { offsetInCU: 0x5E744, offset: 0x5E744, size: 0x8, addend: 0x0, symName: __ZNSt3__117__compressed_pairIPNS_13__empty_stateIcEENS_14default_deleteIS2_EEE6secondB7v160006Ev, symObjAddr: 0x18B70, symBinAddr: 0x10001B1D0, symSize: 0x24 }
  - { offsetInCU: 0x5E76A, offset: 0x5E76A, size: 0x8, addend: 0x0, symName: __ZNSt3__122__compressed_pair_elemINS_14default_deleteINS_13__empty_stateIcEEEELi1ELb1EE5__getB7v160006Ev, symObjAddr: 0x18B94, symBinAddr: 0x10001B1F4, symSize: 0x14 }
  - { offsetInCU: 0x5E790, offset: 0x5E790, size: 0x8, addend: 0x0, symName: __ZNKSt3__117__compressed_pairIPNS_6__nodeIcEENS_14default_deleteIS2_EEE5firstB7v160006Ev, symObjAddr: 0x18C20, symBinAddr: 0x10001B280, symSize: 0x24 }
  - { offsetInCU: 0x5E7B6, offset: 0x5E7B6, size: 0x8, addend: 0x0, symName: __ZNKSt3__122__compressed_pair_elemIPNS_6__nodeIcEELi0ELb0EE5__getB7v160006Ev, symObjAddr: 0x18C44, symBinAddr: 0x10001B2A4, symSize: 0x14 }
  - { offsetInCU: 0x5E7DC, offset: 0x5E7DC, size: 0x8, addend: 0x0, symName: __ZNSt3__113__empty_stateIcEC2B7v160006EPNS_6__nodeIcEE, symObjAddr: 0x18C58, symBinAddr: 0x10001B2B8, symSize: 0x4C }
  - { offsetInCU: 0x5E815, offset: 0x5E815, size: 0x8, addend: 0x0, symName: __ZNSt3__116__owns_one_stateIcEC2B7v160006EPNS_6__nodeIcEE, symObjAddr: 0x18CA4, symBinAddr: 0x10001B304, symSize: 0x4C }
  - { offsetInCU: 0x5E84E, offset: 0x5E84E, size: 0x8, addend: 0x0, symName: __ZNSt3__113__empty_stateIcED1Ev, symObjAddr: 0x18CF0, symBinAddr: 0x10001B350, symSize: 0x2C }
  - { offsetInCU: 0x5E87B, offset: 0x5E87B, size: 0x8, addend: 0x0, symName: __ZNSt3__113__empty_stateIcED0Ev, symObjAddr: 0x18D1C, symBinAddr: 0x10001B37C, symSize: 0x30 }
  - { offsetInCU: 0x5E8A8, offset: 0x5E8A8, size: 0x8, addend: 0x0, symName: __ZNKSt3__113__empty_stateIcE6__execERNS_7__stateIcEE, symObjAddr: 0x18D4C, symBinAddr: 0x10001B3AC, symSize: 0x3C }
  - { offsetInCU: 0x5E8DF, offset: 0x5E8DF, size: 0x8, addend: 0x0, symName: __ZNSt3__115__has_one_stateIcEC2B7v160006EPNS_6__nodeIcEE, symObjAddr: 0x18D88, symBinAddr: 0x10001B3E8, symSize: 0x50 }
  - { offsetInCU: 0x5E918, offset: 0x5E918, size: 0x8, addend: 0x0, symName: __ZNSt3__116__owns_one_stateIcED1Ev, symObjAddr: 0x18DD8, symBinAddr: 0x10001B438, symSize: 0x2C }
  - { offsetInCU: 0x5E944, offset: 0x5E944, size: 0x8, addend: 0x0, symName: __ZNSt3__116__owns_one_stateIcED0Ev, symObjAddr: 0x18E04, symBinAddr: 0x10001B464, symSize: 0x30 }
  - { offsetInCU: 0x5E970, offset: 0x5E970, size: 0x8, addend: 0x0, symName: __ZNSt3__115__has_one_stateIcED1Ev, symObjAddr: 0x18E34, symBinAddr: 0x10001B494, symSize: 0x2C }
  - { offsetInCU: 0x5E99D, offset: 0x5E99D, size: 0x8, addend: 0x0, symName: __ZNSt3__115__has_one_stateIcED0Ev, symObjAddr: 0x18E60, symBinAddr: 0x10001B4C0, symSize: 0x30 }
  - { offsetInCU: 0x5E9CA, offset: 0x5E9CA, size: 0x8, addend: 0x0, symName: __ZNSt3__115__has_one_stateIcED2Ev, symObjAddr: 0x18E90, symBinAddr: 0x10001B4F0, symSize: 0x2C }
  - { offsetInCU: 0x5E9F7, offset: 0x5E9F7, size: 0x8, addend: 0x0, symName: __ZNSt3__116__owns_one_stateIcED2Ev, symObjAddr: 0x18EBC, symBinAddr: 0x10001B51C, symSize: 0x88 }
  - { offsetInCU: 0x5EA23, offset: 0x5EA23, size: 0x8, addend: 0x0, symName: __ZNSt3__115__has_one_stateIcE5firstB7v160006Ev, symObjAddr: 0x18F44, symBinAddr: 0x10001B5A4, symSize: 0x18 }
  - { offsetInCU: 0x5EA49, offset: 0x5EA49, size: 0x8, addend: 0x0, symName: __ZNSt3__113__empty_stateIcED2Ev, symObjAddr: 0x18F5C, symBinAddr: 0x10001B5BC, symSize: 0x2C }
  - { offsetInCU: 0x5EA76, offset: 0x5EA76, size: 0x8, addend: 0x0, symName: __ZNKSt3__115__has_one_stateIcE5firstB7v160006Ev, symObjAddr: 0x18F88, symBinAddr: 0x10001B5E8, symSize: 0x18 }
  - { offsetInCU: 0x5EA9C, offset: 0x5EA9C, size: 0x8, addend: 0x0, symName: __ZNSt3__117__compressed_pairIPNS_6__nodeIcEENS_14default_deleteIS2_EEE5firstB7v160006Ev, symObjAddr: 0x18FA0, symBinAddr: 0x10001B600, symSize: 0x24 }
  - { offsetInCU: 0x5EAC2, offset: 0x5EAC2, size: 0x8, addend: 0x0, symName: __ZNSt3__122__compressed_pair_elemIPNS_6__nodeIcEELi0ELb0EE5__getB7v160006Ev, symObjAddr: 0x18FC4, symBinAddr: 0x10001B624, symSize: 0x14 }
  - { offsetInCU: 0x5EAE8, offset: 0x5EAE8, size: 0x8, addend: 0x0, symName: __ZNSt3__110unique_ptrINS_6__nodeIcEENS_14default_deleteIS2_EEED2B7v160006Ev, symObjAddr: 0x18FD8, symBinAddr: 0x10001B638, symSize: 0x30 }
  - { offsetInCU: 0x5EB12, offset: 0x5EB12, size: 0x8, addend: 0x0, symName: __ZNSt3__110unique_ptrINS_6__nodeIcEENS_14default_deleteIS2_EEE5resetB7v160006EPS2_, symObjAddr: 0x19008, symBinAddr: 0x10001B668, symSize: 0x78 }
  - { offsetInCU: 0x5EB56, offset: 0x5EB56, size: 0x8, addend: 0x0, symName: __ZNSt3__117__compressed_pairIPNS_6__nodeIcEENS_14default_deleteIS2_EEE6secondB7v160006Ev, symObjAddr: 0x19080, symBinAddr: 0x10001B6E0, symSize: 0x24 }
  - { offsetInCU: 0x5EB7C, offset: 0x5EB7C, size: 0x8, addend: 0x0, symName: __ZNKSt3__114default_deleteINS_6__nodeIcEEEclB7v160006EPS2_, symObjAddr: 0x190A4, symBinAddr: 0x10001B704, symSize: 0x4C }
  - { offsetInCU: 0x5EBB0, offset: 0x5EBB0, size: 0x8, addend: 0x0, symName: __ZNSt3__122__compressed_pair_elemINS_14default_deleteINS_6__nodeIcEEEELi1ELb1EE5__getB7v160006Ev, symObjAddr: 0x190F0, symBinAddr: 0x10001B750, symSize: 0x14 }
  - { offsetInCU: 0x5EBD6, offset: 0x5EBD6, size: 0x8, addend: 0x0, symName: __ZNSt3__111basic_regexIcNS_12regex_traitsIcEEE19__parse_alternativeINS_11__wrap_iterIPKcEEEET_S9_S9_, symObjAddr: 0x19104, symBinAddr: 0x10001B764, symSize: 0x90 }
  - { offsetInCU: 0x5EC43, offset: 0x5EC43, size: 0x8, addend: 0x0, symName: __ZNSt3__111basic_regexIcNS_12regex_traitsIcEEE12__push_emptyEv, symObjAddr: 0x191DC, symBinAddr: 0x10001B83C, symSize: 0xA0 }
  - { offsetInCU: 0x5EC6B, offset: 0x5EC6B, size: 0x8, addend: 0x0, symName: __ZNKSt3__111__wrap_iterIPKcEdeB7v160006Ev, symObjAddr: 0x1927C, symBinAddr: 0x10001B8DC, symSize: 0x18 }
  - { offsetInCU: 0x5EC91, offset: 0x5EC91, size: 0x8, addend: 0x0, symName: __ZNSt3__111__wrap_iterIPKcEppB7v160006Ev, symObjAddr: 0x19294, symBinAddr: 0x10001B8F4, symSize: 0x20 }
  - { offsetInCU: 0x5ECB7, offset: 0x5ECB7, size: 0x8, addend: 0x0, symName: __ZNSt3__111basic_regexIcNS_12regex_traitsIcEEE18__push_alternationEPNS_16__owns_one_stateIcEES6_, symObjAddr: 0x192B4, symBinAddr: 0x10001B914, symSize: 0x17C }
  - { offsetInCU: 0x5ECFD, offset: 0x5ECFD, size: 0x8, addend: 0x0, symName: __ZNSt3__111basic_regexIcNS_12regex_traitsIcEEE12__parse_termINS_11__wrap_iterIPKcEEEET_S9_S9_, symObjAddr: 0x19430, symBinAddr: 0x10001BA90, symSize: 0x124 }
  - { offsetInCU: 0x5ED89, offset: 0x5ED89, size: 0x8, addend: 0x0, symName: __ZNSt3__111basic_regexIcNS_12regex_traitsIcEEE17__parse_assertionINS_11__wrap_iterIPKcEEEET_S9_S9_, symObjAddr: 0x19554, symBinAddr: 0x10001BBB4, symSize: 0x48C }
  - { offsetInCU: 0x5EE57, offset: 0x5EE57, size: 0x8, addend: 0x0, symName: __ZNSt3__111basic_regexIcNS_12regex_traitsIcEEE12__parse_atomINS_11__wrap_iterIPKcEEEET_S9_S9_, symObjAddr: 0x199E0, symBinAddr: 0x10001C040, symSize: 0x380 }
  - { offsetInCU: 0x5EEE4, offset: 0x5EEE4, size: 0x8, addend: 0x0, symName: __ZNSt3__111basic_regexIcNS_12regex_traitsIcEEE23__parse_ERE_dupl_symbolINS_11__wrap_iterIPKcEEEET_S9_S9_PNS_16__owns_one_stateIcEEjj, symObjAddr: 0x19D60, symBinAddr: 0x10001C3C0, symSize: 0x648 }
  - { offsetInCU: 0x5EFCA, offset: 0x5EFCA, size: 0x8, addend: 0x0, symName: __ZNSt3__111basic_regexIcNS_12regex_traitsIcEEE15__push_l_anchorEv, symObjAddr: 0x1A3A8, symBinAddr: 0x10001CA08, symSize: 0xBC }
  - { offsetInCU: 0x5EFF2, offset: 0x5EFF2, size: 0x8, addend: 0x0, symName: __ZNSt3__111basic_regexIcNS_12regex_traitsIcEEE15__push_r_anchorEv, symObjAddr: 0x1A464, symBinAddr: 0x10001CAC4, symSize: 0xBC }
  - { offsetInCU: 0x5F01A, offset: 0x5F01A, size: 0x8, addend: 0x0, symName: __ZNSt3__111basic_regexIcNS_12regex_traitsIcEEE20__push_word_boundaryEb, symObjAddr: 0x1A570, symBinAddr: 0x10001CBD0, symSize: 0xC0 }
  - { offsetInCU: 0x5F051, offset: 0x5F051, size: 0x8, addend: 0x0, symName: __ZNSt3__111basic_regexIcNS_12regex_traitsIcEEEC1B7v160006Ev, symObjAddr: 0x1A630, symBinAddr: 0x10001CC90, symSize: 0x2C }
  - { offsetInCU: 0x5F07B, offset: 0x5F07B, size: 0x8, addend: 0x0, symName: __ZNSt3__111basic_regexIcNS_12regex_traitsIcEEE16__push_lookaheadERKS3_bj, symObjAddr: 0x1A65C, symBinAddr: 0x10001CCBC, symSize: 0xD4 }
  - { offsetInCU: 0x5F0D0, offset: 0x5F0D0, size: 0x8, addend: 0x0, symName: __ZNKSt3__111basic_regexIcNS_12regex_traitsIcEEE15__use_multilineB7v160006Ev, symObjAddr: 0x1A790, symBinAddr: 0x10001CDF0, symSize: 0x6C }
  - { offsetInCU: 0x5F10D, offset: 0x5F10D, size: 0x8, addend: 0x0, symName: __ZNSt3__120__l_anchor_multilineIcEC1B7v160006EbPNS_6__nodeIcEE, symObjAddr: 0x1A7FC, symBinAddr: 0x10001CE5C, symSize: 0x48 }
  - { offsetInCU: 0x5F155, offset: 0x5F155, size: 0x8, addend: 0x0, symName: __ZNSt3__120__l_anchor_multilineIcEC2B7v160006EbPNS_6__nodeIcEE, symObjAddr: 0x1A864, symBinAddr: 0x10001CEC4, symSize: 0x64 }
  - { offsetInCU: 0x5F19D, offset: 0x5F19D, size: 0x8, addend: 0x0, symName: __ZNSt3__120__l_anchor_multilineIcED1Ev, symObjAddr: 0x1A8C8, symBinAddr: 0x10001CF28, symSize: 0x2C }
  - { offsetInCU: 0x5F1CA, offset: 0x5F1CA, size: 0x8, addend: 0x0, symName: __ZNSt3__120__l_anchor_multilineIcED0Ev, symObjAddr: 0x1A8F4, symBinAddr: 0x10001CF54, symSize: 0x30 }
  - { offsetInCU: 0x5F1F7, offset: 0x5F1F7, size: 0x8, addend: 0x0, symName: __ZNKSt3__120__l_anchor_multilineIcE6__execERNS_7__stateIcEE, symObjAddr: 0x1A924, symBinAddr: 0x10001CF84, symSize: 0x114 }
  - { offsetInCU: 0x5F22E, offset: 0x5F22E, size: 0x8, addend: 0x0, symName: __ZNSt3__120__l_anchor_multilineIcED2Ev, symObjAddr: 0x1AA38, symBinAddr: 0x10001D098, symSize: 0x2C }
  - { offsetInCU: 0x5F272, offset: 0x5F272, size: 0x8, addend: 0x0, symName: __ZNSt3__120__r_anchor_multilineIcEC1B7v160006EbPNS_6__nodeIcEE, symObjAddr: 0x1AB94, symBinAddr: 0x10001D1F4, symSize: 0x48 }
  - { offsetInCU: 0x5F2BA, offset: 0x5F2BA, size: 0x8, addend: 0x0, symName: __ZNSt3__120__r_anchor_multilineIcEC2B7v160006EbPNS_6__nodeIcEE, symObjAddr: 0x1ABDC, symBinAddr: 0x10001D23C, symSize: 0x64 }
  - { offsetInCU: 0x5F302, offset: 0x5F302, size: 0x8, addend: 0x0, symName: __ZNSt3__120__r_anchor_multilineIcED1Ev, symObjAddr: 0x1AC40, symBinAddr: 0x10001D2A0, symSize: 0x2C }
  - { offsetInCU: 0x5F32F, offset: 0x5F32F, size: 0x8, addend: 0x0, symName: __ZNSt3__120__r_anchor_multilineIcED0Ev, symObjAddr: 0x1AC6C, symBinAddr: 0x10001D2CC, symSize: 0x30 }
  - { offsetInCU: 0x5F35C, offset: 0x5F35C, size: 0x8, addend: 0x0, symName: __ZNKSt3__120__r_anchor_multilineIcE6__execERNS_7__stateIcEE, symObjAddr: 0x1AC9C, symBinAddr: 0x10001D2FC, symSize: 0xEC }
  - { offsetInCU: 0x5F393, offset: 0x5F393, size: 0x8, addend: 0x0, symName: __ZNSt3__120__r_anchor_multilineIcED2Ev, symObjAddr: 0x1AD88, symBinAddr: 0x10001D3E8, symSize: 0x2C }
  - { offsetInCU: 0x5F3C0, offset: 0x5F3C0, size: 0x8, addend: 0x0, symName: __ZNSt3__111__wrap_iterIPKcEpLB7v160006El, symObjAddr: 0x1AE30, symBinAddr: 0x10001D490, symSize: 0x28 }
  - { offsetInCU: 0x5F40B, offset: 0x5F40B, size: 0x8, addend: 0x0, symName: __ZNSt3__115__word_boundaryIcNS_12regex_traitsIcEEEC1B7v160006ERKS2_bPNS_6__nodeIcEE, symObjAddr: 0x1AE58, symBinAddr: 0x10001D4B8, symSize: 0x50 }
  - { offsetInCU: 0x5F462, offset: 0x5F462, size: 0x8, addend: 0x0, symName: __ZNSt3__115__word_boundaryIcNS_12regex_traitsIcEEEC2B7v160006ERKS2_bPNS_6__nodeIcEE, symObjAddr: 0x1AEA8, symBinAddr: 0x10001D508, symSize: 0x78 }
  - { offsetInCU: 0x5F4B9, offset: 0x5F4B9, size: 0x8, addend: 0x0, symName: __ZNSt3__112regex_traitsIcEC1ERKS1_, symObjAddr: 0x1AF20, symBinAddr: 0x10001D580, symSize: 0x34 }
  - { offsetInCU: 0x5F4EF, offset: 0x5F4EF, size: 0x8, addend: 0x0, symName: __ZNSt3__115__word_boundaryIcNS_12regex_traitsIcEEED1Ev, symObjAddr: 0x1AF54, symBinAddr: 0x10001D5B4, symSize: 0x2C }
  - { offsetInCU: 0x5F51C, offset: 0x5F51C, size: 0x8, addend: 0x0, symName: __ZNSt3__115__word_boundaryIcNS_12regex_traitsIcEEED0Ev, symObjAddr: 0x1AF80, symBinAddr: 0x10001D5E0, symSize: 0x30 }
  - { offsetInCU: 0x5F549, offset: 0x5F549, size: 0x8, addend: 0x0, symName: __ZNKSt3__115__word_boundaryIcNS_12regex_traitsIcEEE6__execERNS_7__stateIcEE, symObjAddr: 0x1AFB0, symBinAddr: 0x10001D610, symSize: 0x2E4 }
  - { offsetInCU: 0x5F616, offset: 0x5F616, size: 0x8, addend: 0x0, symName: __ZNSt3__112regex_traitsIcEC2ERKS1_, symObjAddr: 0x1B294, symBinAddr: 0x10001D8F4, symSize: 0x40 }
  - { offsetInCU: 0x5F64C, offset: 0x5F64C, size: 0x8, addend: 0x0, symName: __ZNSt3__115__word_boundaryIcNS_12regex_traitsIcEEED2Ev, symObjAddr: 0x1B2D4, symBinAddr: 0x10001D934, symSize: 0x48 }
  - { offsetInCU: 0x5F679, offset: 0x5F679, size: 0x8, addend: 0x0, symName: __ZNKSt3__112regex_traitsIcE7isctypeEcj, symObjAddr: 0x1B31C, symBinAddr: 0x10001D97C, symSize: 0xA0 }
  - { offsetInCU: 0x5F6BF, offset: 0x5F6BF, size: 0x8, addend: 0x0, symName: __ZNSt3__111basic_regexIcNS_12regex_traitsIcEEEC2B7v160006Ev, symObjAddr: 0x1B3BC, symBinAddr: 0x10001DA1C, symSize: 0x4C }
  - { offsetInCU: 0x5F70C, offset: 0x5F70C, size: 0x8, addend: 0x0, symName: __ZNSt3__111__lookaheadIcNS_12regex_traitsIcEEEC1B7v160006ERKNS_11basic_regexIcS2_EEbPNS_6__nodeIcEEj, symObjAddr: 0x1B408, symBinAddr: 0x10001DA68, symSize: 0x58 }
  - { offsetInCU: 0x5F772, offset: 0x5F772, size: 0x8, addend: 0x0, symName: __ZNSt3__111__lookaheadIcNS_12regex_traitsIcEEEC2B7v160006ERKNS_11basic_regexIcS2_EEbPNS_6__nodeIcEEj, symObjAddr: 0x1B460, symBinAddr: 0x10001DAC0, symSize: 0x84 }
  - { offsetInCU: 0x5F7D8, offset: 0x5F7D8, size: 0x8, addend: 0x0, symName: __ZNSt3__111basic_regexIcNS_12regex_traitsIcEEEC1ERKS3_, symObjAddr: 0x1B4E4, symBinAddr: 0x10001DB44, symSize: 0x34 }
  - { offsetInCU: 0x5F80E, offset: 0x5F80E, size: 0x8, addend: 0x0, symName: __ZNSt3__111__lookaheadIcNS_12regex_traitsIcEEED1Ev, symObjAddr: 0x1B518, symBinAddr: 0x10001DB78, symSize: 0x2C }
  - { offsetInCU: 0x5F83B, offset: 0x5F83B, size: 0x8, addend: 0x0, symName: __ZNSt3__111__lookaheadIcNS_12regex_traitsIcEEED0Ev, symObjAddr: 0x1B544, symBinAddr: 0x10001DBA4, symSize: 0x30 }
  - { offsetInCU: 0x5F868, offset: 0x5F868, size: 0x8, addend: 0x0, symName: __ZNKSt3__111__lookaheadIcNS_12regex_traitsIcEEE6__execERNS_7__stateIcEE, symObjAddr: 0x1B574, symBinAddr: 0x10001DBD4, symSize: 0x274 }
  - { offsetInCU: 0x5F8DE, offset: 0x5F8DE, size: 0x8, addend: 0x0, symName: __ZNSt3__111basic_regexIcNS_12regex_traitsIcEEEC2ERKS3_, symObjAddr: 0x1B7E8, symBinAddr: 0x10001DE48, symSize: 0x60 }
  - { offsetInCU: 0x5F914, offset: 0x5F914, size: 0x8, addend: 0x0, symName: __ZNSt3__110shared_ptrINS_13__empty_stateIcEEEC1B7v160006ERKS3_, symObjAddr: 0x1B848, symBinAddr: 0x10001DEA8, symSize: 0x34 }
  - { offsetInCU: 0x5F94D, offset: 0x5F94D, size: 0x8, addend: 0x0, symName: __ZNSt3__110shared_ptrINS_13__empty_stateIcEEEC2B7v160006ERKS3_, symObjAddr: 0x1B87C, symBinAddr: 0x10001DEDC, symSize: 0x70 }
  - { offsetInCU: 0x5F986, offset: 0x5F986, size: 0x8, addend: 0x0, symName: __ZNSt3__111__lookaheadIcNS_12regex_traitsIcEEED2Ev, symObjAddr: 0x1B8EC, symBinAddr: 0x10001DF4C, symSize: 0x48 }
  - { offsetInCU: 0x5F9EB, offset: 0x5F9EB, size: 0x8, addend: 0x0, symName: __ZNSt3__113match_resultsIPKcNS_9allocatorINS_9sub_matchIS2_EEEEEC1Ev, symObjAddr: 0x1B934, symBinAddr: 0x10001DF94, symSize: 0x40 }
  - { offsetInCU: 0x5FA15, offset: 0x5FA15, size: 0x8, addend: 0x0, symName: __ZNSt3__113match_resultsIPKcNS_9allocatorINS_9sub_matchIS2_EEEEE6__initEjS2_S2_b, symObjAddr: 0x1B974, symBinAddr: 0x10001DFD4, symSize: 0xB0 }
  - { offsetInCU: 0x5FA79, offset: 0x5FA79, size: 0x8, addend: 0x0, symName: __ZNKSt3__111basic_regexIcNS_12regex_traitsIcEEE10mark_countB7v160006Ev, symObjAddr: 0x1BA24, symBinAddr: 0x10001E084, symSize: 0x18 }
  - { offsetInCU: 0x5FAA5, offset: 0x5FAA5, size: 0x8, addend: 0x0, symName: __ZNKSt3__111basic_regexIcNS_12regex_traitsIcEEE21__match_at_start_ecmaINS_9allocatorINS_9sub_matchIPKcEEEEEEbS8_S8_RNS_13match_resultsIS8_T_EENS_15regex_constants15match_flag_typeEb, symObjAddr: 0x1BA3C, symBinAddr: 0x10001E09C, symSize: 0x590 }
  - { offsetInCU: 0x5FBCB, offset: 0x5FBCB, size: 0x8, addend: 0x0, symName: __ZNKSt3__113match_resultsIPKcNS_9allocatorINS_9sub_matchIS2_EEEEE4sizeB7v160006Ev, symObjAddr: 0x1C030, symBinAddr: 0x10001E690, symSize: 0x24 }
  - { offsetInCU: 0x5FBF1, offset: 0x5FBF1, size: 0x8, addend: 0x0, symName: __ZNSt3__16vectorINS_9sub_matchIPKcEENS_9allocatorIS4_EEEixB7v160006Em, symObjAddr: 0x1C054, symBinAddr: 0x10001E6B4, symSize: 0x2C }
  - { offsetInCU: 0x5FC28, offset: 0x5FC28, size: 0x8, addend: 0x0, symName: __ZNSt3__19sub_matchIPKcEaSERKS3_, symObjAddr: 0x1C080, symBinAddr: 0x10001E6E0, symSize: 0x44 }
  - { offsetInCU: 0x5FC60, offset: 0x5FC60, size: 0x8, addend: 0x0, symName: __ZNSt3__113match_resultsIPKcNS_9allocatorINS_9sub_matchIS2_EEEEED1Ev, symObjAddr: 0x1C0C4, symBinAddr: 0x10001E724, symSize: 0x2C }
  - { offsetInCU: 0x5FC8D, offset: 0x5FC8D, size: 0x8, addend: 0x0, symName: __ZNSt3__19allocatorINS_9sub_matchIPKcEEEC1B7v160006Ev, symObjAddr: 0x1C0F0, symBinAddr: 0x10001E750, symSize: 0x2C }
  - { offsetInCU: 0x5FCB7, offset: 0x5FCB7, size: 0x8, addend: 0x0, symName: __ZNSt3__113match_resultsIPKcNS_9allocatorINS_9sub_matchIS2_EEEEEC1ERKS6_, symObjAddr: 0x1C11C, symBinAddr: 0x10001E77C, symSize: 0x34 }
  - { offsetInCU: 0x5FCF2, offset: 0x5FCF2, size: 0x8, addend: 0x0, symName: __ZNSt3__19allocatorINS_9sub_matchIPKcEEEC2B7v160006Ev, symObjAddr: 0x1C150, symBinAddr: 0x10001E7B0, symSize: 0x2C }
  - { offsetInCU: 0x5FD1C, offset: 0x5FD1C, size: 0x8, addend: 0x0, symName: __ZNSt3__116__non_trivial_ifILb1ENS_9allocatorINS_9sub_matchIPKcEEEEEC2B7v160006Ev, symObjAddr: 0x1C17C, symBinAddr: 0x10001E7DC, symSize: 0x14 }
  - { offsetInCU: 0x5FD46, offset: 0x5FD46, size: 0x8, addend: 0x0, symName: __ZNSt3__113match_resultsIPKcNS_9allocatorINS_9sub_matchIS2_EEEEEC2ERKS6_, symObjAddr: 0x1C190, symBinAddr: 0x10001E7F0, symSize: 0x90 }
  - { offsetInCU: 0x5FD81, offset: 0x5FD81, size: 0x8, addend: 0x0, symName: __ZNSt3__16vectorINS_9sub_matchIPKcEENS_9allocatorIS4_EEEC1B7v160006ERKS6_, symObjAddr: 0x1C220, symBinAddr: 0x10001E880, symSize: 0x34 }
  - { offsetInCU: 0x5FDBA, offset: 0x5FDBA, size: 0x8, addend: 0x0, symName: __ZNSt3__19sub_matchIPKcEC1B7v160006Ev, symObjAddr: 0x1C254, symBinAddr: 0x10001E8B4, symSize: 0x2C }
  - { offsetInCU: 0x5FDE4, offset: 0x5FDE4, size: 0x8, addend: 0x0, symName: __ZNSt3__16vectorINS_9sub_matchIPKcEENS_9allocatorIS4_EEED1B7v160006Ev, symObjAddr: 0x1C280, symBinAddr: 0x10001E8E0, symSize: 0x2C }
  - { offsetInCU: 0x5FE0E, offset: 0x5FE0E, size: 0x8, addend: 0x0, symName: __ZNSt3__16vectorINS_9sub_matchIPKcEENS_9allocatorIS4_EEEC2B7v160006ERKS6_, symObjAddr: 0x1C2AC, symBinAddr: 0x10001E90C, symSize: 0x5C }
  - { offsetInCU: 0x5FE47, offset: 0x5FE47, size: 0x8, addend: 0x0, symName: __ZNSt3__117__compressed_pairIPNS_9sub_matchIPKcEENS_9allocatorIS4_EEEC1B7v160006IDnRKS7_EEOT_OT0_, symObjAddr: 0x1C308, symBinAddr: 0x10001E968, symSize: 0x3C }
  - { offsetInCU: 0x5FE9F, offset: 0x5FE9F, size: 0x8, addend: 0x0, symName: __ZNSt3__117__compressed_pairIPNS_9sub_matchIPKcEENS_9allocatorIS4_EEEC2B7v160006IDnRKS7_EEOT_OT0_, symObjAddr: 0x1C354, symBinAddr: 0x10001E9B4, symSize: 0x44 }
  - { offsetInCU: 0x5FEF7, offset: 0x5FEF7, size: 0x8, addend: 0x0, symName: __ZNSt3__122__compressed_pair_elemIPNS_9sub_matchIPKcEELi0ELb0EEC2B7v160006IDnvEEOT_, symObjAddr: 0x1C398, symBinAddr: 0x10001E9F8, symSize: 0x1C }
  - { offsetInCU: 0x5FF39, offset: 0x5FF39, size: 0x8, addend: 0x0, symName: __ZNSt3__122__compressed_pair_elemINS_9allocatorINS_9sub_matchIPKcEEEELi1ELb1EEC2B7v160006IRKS6_vEEOT_, symObjAddr: 0x1C3B4, symBinAddr: 0x10001EA14, symSize: 0x18 }
  - { offsetInCU: 0x5FF7B, offset: 0x5FF7B, size: 0x8, addend: 0x0, symName: __ZNSt3__19sub_matchIPKcEC2B7v160006Ev, symObjAddr: 0x1C3CC, symBinAddr: 0x10001EA2C, symSize: 0x30 }
  - { offsetInCU: 0x5FFA5, offset: 0x5FFA5, size: 0x8, addend: 0x0, symName: __ZNSt3__14pairIPKcS2_EC2B7v160006ILb1ELPv0EEEv, symObjAddr: 0x1C3FC, symBinAddr: 0x10001EA5C, symSize: 0x1C }
  - { offsetInCU: 0x5FFDF, offset: 0x5FFDF, size: 0x8, addend: 0x0, symName: __ZNSt3__16vectorINS_9sub_matchIPKcEENS_9allocatorIS4_EEED2B7v160006Ev, symObjAddr: 0x1C418, symBinAddr: 0x10001EA78, symSize: 0x44 }
  - { offsetInCU: 0x60009, offset: 0x60009, size: 0x8, addend: 0x0, symName: __ZNSt3__16vectorINS_9sub_matchIPKcEENS_9allocatorIS4_EEE16__destroy_vectorC1ERS7_, symObjAddr: 0x1C45C, symBinAddr: 0x10001EABC, symSize: 0x34 }
  - { offsetInCU: 0x60042, offset: 0x60042, size: 0x8, addend: 0x0, symName: __ZNSt3__16vectorINS_9sub_matchIPKcEENS_9allocatorIS4_EEE16__destroy_vectorclB7v160006Ev, symObjAddr: 0x1C490, symBinAddr: 0x10001EAF0, symSize: 0x9C }
  - { offsetInCU: 0x60068, offset: 0x60068, size: 0x8, addend: 0x0, symName: __ZNSt3__16vectorINS_9sub_matchIPKcEENS_9allocatorIS4_EEE16__destroy_vectorC2ERS7_, symObjAddr: 0x1C52C, symBinAddr: 0x10001EB8C, symSize: 0x20 }
  - { offsetInCU: 0x600A1, offset: 0x600A1, size: 0x8, addend: 0x0, symName: __ZNKSt3__16vectorINS_9sub_matchIPKcEENS_9allocatorIS4_EEE17__annotate_deleteB7v160006Ev, symObjAddr: 0x1C54C, symBinAddr: 0x10001EBAC, symSize: 0xD4 }
  - { offsetInCU: 0x600C7, offset: 0x600C7, size: 0x8, addend: 0x0, symName: __ZNSt3__16vectorINS_9sub_matchIPKcEENS_9allocatorIS4_EEE7__clearB7v160006Ev, symObjAddr: 0x1C630, symBinAddr: 0x10001EC90, symSize: 0x28 }
  - { offsetInCU: 0x600ED, offset: 0x600ED, size: 0x8, addend: 0x0, symName: __ZNSt3__116allocator_traitsINS_9allocatorINS_9sub_matchIPKcEEEEE10deallocateB7v160006ERS6_PS5_m, symObjAddr: 0x1C658, symBinAddr: 0x10001ECB8, symSize: 0x34 }
  - { offsetInCU: 0x6012F, offset: 0x6012F, size: 0x8, addend: 0x0, symName: __ZNSt3__16vectorINS_9sub_matchIPKcEENS_9allocatorIS4_EEE7__allocB7v160006Ev, symObjAddr: 0x1C68C, symBinAddr: 0x10001ECEC, symSize: 0x28 }
  - { offsetInCU: 0x60155, offset: 0x60155, size: 0x8, addend: 0x0, symName: __ZNKSt3__16vectorINS_9sub_matchIPKcEENS_9allocatorIS4_EEE8capacityB7v160006Ev, symObjAddr: 0x1C6B4, symBinAddr: 0x10001ED14, symSize: 0x40 }
  - { offsetInCU: 0x6017B, offset: 0x6017B, size: 0x8, addend: 0x0, symName: __ZNKSt3__16vectorINS_9sub_matchIPKcEENS_9allocatorIS4_EEE31__annotate_contiguous_containerB7v160006EPKvS9_S9_S9_, symObjAddr: 0x1C6F4, symBinAddr: 0x10001ED54, symSize: 0x20 }
  - { offsetInCU: 0x601D1, offset: 0x601D1, size: 0x8, addend: 0x0, symName: __ZNKSt3__16vectorINS_9sub_matchIPKcEENS_9allocatorIS4_EEE4dataB7v160006Ev, symObjAddr: 0x1C714, symBinAddr: 0x10001ED74, symSize: 0x28 }
  - { offsetInCU: 0x601F7, offset: 0x601F7, size: 0x8, addend: 0x0, symName: __ZNKSt3__16vectorINS_9sub_matchIPKcEENS_9allocatorIS4_EEE4sizeB7v160006Ev, symObjAddr: 0x1C73C, symBinAddr: 0x10001ED9C, symSize: 0x28 }
  - { offsetInCU: 0x6021D, offset: 0x6021D, size: 0x8, addend: 0x0, symName: __ZNSt3__16vectorINS_9sub_matchIPKcEENS_9allocatorIS4_EEE22__base_destruct_at_endB7v160006EPS4_, symObjAddr: 0x1C778, symBinAddr: 0x10001EDD8, symSize: 0x8C }
  - { offsetInCU: 0x60261, offset: 0x60261, size: 0x8, addend: 0x0, symName: __ZNSt3__116allocator_traitsINS_9allocatorINS_9sub_matchIPKcEEEEE7destroyB7v160006IS5_vvEEvRS6_PT_, symObjAddr: 0x1C804, symBinAddr: 0x10001EE64, symSize: 0x28 }
  - { offsetInCU: 0x6029C, offset: 0x6029C, size: 0x8, addend: 0x0, symName: __ZNSt3__19allocatorINS_9sub_matchIPKcEEE10deallocateB7v160006EPS4_m, symObjAddr: 0x1C860, symBinAddr: 0x10001EEC0, symSize: 0x44 }
  - { offsetInCU: 0x602DE, offset: 0x602DE, size: 0x8, addend: 0x0, symName: __ZNSt3__117__compressed_pairIPNS_9sub_matchIPKcEENS_9allocatorIS4_EEE6secondB7v160006Ev, symObjAddr: 0x1C8A4, symBinAddr: 0x10001EF04, symSize: 0x24 }
  - { offsetInCU: 0x60304, offset: 0x60304, size: 0x8, addend: 0x0, symName: __ZNSt3__122__compressed_pair_elemINS_9allocatorINS_9sub_matchIPKcEEEELi1ELb1EE5__getB7v160006Ev, symObjAddr: 0x1C8C8, symBinAddr: 0x10001EF28, symSize: 0x14 }
  - { offsetInCU: 0x6032A, offset: 0x6032A, size: 0x8, addend: 0x0, symName: __ZNKSt3__16vectorINS_9sub_matchIPKcEENS_9allocatorIS4_EEE9__end_capB7v160006Ev, symObjAddr: 0x1C8DC, symBinAddr: 0x10001EF3C, symSize: 0x28 }
  - { offsetInCU: 0x60350, offset: 0x60350, size: 0x8, addend: 0x0, symName: __ZNKSt3__117__compressed_pairIPNS_9sub_matchIPKcEENS_9allocatorIS4_EEE5firstB7v160006Ev, symObjAddr: 0x1C904, symBinAddr: 0x10001EF64, symSize: 0x24 }
  - { offsetInCU: 0x60376, offset: 0x60376, size: 0x8, addend: 0x0, symName: __ZNKSt3__122__compressed_pair_elemIPNS_9sub_matchIPKcEELi0ELb0EE5__getB7v160006Ev, symObjAddr: 0x1C928, symBinAddr: 0x10001EF88, symSize: 0x14 }
  - { offsetInCU: 0x6039C, offset: 0x6039C, size: 0x8, addend: 0x0, symName: __ZNSt3__16vectorINS_9sub_matchIPKcEENS_9allocatorIS4_EEE6assignEmRKS4_, symObjAddr: 0x1C93C, symBinAddr: 0x10001EF9C, symSize: 0x118 }
  - { offsetInCU: 0x60400, offset: 0x60400, size: 0x8, addend: 0x0, symName: __ZNSt3__16vectorINS_9sub_matchIPKcEENS_9allocatorIS4_EEE18__construct_at_endEmRKS4_, symObjAddr: 0x1CA98, symBinAddr: 0x10001F0F8, symSize: 0xD0 }
  - { offsetInCU: 0x60482, offset: 0x60482, size: 0x8, addend: 0x0, symName: __ZNSt3__16vectorINS_9sub_matchIPKcEENS_9allocatorIS4_EEE17__destruct_at_endB7v160006EPS4_, symObjAddr: 0x1CB68, symBinAddr: 0x10001F1C8, symSize: 0x60 }
  - { offsetInCU: 0x604C6, offset: 0x604C6, size: 0x8, addend: 0x0, symName: __ZNSt3__16vectorINS_9sub_matchIPKcEENS_9allocatorIS4_EEE13__vdeallocateEv, symObjAddr: 0x1CBC8, symBinAddr: 0x10001F228, symSize: 0x8C }
  - { offsetInCU: 0x604EE, offset: 0x604EE, size: 0x8, addend: 0x0, symName: __ZNSt3__16vectorINS_9sub_matchIPKcEENS_9allocatorIS4_EEE11__vallocateB7v160006Em, symObjAddr: 0x1CC54, symBinAddr: 0x10001F2B4, symSize: 0xB4 }
  - { offsetInCU: 0x60532, offset: 0x60532, size: 0x8, addend: 0x0, symName: __ZNKSt3__16vectorINS_9sub_matchIPKcEENS_9allocatorIS4_EEE11__recommendB7v160006Em, symObjAddr: 0x1CD08, symBinAddr: 0x10001F368, symSize: 0xB4 }
  - { offsetInCU: 0x605A3, offset: 0x605A3, size: 0x8, addend: 0x0, symName: __ZNSt3__16vectorINS_9sub_matchIPKcEENS_9allocatorIS4_EEE21_ConstructTransactionC1B7v160006ERS7_m, symObjAddr: 0x1CE38, symBinAddr: 0x10001F498, symSize: 0x3C }
  - { offsetInCU: 0x605EB, offset: 0x605EB, size: 0x8, addend: 0x0, symName: __ZNSt3__116allocator_traitsINS_9allocatorINS_9sub_matchIPKcEEEEE9constructB7v160006IS5_JRKS5_EvvEEvRS6_PT_DpOT0_, symObjAddr: 0x1CE74, symBinAddr: 0x10001F4D4, symSize: 0x30 }
  - { offsetInCU: 0x60640, offset: 0x60640, size: 0x8, addend: 0x0, symName: __ZNSt3__16vectorINS_9sub_matchIPKcEENS_9allocatorIS4_EEE21_ConstructTransactionD1B7v160006Ev, symObjAddr: 0x1CEA4, symBinAddr: 0x10001F504, symSize: 0x2C }
  - { offsetInCU: 0x6066A, offset: 0x6066A, size: 0x8, addend: 0x0, symName: __ZNSt3__16vectorINS_9sub_matchIPKcEENS_9allocatorIS4_EEE21_ConstructTransactionC2B7v160006ERS7_m, symObjAddr: 0x1CED0, symBinAddr: 0x10001F530, symSize: 0x4C }
  - { offsetInCU: 0x606B2, offset: 0x606B2, size: 0x8, addend: 0x0, symName: __ZNSt3__16vectorINS_9sub_matchIPKcEENS_9allocatorIS4_EEE21_ConstructTransactionD2B7v160006Ev, symObjAddr: 0x1CF50, symBinAddr: 0x10001F5B0, symSize: 0x20 }
  - { offsetInCU: 0x606DC, offset: 0x606DC, size: 0x8, addend: 0x0, symName: __ZNSt3__16vectorINS_9sub_matchIPKcEENS_9allocatorIS4_EEE27__invalidate_iterators_pastB7v160006EPS4_, symObjAddr: 0x1CF70, symBinAddr: 0x10001F5D0, symSize: 0x14 }
  - { offsetInCU: 0x60713, offset: 0x60713, size: 0x8, addend: 0x0, symName: __ZNKSt3__16vectorINS_9sub_matchIPKcEENS_9allocatorIS4_EEE17__annotate_shrinkB7v160006Em, symObjAddr: 0x1CF84, symBinAddr: 0x10001F5E4, symSize: 0xD0 }
  - { offsetInCU: 0x60748, offset: 0x60748, size: 0x8, addend: 0x0, symName: __ZNSt3__16vectorINS_9sub_matchIPKcEENS_9allocatorIS4_EEE5clearB7v160006Ev, symObjAddr: 0x1D054, symBinAddr: 0x10001F6B4, symSize: 0x54 }
  - { offsetInCU: 0x6077D, offset: 0x6077D, size: 0x8, addend: 0x0, symName: __ZNSt3__16vectorINS_9sub_matchIPKcEENS_9allocatorIS4_EEE9__end_capB7v160006Ev, symObjAddr: 0x1D0A8, symBinAddr: 0x10001F708, symSize: 0x28 }
  - { offsetInCU: 0x607A3, offset: 0x607A3, size: 0x8, addend: 0x0, symName: __ZNSt3__117__compressed_pairIPNS_9sub_matchIPKcEENS_9allocatorIS4_EEE5firstB7v160006Ev, symObjAddr: 0x1D0D0, symBinAddr: 0x10001F730, symSize: 0x24 }
  - { offsetInCU: 0x607C9, offset: 0x607C9, size: 0x8, addend: 0x0, symName: __ZNSt3__122__compressed_pair_elemIPNS_9sub_matchIPKcEELi0ELb0EE5__getB7v160006Ev, symObjAddr: 0x1D0F4, symBinAddr: 0x10001F754, symSize: 0x14 }
  - { offsetInCU: 0x607EF, offset: 0x607EF, size: 0x8, addend: 0x0, symName: __ZNKSt3__16vectorINS_9sub_matchIPKcEENS_9allocatorIS4_EEE8max_sizeEv, symObjAddr: 0x1D108, symBinAddr: 0x10001F768, symSize: 0x60 }
  - { offsetInCU: 0x60817, offset: 0x60817, size: 0x8, addend: 0x0, symName: __ZNKSt3__16vectorINS_9sub_matchIPKcEENS_9allocatorIS4_EEE20__throw_length_errorB7v160006Ev, symObjAddr: 0x1D168, symBinAddr: 0x10001F7C8, symSize: 0x1C }
  - { offsetInCU: 0x6083D, offset: 0x6083D, size: 0x8, addend: 0x0, symName: __ZNKSt3__16vectorINS_9sub_matchIPKcEENS_9allocatorIS4_EEE14__annotate_newB7v160006Em, symObjAddr: 0x1D1C4, symBinAddr: 0x10001F824, symSize: 0xC8 }
  - { offsetInCU: 0x6087D, offset: 0x6087D, size: 0x8, addend: 0x0, symName: __ZNSt3__116allocator_traitsINS_9allocatorINS_9sub_matchIPKcEEEEE8max_sizeB7v160006IS6_vvEEmRKS6_, symObjAddr: 0x1D28C, symBinAddr: 0x10001F8EC, symSize: 0x28 }
  - { offsetInCU: 0x608A9, offset: 0x608A9, size: 0x8, addend: 0x0, symName: __ZNKSt3__16vectorINS_9sub_matchIPKcEENS_9allocatorIS4_EEE7__allocB7v160006Ev, symObjAddr: 0x1D2B4, symBinAddr: 0x10001F914, symSize: 0x28 }
  - { offsetInCU: 0x608CF, offset: 0x608CF, size: 0x8, addend: 0x0, symName: __ZNKSt3__117__compressed_pairIPNS_9sub_matchIPKcEENS_9allocatorIS4_EEE6secondB7v160006Ev, symObjAddr: 0x1D2DC, symBinAddr: 0x10001F93C, symSize: 0x24 }
  - { offsetInCU: 0x608F5, offset: 0x608F5, size: 0x8, addend: 0x0, symName: __ZNKSt3__122__compressed_pair_elemINS_9allocatorINS_9sub_matchIPKcEEEELi1ELb1EE5__getB7v160006Ev, symObjAddr: 0x1D300, symBinAddr: 0x10001F960, symSize: 0x14 }
  - { offsetInCU: 0x6091B, offset: 0x6091B, size: 0x8, addend: 0x0, symName: __ZNSt3__19allocatorINS_9sub_matchIPKcEEE8allocateB7v160006Em, symObjAddr: 0x1D314, symBinAddr: 0x10001F974, symSize: 0x5C }
  - { offsetInCU: 0x6094F, offset: 0x6094F, size: 0x8, addend: 0x0, symName: __ZNSt3__16vectorINS_7__stateIcEENS_9allocatorIS2_EEEC1B7v160006Ev, symObjAddr: 0x1D370, symBinAddr: 0x10001F9D0, symSize: 0x2C }
  - { offsetInCU: 0x60979, offset: 0x60979, size: 0x8, addend: 0x0, symName: __ZNSt3__16vectorINS_7__stateIcEENS_9allocatorIS2_EEE9push_backB7v160006EOS2_, symObjAddr: 0x1D39C, symBinAddr: 0x10001F9FC, symSize: 0x6C }
  - { offsetInCU: 0x609B0, offset: 0x609B0, size: 0x8, addend: 0x0, symName: __ZNSt3__17__stateIcEC1B7v160006Ev, symObjAddr: 0x1D408, symBinAddr: 0x10001FA68, symSize: 0x2C }
  - { offsetInCU: 0x609DA, offset: 0x609DA, size: 0x8, addend: 0x0, symName: __ZNSt3__17__stateIcED1Ev, symObjAddr: 0x1D434, symBinAddr: 0x10001FA94, symSize: 0x2C }
  - { offsetInCU: 0x60A07, offset: 0x60A07, size: 0x8, addend: 0x0, symName: __ZNSt3__16vectorINS_7__stateIcEENS_9allocatorIS2_EEE4backB7v160006Ev, symObjAddr: 0x1D460, symBinAddr: 0x10001FAC0, symSize: 0x1C }
  - { offsetInCU: 0x60A2D, offset: 0x60A2D, size: 0x8, addend: 0x0, symName: __ZNSt3__16vectorINS_9sub_matchIPKcEENS_9allocatorIS4_EEE6resizeEmRKS4_, symObjAddr: 0x1D47C, symBinAddr: 0x10001FADC, symSize: 0xA4 }
  - { offsetInCU: 0x60A82, offset: 0x60A82, size: 0x8, addend: 0x0, symName: __ZNSt3__16vectorINS_4pairImPKcEENS_9allocatorIS4_EEE6resizeEm, symObjAddr: 0x1D520, symBinAddr: 0x10001FB80, symSize: 0x94 }
  - { offsetInCU: 0x60AC8, offset: 0x60AC8, size: 0x8, addend: 0x0, symName: __ZNKSt3__111basic_regexIcNS_12regex_traitsIcEEE12__loop_countB7v160006Ev, symObjAddr: 0x1D5B4, symBinAddr: 0x10001FC14, symSize: 0x18 }
  - { offsetInCU: 0x60AEE, offset: 0x60AEE, size: 0x8, addend: 0x0, symName: __ZNSt3__16vectorINS_7__stateIcEENS_9allocatorIS2_EEE8pop_backEv, symObjAddr: 0x1D62C, symBinAddr: 0x10001FC8C, symSize: 0x2C }
  - { offsetInCU: 0x60B1C, offset: 0x60B1C, size: 0x8, addend: 0x0, symName: __ZNSt3__17__stateIcEC1ERKS1_, symObjAddr: 0x1D6A0, symBinAddr: 0x10001FD00, symSize: 0x34 }
  - { offsetInCU: 0x60B52, offset: 0x60B52, size: 0x8, addend: 0x0, symName: __ZNKSt3__16vectorINS_7__stateIcEENS_9allocatorIS2_EEE5emptyB7v160006Ev, symObjAddr: 0x1D734, symBinAddr: 0x10001FD94, symSize: 0x28 }
  - { offsetInCU: 0x60B78, offset: 0x60B78, size: 0x8, addend: 0x0, symName: __ZNSt3__16vectorINS_7__stateIcEENS_9allocatorIS2_EEED1B7v160006Ev, symObjAddr: 0x1D75C, symBinAddr: 0x10001FDBC, symSize: 0x2C }
  - { offsetInCU: 0x60BA2, offset: 0x60BA2, size: 0x8, addend: 0x0, symName: __ZNSt3__16vectorINS_7__stateIcEENS_9allocatorIS2_EEEC2B7v160006Ev, symObjAddr: 0x1D788, symBinAddr: 0x10001FDE8, symSize: 0x58 }
  - { offsetInCU: 0x60BCC, offset: 0x60BCC, size: 0x8, addend: 0x0, symName: __ZNSt3__117__compressed_pairIPNS_7__stateIcEENS_9allocatorIS2_EEEC1B7v160006IDnNS_18__default_init_tagEEEOT_OT0_, symObjAddr: 0x1D7E0, symBinAddr: 0x10001FE40, symSize: 0x3C }
  - { offsetInCU: 0x60C24, offset: 0x60C24, size: 0x8, addend: 0x0, symName: __ZNSt3__117__compressed_pairIPNS_7__stateIcEENS_9allocatorIS2_EEEC2B7v160006IDnNS_18__default_init_tagEEEOT_OT0_, symObjAddr: 0x1D82C, symBinAddr: 0x10001FE8C, symSize: 0x40 }
  - { offsetInCU: 0x60C7C, offset: 0x60C7C, size: 0x8, addend: 0x0, symName: __ZNSt3__122__compressed_pair_elemIPNS_7__stateIcEELi0ELb0EEC2B7v160006IDnvEEOT_, symObjAddr: 0x1D86C, symBinAddr: 0x10001FECC, symSize: 0x1C }
  - { offsetInCU: 0x60CBE, offset: 0x60CBE, size: 0x8, addend: 0x0, symName: __ZNSt3__122__compressed_pair_elemINS_9allocatorINS_7__stateIcEEEELi1ELb1EEC2B7v160006ENS_18__default_init_tagE, symObjAddr: 0x1D888, symBinAddr: 0x10001FEE8, symSize: 0x2C }
  - { offsetInCU: 0x60CF2, offset: 0x60CF2, size: 0x8, addend: 0x0, symName: __ZNSt3__19allocatorINS_7__stateIcEEEC2B7v160006Ev, symObjAddr: 0x1D8B4, symBinAddr: 0x10001FF14, symSize: 0x2C }
  - { offsetInCU: 0x60D1C, offset: 0x60D1C, size: 0x8, addend: 0x0, symName: __ZNSt3__116__non_trivial_ifILb1ENS_9allocatorINS_7__stateIcEEEEEC2B7v160006Ev, symObjAddr: 0x1D8E0, symBinAddr: 0x10001FF40, symSize: 0x14 }
  - { offsetInCU: 0x60D46, offset: 0x60D46, size: 0x8, addend: 0x0, symName: __ZNSt3__16vectorINS_7__stateIcEENS_9allocatorIS2_EEE9__end_capB7v160006Ev, symObjAddr: 0x1D8F4, symBinAddr: 0x10001FF54, symSize: 0x28 }
  - { offsetInCU: 0x60D72, offset: 0x60D72, size: 0x8, addend: 0x0, symName: __ZNSt3__16vectorINS_7__stateIcEENS_9allocatorIS2_EEE22__construct_one_at_endB7v160006IJS2_EEEvDpOT_, symObjAddr: 0x1D91C, symBinAddr: 0x10001FF7C, symSize: 0x90 }
  - { offsetInCU: 0x60DC1, offset: 0x60DC1, size: 0x8, addend: 0x0, symName: __ZNSt3__16vectorINS_7__stateIcEENS_9allocatorIS2_EEE21__push_back_slow_pathIS2_EEvOT_, symObjAddr: 0x1D9AC, symBinAddr: 0x10002000C, symSize: 0xD8 }
  - { offsetInCU: 0x60E1F, offset: 0x60E1F, size: 0x8, addend: 0x0, symName: __ZNSt3__117__compressed_pairIPNS_7__stateIcEENS_9allocatorIS2_EEE5firstB7v160006Ev, symObjAddr: 0x1DA84, symBinAddr: 0x1000200E4, symSize: 0x24 }
  - { offsetInCU: 0x60E45, offset: 0x60E45, size: 0x8, addend: 0x0, symName: __ZNSt3__122__compressed_pair_elemIPNS_7__stateIcEELi0ELb0EE5__getB7v160006Ev, symObjAddr: 0x1DAA8, symBinAddr: 0x100020108, symSize: 0x14 }
  - { offsetInCU: 0x60E87, offset: 0x60E87, size: 0x8, addend: 0x0, symName: __ZNSt3__16vectorINS_7__stateIcEENS_9allocatorIS2_EEE21_ConstructTransactionC1B7v160006ERS5_m, symObjAddr: 0x1DABC, symBinAddr: 0x10002011C, symSize: 0x3C }
  - { offsetInCU: 0x60ECF, offset: 0x60ECF, size: 0x8, addend: 0x0, symName: __ZNSt3__116allocator_traitsINS_9allocatorINS_7__stateIcEEEEE9constructB7v160006IS3_JS3_EvvEEvRS4_PT_DpOT0_, symObjAddr: 0x1DAF8, symBinAddr: 0x100020158, symSize: 0x30 }
  - { offsetInCU: 0x60F24, offset: 0x60F24, size: 0x8, addend: 0x0, symName: __ZNSt3__16vectorINS_7__stateIcEENS_9allocatorIS2_EEE7__allocB7v160006Ev, symObjAddr: 0x1DB28, symBinAddr: 0x100020188, symSize: 0x28 }
  - { offsetInCU: 0x60F4A, offset: 0x60F4A, size: 0x8, addend: 0x0, symName: __ZNSt3__16vectorINS_7__stateIcEENS_9allocatorIS2_EEE21_ConstructTransactionD1B7v160006Ev, symObjAddr: 0x1DB64, symBinAddr: 0x1000201C4, symSize: 0x2C }
  - { offsetInCU: 0x60F74, offset: 0x60F74, size: 0x8, addend: 0x0, symName: __ZNSt3__16vectorINS_7__stateIcEENS_9allocatorIS2_EEE21_ConstructTransactionC2B7v160006ERS5_m, symObjAddr: 0x1DB90, symBinAddr: 0x1000201F0, symSize: 0x4C }
  - { offsetInCU: 0x60FBC, offset: 0x60FBC, size: 0x8, addend: 0x0, symName: __ZNSt3__17__stateIcEC1EOS1_, symObjAddr: 0x1DC18, symBinAddr: 0x100020278, symSize: 0x34 }
  - { offsetInCU: 0x60FF2, offset: 0x60FF2, size: 0x8, addend: 0x0, symName: __ZNSt3__17__stateIcEC2EOS1_, symObjAddr: 0x1DC4C, symBinAddr: 0x1000202AC, symSize: 0x78 }
  - { offsetInCU: 0x61028, offset: 0x61028, size: 0x8, addend: 0x0, symName: __ZNSt3__16vectorINS_9sub_matchIPKcEENS_9allocatorIS4_EEEC1B7v160006EOS7_, symObjAddr: 0x1DCC4, symBinAddr: 0x100020324, symSize: 0x34 }
  - { offsetInCU: 0x61063, offset: 0x61063, size: 0x8, addend: 0x0, symName: __ZNSt3__16vectorINS_4pairImPKcEENS_9allocatorIS4_EEEC1B7v160006EOS7_, symObjAddr: 0x1DCF8, symBinAddr: 0x100020358, symSize: 0x34 }
  - { offsetInCU: 0x6109E, offset: 0x6109E, size: 0x8, addend: 0x0, symName: __ZNSt3__16vectorINS_9sub_matchIPKcEENS_9allocatorIS4_EEEC2B7v160006EOS7_, symObjAddr: 0x1DD2C, symBinAddr: 0x10002038C, symSize: 0xDC }
  - { offsetInCU: 0x610DF, offset: 0x610DF, size: 0x8, addend: 0x0, symName: __ZNSt3__117__compressed_pairIPNS_9sub_matchIPKcEENS_9allocatorIS4_EEEC1B7v160006IDnS7_EEOT_OT0_, symObjAddr: 0x1DE08, symBinAddr: 0x100020468, symSize: 0x3C }
  - { offsetInCU: 0x61137, offset: 0x61137, size: 0x8, addend: 0x0, symName: __ZNSt3__117__compressed_pairIPNS_9sub_matchIPKcEENS_9allocatorIS4_EEEC2B7v160006IDnS7_EEOT_OT0_, symObjAddr: 0x1DE58, symBinAddr: 0x1000204B8, symSize: 0x44 }
  - { offsetInCU: 0x6118F, offset: 0x6118F, size: 0x8, addend: 0x0, symName: __ZNSt3__122__compressed_pair_elemINS_9allocatorINS_9sub_matchIPKcEEEELi1ELb1EEC2B7v160006IS6_vEEOT_, symObjAddr: 0x1DE9C, symBinAddr: 0x1000204FC, symSize: 0x18 }
  - { offsetInCU: 0x611D1, offset: 0x611D1, size: 0x8, addend: 0x0, symName: __ZNSt3__16vectorINS_4pairImPKcEENS_9allocatorIS4_EEEC2B7v160006EOS7_, symObjAddr: 0x1DEB4, symBinAddr: 0x100020514, symSize: 0xE0 }
  - { offsetInCU: 0x6120C, offset: 0x6120C, size: 0x8, addend: 0x0, symName: __ZNSt3__16vectorINS_4pairImPKcEENS_9allocatorIS4_EEE7__allocB7v160006Ev, symObjAddr: 0x1DF94, symBinAddr: 0x1000205F4, symSize: 0x28 }
  - { offsetInCU: 0x61238, offset: 0x61238, size: 0x8, addend: 0x0, symName: __ZNSt3__117__compressed_pairIPNS_4pairImPKcEENS_9allocatorIS4_EEEC1B7v160006IDnS7_EEOT_OT0_, symObjAddr: 0x1DFBC, symBinAddr: 0x10002061C, symSize: 0x3C }
  - { offsetInCU: 0x61290, offset: 0x61290, size: 0x8, addend: 0x0, symName: __ZNSt3__16vectorINS_4pairImPKcEENS_9allocatorIS4_EEE9__end_capB7v160006Ev, symObjAddr: 0x1E01C, symBinAddr: 0x10002067C, symSize: 0x28 }
  - { offsetInCU: 0x612B6, offset: 0x612B6, size: 0x8, addend: 0x0, symName: __ZNSt3__117__compressed_pairIPNS_4pairImPKcEENS_9allocatorIS4_EEE6secondB7v160006Ev, symObjAddr: 0x1E044, symBinAddr: 0x1000206A4, symSize: 0x24 }
  - { offsetInCU: 0x612DC, offset: 0x612DC, size: 0x8, addend: 0x0, symName: __ZNSt3__122__compressed_pair_elemINS_9allocatorINS_4pairImPKcEEEELi1ELb1EE5__getB7v160006Ev, symObjAddr: 0x1E068, symBinAddr: 0x1000206C8, symSize: 0x14 }
  - { offsetInCU: 0x61302, offset: 0x61302, size: 0x8, addend: 0x0, symName: __ZNSt3__117__compressed_pairIPNS_4pairImPKcEENS_9allocatorIS4_EEEC2B7v160006IDnS7_EEOT_OT0_, symObjAddr: 0x1E07C, symBinAddr: 0x1000206DC, symSize: 0x44 }
  - { offsetInCU: 0x6135A, offset: 0x6135A, size: 0x8, addend: 0x0, symName: __ZNSt3__122__compressed_pair_elemIPNS_4pairImPKcEELi0ELb0EEC2B7v160006IDnvEEOT_, symObjAddr: 0x1E0C0, symBinAddr: 0x100020720, symSize: 0x1C }
  - { offsetInCU: 0x6139C, offset: 0x6139C, size: 0x8, addend: 0x0, symName: __ZNSt3__122__compressed_pair_elemINS_9allocatorINS_4pairImPKcEEEELi1ELb1EEC2B7v160006IS6_vEEOT_, symObjAddr: 0x1E0DC, symBinAddr: 0x10002073C, symSize: 0x18 }
  - { offsetInCU: 0x613DE, offset: 0x613DE, size: 0x8, addend: 0x0, symName: __ZNSt3__117__compressed_pairIPNS_4pairImPKcEENS_9allocatorIS4_EEE5firstB7v160006Ev, symObjAddr: 0x1E0F4, symBinAddr: 0x100020754, symSize: 0x24 }
  - { offsetInCU: 0x61404, offset: 0x61404, size: 0x8, addend: 0x0, symName: __ZNSt3__122__compressed_pair_elemIPNS_4pairImPKcEELi0ELb0EE5__getB7v160006Ev, symObjAddr: 0x1E118, symBinAddr: 0x100020778, symSize: 0x14 }
  - { offsetInCU: 0x6142A, offset: 0x6142A, size: 0x8, addend: 0x0, symName: __ZNSt3__117__compressed_pairIPNS_7__stateIcEENS_9allocatorIS2_EEE6secondB7v160006Ev, symObjAddr: 0x1E12C, symBinAddr: 0x10002078C, symSize: 0x24 }
  - { offsetInCU: 0x61450, offset: 0x61450, size: 0x8, addend: 0x0, symName: __ZNSt3__122__compressed_pair_elemINS_9allocatorINS_7__stateIcEEEELi1ELb1EE5__getB7v160006Ev, symObjAddr: 0x1E150, symBinAddr: 0x1000207B0, symSize: 0x14 }
  - { offsetInCU: 0x61476, offset: 0x61476, size: 0x8, addend: 0x0, symName: __ZNSt3__16vectorINS_7__stateIcEENS_9allocatorIS2_EEE21_ConstructTransactionD2B7v160006Ev, symObjAddr: 0x1E164, symBinAddr: 0x1000207C4, symSize: 0x20 }
  - { offsetInCU: 0x614A0, offset: 0x614A0, size: 0x8, addend: 0x0, symName: __ZNKSt3__16vectorINS_7__stateIcEENS_9allocatorIS2_EEE11__recommendB7v160006Em, symObjAddr: 0x1E184, symBinAddr: 0x1000207E4, symSize: 0xB4 }
  - { offsetInCU: 0x614F5, offset: 0x614F5, size: 0x8, addend: 0x0, symName: __ZNKSt3__16vectorINS_7__stateIcEENS_9allocatorIS2_EEE4sizeB7v160006Ev, symObjAddr: 0x1E238, symBinAddr: 0x100020898, symSize: 0x28 }
  - { offsetInCU: 0x6151B, offset: 0x6151B, size: 0x8, addend: 0x0, symName: __ZNSt3__114__split_bufferINS_7__stateIcEERNS_9allocatorIS2_EEEC1EmmS5_, symObjAddr: 0x1E260, symBinAddr: 0x1000208C0, symSize: 0x44 }
  - { offsetInCU: 0x61571, offset: 0x61571, size: 0x8, addend: 0x0, symName: __ZNSt3__114__split_bufferINS_7__stateIcEERNS_9allocatorIS2_EEED1Ev, symObjAddr: 0x1E3BC, symBinAddr: 0x100020A1C, symSize: 0x2C }
  - { offsetInCU: 0x6159D, offset: 0x6159D, size: 0x8, addend: 0x0, symName: __ZNKSt3__16vectorINS_7__stateIcEENS_9allocatorIS2_EEE8max_sizeEv, symObjAddr: 0x1E3E8, symBinAddr: 0x100020A48, symSize: 0x60 }
  - { offsetInCU: 0x615C5, offset: 0x615C5, size: 0x8, addend: 0x0, symName: __ZNKSt3__16vectorINS_7__stateIcEENS_9allocatorIS2_EEE20__throw_length_errorB7v160006Ev, symObjAddr: 0x1E448, symBinAddr: 0x100020AA8, symSize: 0x1C }
  - { offsetInCU: 0x615EB, offset: 0x615EB, size: 0x8, addend: 0x0, symName: __ZNKSt3__16vectorINS_7__stateIcEENS_9allocatorIS2_EEE8capacityB7v160006Ev, symObjAddr: 0x1E464, symBinAddr: 0x100020AC4, symSize: 0x40 }
  - { offsetInCU: 0x6161C, offset: 0x6161C, size: 0x8, addend: 0x0, symName: __ZNSt3__116allocator_traitsINS_9allocatorINS_7__stateIcEEEEE8max_sizeB7v160006IS4_vvEEmRKS4_, symObjAddr: 0x1E4A4, symBinAddr: 0x100020B04, symSize: 0x28 }
  - { offsetInCU: 0x61648, offset: 0x61648, size: 0x8, addend: 0x0, symName: __ZNKSt3__16vectorINS_7__stateIcEENS_9allocatorIS2_EEE7__allocB7v160006Ev, symObjAddr: 0x1E4CC, symBinAddr: 0x100020B2C, symSize: 0x28 }
  - { offsetInCU: 0x6166E, offset: 0x6166E, size: 0x8, addend: 0x0, symName: __ZNKSt3__117__compressed_pairIPNS_7__stateIcEENS_9allocatorIS2_EEE6secondB7v160006Ev, symObjAddr: 0x1E4F4, symBinAddr: 0x100020B54, symSize: 0x24 }
  - { offsetInCU: 0x61694, offset: 0x61694, size: 0x8, addend: 0x0, symName: __ZNKSt3__122__compressed_pair_elemINS_9allocatorINS_7__stateIcEEEELi1ELb1EE5__getB7v160006Ev, symObjAddr: 0x1E518, symBinAddr: 0x100020B78, symSize: 0x14 }
  - { offsetInCU: 0x616BA, offset: 0x616BA, size: 0x8, addend: 0x0, symName: __ZNKSt3__16vectorINS_7__stateIcEENS_9allocatorIS2_EEE9__end_capB7v160006Ev, symObjAddr: 0x1E52C, symBinAddr: 0x100020B8C, symSize: 0x28 }
  - { offsetInCU: 0x616E0, offset: 0x616E0, size: 0x8, addend: 0x0, symName: __ZNKSt3__117__compressed_pairIPNS_7__stateIcEENS_9allocatorIS2_EEE5firstB7v160006Ev, symObjAddr: 0x1E554, symBinAddr: 0x100020BB4, symSize: 0x24 }
  - { offsetInCU: 0x61706, offset: 0x61706, size: 0x8, addend: 0x0, symName: __ZNKSt3__122__compressed_pair_elemIPNS_7__stateIcEELi0ELb0EE5__getB7v160006Ev, symObjAddr: 0x1E578, symBinAddr: 0x100020BD8, symSize: 0x14 }
  - { offsetInCU: 0x6172C, offset: 0x6172C, size: 0x8, addend: 0x0, symName: __ZNSt3__114__split_bufferINS_7__stateIcEERNS_9allocatorIS2_EEEC2EmmS5_, symObjAddr: 0x1E58C, symBinAddr: 0x100020BEC, symSize: 0xE0 }
  - { offsetInCU: 0x617A0, offset: 0x617A0, size: 0x8, addend: 0x0, symName: __ZNSt3__117__compressed_pairIPNS_7__stateIcEERNS_9allocatorIS2_EEEC1B7v160006IDnS6_EEOT_OT0_, symObjAddr: 0x1E66C, symBinAddr: 0x100020CCC, symSize: 0x3C }
  - { offsetInCU: 0x617F8, offset: 0x617F8, size: 0x8, addend: 0x0, symName: __ZNSt3__114__split_bufferINS_7__stateIcEERNS_9allocatorIS2_EEE7__allocB7v160006Ev, symObjAddr: 0x1E6E8, symBinAddr: 0x100020D48, symSize: 0x28 }
  - { offsetInCU: 0x6181E, offset: 0x6181E, size: 0x8, addend: 0x0, symName: __ZNSt3__114__split_bufferINS_7__stateIcEERNS_9allocatorIS2_EEE9__end_capB7v160006Ev, symObjAddr: 0x1E710, symBinAddr: 0x100020D70, symSize: 0x28 }
  - { offsetInCU: 0x61844, offset: 0x61844, size: 0x8, addend: 0x0, symName: __ZNSt3__117__compressed_pairIPNS_7__stateIcEERNS_9allocatorIS2_EEEC2B7v160006IDnS6_EEOT_OT0_, symObjAddr: 0x1E738, symBinAddr: 0x100020D98, symSize: 0x48 }
  - { offsetInCU: 0x6189C, offset: 0x6189C, size: 0x8, addend: 0x0, symName: __ZNSt3__122__compressed_pair_elemIRNS_9allocatorINS_7__stateIcEEEELi1ELb0EEC2B7v160006IS5_vEEOT_, symObjAddr: 0x1E780, symBinAddr: 0x100020DE0, symSize: 0x20 }
  - { offsetInCU: 0x618DE, offset: 0x618DE, size: 0x8, addend: 0x0, symName: __ZNSt3__19allocatorINS_7__stateIcEEE8allocateB7v160006Em, symObjAddr: 0x1E7A0, symBinAddr: 0x100020E00, symSize: 0x5C }
  - { offsetInCU: 0x61912, offset: 0x61912, size: 0x8, addend: 0x0, symName: __ZNSt3__117__compressed_pairIPNS_7__stateIcEERNS_9allocatorIS2_EEE6secondB7v160006Ev, symObjAddr: 0x1E7FC, symBinAddr: 0x100020E5C, symSize: 0x28 }
  - { offsetInCU: 0x61938, offset: 0x61938, size: 0x8, addend: 0x0, symName: __ZNSt3__122__compressed_pair_elemIRNS_9allocatorINS_7__stateIcEEEELi1ELb0EE5__getB7v160006Ev, symObjAddr: 0x1E824, symBinAddr: 0x100020E84, symSize: 0x18 }
  - { offsetInCU: 0x6195E, offset: 0x6195E, size: 0x8, addend: 0x0, symName: __ZNSt3__117__compressed_pairIPNS_7__stateIcEERNS_9allocatorIS2_EEE5firstB7v160006Ev, symObjAddr: 0x1E83C, symBinAddr: 0x100020E9C, symSize: 0x24 }
  - { offsetInCU: 0x61984, offset: 0x61984, size: 0x8, addend: 0x0, symName: __ZNKSt3__16vectorINS_7__stateIcEENS_9allocatorIS2_EEE17__annotate_deleteB7v160006Ev, symObjAddr: 0x1E860, symBinAddr: 0x100020EC0, symSize: 0xD4 }
  - { offsetInCU: 0x619AA, offset: 0x619AA, size: 0x8, addend: 0x0, symName: __ZNSt3__116reverse_iteratorIPNS_7__stateIcEEEC1B7v160006ES3_, symObjAddr: 0x1EA60, symBinAddr: 0x1000210C0, symSize: 0x34 }
  - { offsetInCU: 0x619E2, offset: 0x619E2, size: 0x8, addend: 0x0, symName: __ZNKSt3__116reverse_iteratorIPNS_7__stateIcEEE4baseB7v160006Ev, symObjAddr: 0x1EA94, symBinAddr: 0x1000210F4, symSize: 0x18 }
  - { offsetInCU: 0x61A08, offset: 0x61A08, size: 0x8, addend: 0x0, symName: __ZNKSt3__16vectorINS_7__stateIcEENS_9allocatorIS2_EEE14__annotate_newB7v160006Em, symObjAddr: 0x1EAE8, symBinAddr: 0x100021148, symSize: 0xC8 }
  - { offsetInCU: 0x61A3D, offset: 0x61A3D, size: 0x8, addend: 0x0, symName: __ZNKSt3__16vectorINS_7__stateIcEENS_9allocatorIS2_EEE31__annotate_contiguous_containerB7v160006EPKvS7_S7_S7_, symObjAddr: 0x1EBC0, symBinAddr: 0x100021220, symSize: 0x20 }
  - { offsetInCU: 0x61A93, offset: 0x61A93, size: 0x8, addend: 0x0, symName: __ZNKSt3__16vectorINS_7__stateIcEENS_9allocatorIS2_EEE4dataB7v160006Ev, symObjAddr: 0x1EBE0, symBinAddr: 0x100021240, symSize: 0x28 }
  - { offsetInCU: 0x61AB9, offset: 0x61AB9, size: 0x8, addend: 0x0, symName: __ZNSt3__129_AllocatorDestroyRangeReverseINS_9allocatorINS_7__stateIcEEEENS_16reverse_iteratorIPS3_EEEC1B7v160006ERS4_RS7_SA_, symObjAddr: 0x1EC54, symBinAddr: 0x1000212B4, symSize: 0x44 }
  - { offsetInCU: 0x61B10, offset: 0x61B10, size: 0x8, addend: 0x0, symName: __ZNKSt3__116reverse_iteratorIPNS_7__stateIcEEEdeB7v160006Ev, symObjAddr: 0x1ED04, symBinAddr: 0x100021364, symSize: 0x28 }
  - { offsetInCU: 0x61B44, offset: 0x61B44, size: 0x8, addend: 0x0, symName: __ZNSt3__116reverse_iteratorIPNS_7__stateIcEEEppB7v160006Ev, symObjAddr: 0x1ED2C, symBinAddr: 0x10002138C, symSize: 0x20 }
  - { offsetInCU: 0x61B6A, offset: 0x61B6A, size: 0x8, addend: 0x0, symName: __ZNSt3__128__exception_guard_exceptionsINS_29_AllocatorDestroyRangeReverseINS_9allocatorINS_7__stateIcEEEENS_16reverse_iteratorIPS4_EEEEE10__completeB7v160006Ev, symObjAddr: 0x1ED4C, symBinAddr: 0x1000213AC, symSize: 0x1C }
  - { offsetInCU: 0x61B90, offset: 0x61B90, size: 0x8, addend: 0x0, symName: __ZNSt3__128__exception_guard_exceptionsINS_29_AllocatorDestroyRangeReverseINS_9allocatorINS_7__stateIcEEEENS_16reverse_iteratorIPS4_EEEEED1B7v160006Ev, symObjAddr: 0x1ED68, symBinAddr: 0x1000213C8, symSize: 0x2C }
  - { offsetInCU: 0x61BBA, offset: 0x61BBA, size: 0x8, addend: 0x0, symName: __ZNSt3__128__exception_guard_exceptionsINS_29_AllocatorDestroyRangeReverseINS_9allocatorINS_7__stateIcEEEENS_16reverse_iteratorIPS4_EEEEEC1B7v160006ES9_, symObjAddr: 0x1ED94, symBinAddr: 0x1000213F4, symSize: 0x34 }
  - { offsetInCU: 0x61BF3, offset: 0x61BF3, size: 0x8, addend: 0x0, symName: __ZNSt3__128__exception_guard_exceptionsINS_29_AllocatorDestroyRangeReverseINS_9allocatorINS_7__stateIcEEEENS_16reverse_iteratorIPS4_EEEEEC2B7v160006ES9_, symObjAddr: 0x1EDC8, symBinAddr: 0x100021428, symSize: 0x30 }
  - { offsetInCU: 0x61C2C, offset: 0x61C2C, size: 0x8, addend: 0x0, symName: __ZNSt3__129_AllocatorDestroyRangeReverseINS_9allocatorINS_7__stateIcEEEENS_16reverse_iteratorIPS3_EEEC2B7v160006ERS4_RS7_SA_, symObjAddr: 0x1EDF8, symBinAddr: 0x100021458, symSize: 0x38 }
  - { offsetInCU: 0x61C89, offset: 0x61C89, size: 0x8, addend: 0x0, symName: __ZNSt3__119__to_address_helperINS_16reverse_iteratorIPNS_7__stateIcEEEEvE6__callB7v160006ERKS5_, symObjAddr: 0x1EE30, symBinAddr: 0x100021490, symSize: 0x38 }
  - { offsetInCU: 0x61CAC, offset: 0x61CAC, size: 0x8, addend: 0x0, symName: __ZNKSt3__116reverse_iteratorIPNS_7__stateIcEEEptB7v160006Ev, symObjAddr: 0x1EE68, symBinAddr: 0x1000214C8, symSize: 0x2C }
  - { offsetInCU: 0x61CD2, offset: 0x61CD2, size: 0x8, addend: 0x0, symName: __ZNSt3__128__exception_guard_exceptionsINS_29_AllocatorDestroyRangeReverseINS_9allocatorINS_7__stateIcEEEENS_16reverse_iteratorIPS4_EEEEED2B7v160006Ev, symObjAddr: 0x1EF64, symBinAddr: 0x1000215C4, symSize: 0x50 }
  - { offsetInCU: 0x61CFC, offset: 0x61CFC, size: 0x8, addend: 0x0, symName: __ZNKSt3__129_AllocatorDestroyRangeReverseINS_9allocatorINS_7__stateIcEEEENS_16reverse_iteratorIPS3_EEEclB7v160006Ev, symObjAddr: 0x1EFB4, symBinAddr: 0x100021614, symSize: 0xB4 }
  - { offsetInCU: 0x61D23, offset: 0x61D23, size: 0x8, addend: 0x0, symName: __ZNSt3__116reverse_iteratorINS0_IPNS_7__stateIcEEEEEC1B7v160006ES4_, symObjAddr: 0x1F0D8, symBinAddr: 0x100021738, symSize: 0x3C }
  - { offsetInCU: 0x61D5B, offset: 0x61D5B, size: 0x8, addend: 0x0, symName: __ZNSt3__116allocator_traitsINS_9allocatorINS_7__stateIcEEEEE7destroyB7v160006IS3_vvEEvRS4_PT_, symObjAddr: 0x1F174, symBinAddr: 0x1000217D4, symSize: 0x28 }
  - { offsetInCU: 0x61D96, offset: 0x61D96, size: 0x8, addend: 0x0, symName: __ZNSt3__116reverse_iteratorINS0_IPNS_7__stateIcEEEEEppB7v160006Ev, symObjAddr: 0x1F1C0, symBinAddr: 0x100021820, symSize: 0x30 }
  - { offsetInCU: 0x61DBC, offset: 0x61DBC, size: 0x8, addend: 0x0, symName: __ZNKSt3__116reverse_iteratorINS0_IPNS_7__stateIcEEEEE4baseB7v160006Ev, symObjAddr: 0x1F1F0, symBinAddr: 0x100021850, symSize: 0x24 }
  - { offsetInCU: 0x61DE8, offset: 0x61DE8, size: 0x8, addend: 0x0, symName: __ZNSt3__119__to_address_helperINS_16reverse_iteratorINS1_IPNS_7__stateIcEEEEEEvE6__callB7v160006ERKS6_, symObjAddr: 0x1F25C, symBinAddr: 0x1000218BC, symSize: 0x38 }
  - { offsetInCU: 0x61E0B, offset: 0x61E0B, size: 0x8, addend: 0x0, symName: __ZNKSt3__116reverse_iteratorINS0_IPNS_7__stateIcEEEEEptB7v160006Ev, symObjAddr: 0x1F294, symBinAddr: 0x1000218F4, symSize: 0x4C }
  - { offsetInCU: 0x61E31, offset: 0x61E31, size: 0x8, addend: 0x0, symName: __ZNSt3__116reverse_iteratorIPNS_7__stateIcEEEpLB7v160006El, symObjAddr: 0x1F3BC, symBinAddr: 0x100021A1C, symSize: 0x30 }
  - { offsetInCU: 0x61E65, offset: 0x61E65, size: 0x8, addend: 0x0, symName: __ZNSt3__116reverse_iteratorIPNS_7__stateIcEEEmmB7v160006Ev, symObjAddr: 0x1F3EC, symBinAddr: 0x100021A4C, symSize: 0x20 }
  - { offsetInCU: 0x61E8B, offset: 0x61E8B, size: 0x8, addend: 0x0, symName: __ZNSt3__116reverse_iteratorINS0_IPNS_7__stateIcEEEEEC2B7v160006ES4_, symObjAddr: 0x1F40C, symBinAddr: 0x100021A6C, symSize: 0x2C }
  - { offsetInCU: 0x61EC3, offset: 0x61EC3, size: 0x8, addend: 0x0, symName: __ZNSt3__116reverse_iteratorIPNS_7__stateIcEEEC2B7v160006ES3_, symObjAddr: 0x1F438, symBinAddr: 0x100021A98, symSize: 0x28 }
  - { offsetInCU: 0x61EFB, offset: 0x61EFB, size: 0x8, addend: 0x0, symName: __ZNSt3__114__split_bufferINS_7__stateIcEERNS_9allocatorIS2_EEED2Ev, symObjAddr: 0x1F460, symBinAddr: 0x100021AC0, symSize: 0x8C }
  - { offsetInCU: 0x61F27, offset: 0x61F27, size: 0x8, addend: 0x0, symName: __ZNSt3__114__split_bufferINS_7__stateIcEERNS_9allocatorIS2_EEE5clearB7v160006Ev, symObjAddr: 0x1F4EC, symBinAddr: 0x100021B4C, symSize: 0x28 }
  - { offsetInCU: 0x61F4D, offset: 0x61F4D, size: 0x8, addend: 0x0, symName: __ZNSt3__116allocator_traitsINS_9allocatorINS_7__stateIcEEEEE10deallocateB7v160006ERS4_PS3_m, symObjAddr: 0x1F514, symBinAddr: 0x100021B74, symSize: 0x34 }
  - { offsetInCU: 0x61F8F, offset: 0x61F8F, size: 0x8, addend: 0x0, symName: __ZNKSt3__114__split_bufferINS_7__stateIcEERNS_9allocatorIS2_EEE8capacityB7v160006Ev, symObjAddr: 0x1F548, symBinAddr: 0x100021BA8, symSize: 0x40 }
  - { offsetInCU: 0x61FB5, offset: 0x61FB5, size: 0x8, addend: 0x0, symName: __ZNSt3__114__split_bufferINS_7__stateIcEERNS_9allocatorIS2_EEE17__destruct_at_endB7v160006EPS2_, symObjAddr: 0x1F588, symBinAddr: 0x100021BE8, symSize: 0x2C }
  - { offsetInCU: 0x61FE9, offset: 0x61FE9, size: 0x8, addend: 0x0, symName: __ZNSt3__114__split_bufferINS_7__stateIcEERNS_9allocatorIS2_EEE17__destruct_at_endB7v160006EPS2_NS_17integral_constantIbLb0EEE, symObjAddr: 0x1F5B4, symBinAddr: 0x100021C14, symSize: 0x80 }
  - { offsetInCU: 0x62029, offset: 0x62029, size: 0x8, addend: 0x0, symName: __ZNSt3__19allocatorINS_7__stateIcEEE10deallocateB7v160006EPS2_m, symObjAddr: 0x1F634, symBinAddr: 0x100021C94, symSize: 0x44 }
  - { offsetInCU: 0x6206B, offset: 0x6206B, size: 0x8, addend: 0x0, symName: __ZNKSt3__114__split_bufferINS_7__stateIcEERNS_9allocatorIS2_EEE9__end_capB7v160006Ev, symObjAddr: 0x1F678, symBinAddr: 0x100021CD8, symSize: 0x28 }
  - { offsetInCU: 0x62091, offset: 0x62091, size: 0x8, addend: 0x0, symName: __ZNKSt3__117__compressed_pairIPNS_7__stateIcEERNS_9allocatorIS2_EEE5firstB7v160006Ev, symObjAddr: 0x1F6A0, symBinAddr: 0x100021D00, symSize: 0x24 }
  - { offsetInCU: 0x620B7, offset: 0x620B7, size: 0x8, addend: 0x0, symName: __ZNSt3__17__stateIcEC2B7v160006Ev, symObjAddr: 0x1F6C4, symBinAddr: 0x100021D24, symSize: 0x54 }
  - { offsetInCU: 0x620E1, offset: 0x620E1, size: 0x8, addend: 0x0, symName: __ZNSt3__16vectorINS_9sub_matchIPKcEENS_9allocatorIS4_EEEC1B7v160006Ev, symObjAddr: 0x1F718, symBinAddr: 0x100021D78, symSize: 0x2C }
  - { offsetInCU: 0x6210B, offset: 0x6210B, size: 0x8, addend: 0x0, symName: __ZNSt3__16vectorINS_4pairImPKcEENS_9allocatorIS4_EEEC1B7v160006Ev, symObjAddr: 0x1F744, symBinAddr: 0x100021DA4, symSize: 0x2C }
  - { offsetInCU: 0x62135, offset: 0x62135, size: 0x8, addend: 0x0, symName: __ZNSt3__16vectorINS_9sub_matchIPKcEENS_9allocatorIS4_EEEC2B7v160006Ev, symObjAddr: 0x1F770, symBinAddr: 0x100021DD0, symSize: 0x54 }
  - { offsetInCU: 0x6215F, offset: 0x6215F, size: 0x8, addend: 0x0, symName: __ZNSt3__117__compressed_pairIPNS_9sub_matchIPKcEENS_9allocatorIS4_EEEC1B7v160006IDnNS_18__default_init_tagEEEOT_OT0_, symObjAddr: 0x1F7C4, symBinAddr: 0x100021E24, symSize: 0x3C }
  - { offsetInCU: 0x621B7, offset: 0x621B7, size: 0x8, addend: 0x0, symName: __ZNSt3__117__compressed_pairIPNS_9sub_matchIPKcEENS_9allocatorIS4_EEEC2B7v160006IDnNS_18__default_init_tagEEEOT_OT0_, symObjAddr: 0x1F800, symBinAddr: 0x100021E60, symSize: 0x40 }
  - { offsetInCU: 0x6220F, offset: 0x6220F, size: 0x8, addend: 0x0, symName: __ZNSt3__122__compressed_pair_elemINS_9allocatorINS_9sub_matchIPKcEEEELi1ELb1EEC2B7v160006ENS_18__default_init_tagE, symObjAddr: 0x1F840, symBinAddr: 0x100021EA0, symSize: 0x2C }
  - { offsetInCU: 0x62243, offset: 0x62243, size: 0x8, addend: 0x0, symName: __ZNSt3__16vectorINS_4pairImPKcEENS_9allocatorIS4_EEEC2B7v160006Ev, symObjAddr: 0x1F86C, symBinAddr: 0x100021ECC, symSize: 0x54 }
  - { offsetInCU: 0x6226D, offset: 0x6226D, size: 0x8, addend: 0x0, symName: __ZNSt3__117__compressed_pairIPNS_4pairImPKcEENS_9allocatorIS4_EEEC1B7v160006IDnNS_18__default_init_tagEEEOT_OT0_, symObjAddr: 0x1F8C0, symBinAddr: 0x100021F20, symSize: 0x3C }
  - { offsetInCU: 0x622C5, offset: 0x622C5, size: 0x8, addend: 0x0, symName: __ZNSt3__117__compressed_pairIPNS_4pairImPKcEENS_9allocatorIS4_EEEC2B7v160006IDnNS_18__default_init_tagEEEOT_OT0_, symObjAddr: 0x1F8FC, symBinAddr: 0x100021F5C, symSize: 0x40 }
  - { offsetInCU: 0x6231D, offset: 0x6231D, size: 0x8, addend: 0x0, symName: __ZNSt3__122__compressed_pair_elemINS_9allocatorINS_4pairImPKcEEEELi1ELb1EEC2B7v160006ENS_18__default_init_tagE, symObjAddr: 0x1F93C, symBinAddr: 0x100021F9C, symSize: 0x2C }
  - { offsetInCU: 0x62351, offset: 0x62351, size: 0x8, addend: 0x0, symName: __ZNSt3__19allocatorINS_4pairImPKcEEEC2B7v160006Ev, symObjAddr: 0x1F968, symBinAddr: 0x100021FC8, symSize: 0x2C }
  - { offsetInCU: 0x6237B, offset: 0x6237B, size: 0x8, addend: 0x0, symName: __ZNSt3__116__non_trivial_ifILb1ENS_9allocatorINS_4pairImPKcEEEEEC2B7v160006Ev, symObjAddr: 0x1F994, symBinAddr: 0x100021FF4, symSize: 0x14 }
  - { offsetInCU: 0x623A5, offset: 0x623A5, size: 0x8, addend: 0x0, symName: __ZNSt3__17__stateIcED2Ev, symObjAddr: 0x1F9A8, symBinAddr: 0x100022008, symSize: 0x3C }
  - { offsetInCU: 0x623D2, offset: 0x623D2, size: 0x8, addend: 0x0, symName: __ZNSt3__16vectorINS_4pairImPKcEENS_9allocatorIS4_EEED1B7v160006Ev, symObjAddr: 0x1F9E4, symBinAddr: 0x100022044, symSize: 0x2C }
  - { offsetInCU: 0x623FC, offset: 0x623FC, size: 0x8, addend: 0x0, symName: __ZNSt3__16vectorINS_4pairImPKcEENS_9allocatorIS4_EEED2B7v160006Ev, symObjAddr: 0x1FA10, symBinAddr: 0x100022070, symSize: 0x44 }
  - { offsetInCU: 0x62426, offset: 0x62426, size: 0x8, addend: 0x0, symName: __ZNSt3__16vectorINS_4pairImPKcEENS_9allocatorIS4_EEE16__destroy_vectorC1ERS7_, symObjAddr: 0x1FA54, symBinAddr: 0x1000220B4, symSize: 0x34 }
  - { offsetInCU: 0x6245F, offset: 0x6245F, size: 0x8, addend: 0x0, symName: __ZNSt3__16vectorINS_4pairImPKcEENS_9allocatorIS4_EEE16__destroy_vectorclB7v160006Ev, symObjAddr: 0x1FA88, symBinAddr: 0x1000220E8, symSize: 0x9C }
  - { offsetInCU: 0x62485, offset: 0x62485, size: 0x8, addend: 0x0, symName: __ZNSt3__16vectorINS_4pairImPKcEENS_9allocatorIS4_EEE16__destroy_vectorC2ERS7_, symObjAddr: 0x1FB24, symBinAddr: 0x100022184, symSize: 0x20 }
  - { offsetInCU: 0x624BE, offset: 0x624BE, size: 0x8, addend: 0x0, symName: __ZNKSt3__16vectorINS_4pairImPKcEENS_9allocatorIS4_EEE17__annotate_deleteB7v160006Ev, symObjAddr: 0x1FB44, symBinAddr: 0x1000221A4, symSize: 0xB8 }
  - { offsetInCU: 0x624E4, offset: 0x624E4, size: 0x8, addend: 0x0, symName: __ZNSt3__16vectorINS_4pairImPKcEENS_9allocatorIS4_EEE7__clearB7v160006Ev, symObjAddr: 0x1FC0C, symBinAddr: 0x10002226C, symSize: 0x28 }
  - { offsetInCU: 0x6250A, offset: 0x6250A, size: 0x8, addend: 0x0, symName: __ZNSt3__116allocator_traitsINS_9allocatorINS_4pairImPKcEEEEE10deallocateB7v160006ERS6_PS5_m, symObjAddr: 0x1FC34, symBinAddr: 0x100022294, symSize: 0x34 }
  - { offsetInCU: 0x6254C, offset: 0x6254C, size: 0x8, addend: 0x0, symName: __ZNKSt3__16vectorINS_4pairImPKcEENS_9allocatorIS4_EEE8capacityB7v160006Ev, symObjAddr: 0x1FC68, symBinAddr: 0x1000222C8, symSize: 0x40 }
  - { offsetInCU: 0x62572, offset: 0x62572, size: 0x8, addend: 0x0, symName: __ZNKSt3__16vectorINS_4pairImPKcEENS_9allocatorIS4_EEE31__annotate_contiguous_containerB7v160006EPKvS9_S9_S9_, symObjAddr: 0x1FCA8, symBinAddr: 0x100022308, symSize: 0x20 }
  - { offsetInCU: 0x625C8, offset: 0x625C8, size: 0x8, addend: 0x0, symName: __ZNKSt3__16vectorINS_4pairImPKcEENS_9allocatorIS4_EEE4dataB7v160006Ev, symObjAddr: 0x1FCC8, symBinAddr: 0x100022328, symSize: 0x28 }
  - { offsetInCU: 0x625EE, offset: 0x625EE, size: 0x8, addend: 0x0, symName: __ZNKSt3__16vectorINS_4pairImPKcEENS_9allocatorIS4_EEE4sizeB7v160006Ev, symObjAddr: 0x1FCF0, symBinAddr: 0x100022350, symSize: 0x28 }
  - { offsetInCU: 0x62614, offset: 0x62614, size: 0x8, addend: 0x0, symName: __ZNSt3__16vectorINS_4pairImPKcEENS_9allocatorIS4_EEE22__base_destruct_at_endB7v160006EPS4_, symObjAddr: 0x1FD2C, symBinAddr: 0x10002238C, symSize: 0x8C }
  - { offsetInCU: 0x62658, offset: 0x62658, size: 0x8, addend: 0x0, symName: __ZNSt3__116allocator_traitsINS_9allocatorINS_4pairImPKcEEEEE7destroyB7v160006IS5_vvEEvRS6_PT_, symObjAddr: 0x1FDB8, symBinAddr: 0x100022418, symSize: 0x28 }
  - { offsetInCU: 0x62693, offset: 0x62693, size: 0x8, addend: 0x0, symName: __ZNSt3__19allocatorINS_4pairImPKcEEE10deallocateB7v160006EPS4_m, symObjAddr: 0x1FE14, symBinAddr: 0x100022474, symSize: 0x40 }
  - { offsetInCU: 0x626D5, offset: 0x626D5, size: 0x8, addend: 0x0, symName: __ZNKSt3__16vectorINS_4pairImPKcEENS_9allocatorIS4_EEE9__end_capB7v160006Ev, symObjAddr: 0x1FE54, symBinAddr: 0x1000224B4, symSize: 0x28 }
  - { offsetInCU: 0x626FB, offset: 0x626FB, size: 0x8, addend: 0x0, symName: __ZNKSt3__117__compressed_pairIPNS_4pairImPKcEENS_9allocatorIS4_EEE5firstB7v160006Ev, symObjAddr: 0x1FE7C, symBinAddr: 0x1000224DC, symSize: 0x24 }
  - { offsetInCU: 0x62721, offset: 0x62721, size: 0x8, addend: 0x0, symName: __ZNKSt3__122__compressed_pair_elemIPNS_4pairImPKcEELi0ELb0EE5__getB7v160006Ev, symObjAddr: 0x1FEA0, symBinAddr: 0x100022500, symSize: 0x14 }
  - { offsetInCU: 0x62747, offset: 0x62747, size: 0x8, addend: 0x0, symName: __ZNSt3__16vectorINS_9sub_matchIPKcEENS_9allocatorIS4_EEE8__appendEmRKS4_, symObjAddr: 0x1FEB4, symBinAddr: 0x100022514, symSize: 0x114 }
  - { offsetInCU: 0x627B1, offset: 0x627B1, size: 0x8, addend: 0x0, symName: __ZNSt3__114__split_bufferINS_9sub_matchIPKcEERNS_9allocatorIS4_EEEC1EmmS7_, symObjAddr: 0x1FFC8, symBinAddr: 0x100022628, symSize: 0x44 }
  - { offsetInCU: 0x62807, offset: 0x62807, size: 0x8, addend: 0x0, symName: __ZNSt3__114__split_bufferINS_9sub_matchIPKcEERNS_9allocatorIS4_EEE18__construct_at_endEmRKS4_, symObjAddr: 0x2000C, symBinAddr: 0x10002266C, symSize: 0xBC }
  - { offsetInCU: 0x62858, offset: 0x62858, size: 0x8, addend: 0x0, symName: __ZNSt3__114__split_bufferINS_9sub_matchIPKcEERNS_9allocatorIS4_EEED1Ev, symObjAddr: 0x201E0, symBinAddr: 0x100022840, symSize: 0x2C }
  - { offsetInCU: 0x62884, offset: 0x62884, size: 0x8, addend: 0x0, symName: __ZNSt3__114__split_bufferINS_9sub_matchIPKcEERNS_9allocatorIS4_EEEC2EmmS7_, symObjAddr: 0x2020C, symBinAddr: 0x10002286C, symSize: 0xE0 }
  - { offsetInCU: 0x628F8, offset: 0x628F8, size: 0x8, addend: 0x0, symName: __ZNSt3__117__compressed_pairIPNS_9sub_matchIPKcEERNS_9allocatorIS4_EEEC1B7v160006IDnS8_EEOT_OT0_, symObjAddr: 0x202EC, symBinAddr: 0x10002294C, symSize: 0x3C }
  - { offsetInCU: 0x62950, offset: 0x62950, size: 0x8, addend: 0x0, symName: __ZNSt3__114__split_bufferINS_9sub_matchIPKcEERNS_9allocatorIS4_EEE7__allocB7v160006Ev, symObjAddr: 0x20328, symBinAddr: 0x100022988, symSize: 0x28 }
  - { offsetInCU: 0x62976, offset: 0x62976, size: 0x8, addend: 0x0, symName: __ZNSt3__114__split_bufferINS_9sub_matchIPKcEERNS_9allocatorIS4_EEE9__end_capB7v160006Ev, symObjAddr: 0x20350, symBinAddr: 0x1000229B0, symSize: 0x28 }
  - { offsetInCU: 0x6299C, offset: 0x6299C, size: 0x8, addend: 0x0, symName: __ZNSt3__117__compressed_pairIPNS_9sub_matchIPKcEERNS_9allocatorIS4_EEEC2B7v160006IDnS8_EEOT_OT0_, symObjAddr: 0x20378, symBinAddr: 0x1000229D8, symSize: 0x48 }
  - { offsetInCU: 0x629F4, offset: 0x629F4, size: 0x8, addend: 0x0, symName: __ZNSt3__122__compressed_pair_elemIRNS_9allocatorINS_9sub_matchIPKcEEEELi1ELb0EEC2B7v160006IS7_vEEOT_, symObjAddr: 0x203C0, symBinAddr: 0x100022A20, symSize: 0x20 }
  - { offsetInCU: 0x62A36, offset: 0x62A36, size: 0x8, addend: 0x0, symName: __ZNSt3__117__compressed_pairIPNS_9sub_matchIPKcEERNS_9allocatorIS4_EEE6secondB7v160006Ev, symObjAddr: 0x203E0, symBinAddr: 0x100022A40, symSize: 0x28 }
  - { offsetInCU: 0x62A5C, offset: 0x62A5C, size: 0x8, addend: 0x0, symName: __ZNSt3__122__compressed_pair_elemIRNS_9allocatorINS_9sub_matchIPKcEEEELi1ELb0EE5__getB7v160006Ev, symObjAddr: 0x20408, symBinAddr: 0x100022A68, symSize: 0x18 }
  - { offsetInCU: 0x62A82, offset: 0x62A82, size: 0x8, addend: 0x0, symName: __ZNSt3__117__compressed_pairIPNS_9sub_matchIPKcEERNS_9allocatorIS4_EEE5firstB7v160006Ev, symObjAddr: 0x20420, symBinAddr: 0x100022A80, symSize: 0x24 }
  - { offsetInCU: 0x62AB4, offset: 0x62AB4, size: 0x8, addend: 0x0, symName: __ZNSt3__114__split_bufferINS_9sub_matchIPKcEERNS_9allocatorIS4_EEE21_ConstructTransactionC1B7v160006EPPS4_m, symObjAddr: 0x20444, symBinAddr: 0x100022AA4, symSize: 0x3C }
  - { offsetInCU: 0x62AFA, offset: 0x62AFA, size: 0x8, addend: 0x0, symName: __ZNSt3__114__split_bufferINS_9sub_matchIPKcEERNS_9allocatorIS4_EEE21_ConstructTransactionD1B7v160006Ev, symObjAddr: 0x20480, symBinAddr: 0x100022AE0, symSize: 0x2C }
  - { offsetInCU: 0x62B24, offset: 0x62B24, size: 0x8, addend: 0x0, symName: __ZNSt3__114__split_bufferINS_9sub_matchIPKcEERNS_9allocatorIS4_EEE21_ConstructTransactionC2B7v160006EPPS4_m, symObjAddr: 0x204AC, symBinAddr: 0x100022B0C, symSize: 0x4C }
  - { offsetInCU: 0x62B6A, offset: 0x62B6A, size: 0x8, addend: 0x0, symName: __ZNSt3__114__split_bufferINS_9sub_matchIPKcEERNS_9allocatorIS4_EEE21_ConstructTransactionD2B7v160006Ev, symObjAddr: 0x204F8, symBinAddr: 0x100022B58, symSize: 0x20 }
  - { offsetInCU: 0x62B94, offset: 0x62B94, size: 0x8, addend: 0x0, symName: __ZNSt3__116reverse_iteratorIPNS_9sub_matchIPKcEEEC1B7v160006ES5_, symObjAddr: 0x20644, symBinAddr: 0x100022CA4, symSize: 0x34 }
  - { offsetInCU: 0x62BCC, offset: 0x62BCC, size: 0x8, addend: 0x0, symName: __ZNKSt3__116reverse_iteratorIPNS_9sub_matchIPKcEEE4baseB7v160006Ev, symObjAddr: 0x20678, symBinAddr: 0x100022CD8, symSize: 0x18 }
  - { offsetInCU: 0x62BF2, offset: 0x62BF2, size: 0x8, addend: 0x0, symName: __ZNSt3__129_AllocatorDestroyRangeReverseINS_9allocatorINS_9sub_matchIPKcEEEENS_16reverse_iteratorIPS5_EEEC1B7v160006ERS6_RS9_SC_, symObjAddr: 0x20718, symBinAddr: 0x100022D78, symSize: 0x44 }
  - { offsetInCU: 0x62C4F, offset: 0x62C4F, size: 0x8, addend: 0x0, symName: __ZNSt3__116allocator_traitsINS_9allocatorINS_9sub_matchIPKcEEEEE9constructB7v160006IS5_JS5_EvvEEvRS6_PT_DpOT0_, symObjAddr: 0x207A4, symBinAddr: 0x100022E04, symSize: 0x30 }
  - { offsetInCU: 0x62CA4, offset: 0x62CA4, size: 0x8, addend: 0x0, symName: __ZNKSt3__116reverse_iteratorIPNS_9sub_matchIPKcEEEdeB7v160006Ev, symObjAddr: 0x207F8, symBinAddr: 0x100022E58, symSize: 0x28 }
  - { offsetInCU: 0x62CD8, offset: 0x62CD8, size: 0x8, addend: 0x0, symName: __ZNSt3__116reverse_iteratorIPNS_9sub_matchIPKcEEEppB7v160006Ev, symObjAddr: 0x20820, symBinAddr: 0x100022E80, symSize: 0x20 }
  - { offsetInCU: 0x62CFE, offset: 0x62CFE, size: 0x8, addend: 0x0, symName: __ZNSt3__128__exception_guard_exceptionsINS_29_AllocatorDestroyRangeReverseINS_9allocatorINS_9sub_matchIPKcEEEENS_16reverse_iteratorIPS6_EEEEE10__completeB7v160006Ev, symObjAddr: 0x20840, symBinAddr: 0x100022EA0, symSize: 0x1C }
  - { offsetInCU: 0x62D24, offset: 0x62D24, size: 0x8, addend: 0x0, symName: __ZNSt3__128__exception_guard_exceptionsINS_29_AllocatorDestroyRangeReverseINS_9allocatorINS_9sub_matchIPKcEEEENS_16reverse_iteratorIPS6_EEEEED1B7v160006Ev, symObjAddr: 0x2085C, symBinAddr: 0x100022EBC, symSize: 0x2C }
  - { offsetInCU: 0x62D4E, offset: 0x62D4E, size: 0x8, addend: 0x0, symName: __ZNSt3__128__exception_guard_exceptionsINS_29_AllocatorDestroyRangeReverseINS_9allocatorINS_9sub_matchIPKcEEEENS_16reverse_iteratorIPS6_EEEEEC1B7v160006ESB_, symObjAddr: 0x20888, symBinAddr: 0x100022EE8, symSize: 0x34 }
  - { offsetInCU: 0x62D87, offset: 0x62D87, size: 0x8, addend: 0x0, symName: __ZNSt3__128__exception_guard_exceptionsINS_29_AllocatorDestroyRangeReverseINS_9allocatorINS_9sub_matchIPKcEEEENS_16reverse_iteratorIPS6_EEEEEC2B7v160006ESB_, symObjAddr: 0x208BC, symBinAddr: 0x100022F1C, symSize: 0x30 }
  - { offsetInCU: 0x62DC0, offset: 0x62DC0, size: 0x8, addend: 0x0, symName: __ZNSt3__129_AllocatorDestroyRangeReverseINS_9allocatorINS_9sub_matchIPKcEEEENS_16reverse_iteratorIPS5_EEEC2B7v160006ERS6_RS9_SC_, symObjAddr: 0x208EC, symBinAddr: 0x100022F4C, symSize: 0x38 }
  - { offsetInCU: 0x62E1D, offset: 0x62E1D, size: 0x8, addend: 0x0, symName: __ZNSt3__119__to_address_helperINS_16reverse_iteratorIPNS_9sub_matchIPKcEEEEvE6__callB7v160006ERKS7_, symObjAddr: 0x20958, symBinAddr: 0x100022FB8, symSize: 0x38 }
  - { offsetInCU: 0x62E40, offset: 0x62E40, size: 0x8, addend: 0x0, symName: __ZNKSt3__116reverse_iteratorIPNS_9sub_matchIPKcEEEptB7v160006Ev, symObjAddr: 0x20990, symBinAddr: 0x100022FF0, symSize: 0x2C }
  - { offsetInCU: 0x62E66, offset: 0x62E66, size: 0x8, addend: 0x0, symName: __ZNSt3__128__exception_guard_exceptionsINS_29_AllocatorDestroyRangeReverseINS_9allocatorINS_9sub_matchIPKcEEEENS_16reverse_iteratorIPS6_EEEEED2B7v160006Ev, symObjAddr: 0x20A8C, symBinAddr: 0x1000230EC, symSize: 0x50 }
  - { offsetInCU: 0x62E90, offset: 0x62E90, size: 0x8, addend: 0x0, symName: __ZNKSt3__129_AllocatorDestroyRangeReverseINS_9allocatorINS_9sub_matchIPKcEEEENS_16reverse_iteratorIPS5_EEEclB7v160006Ev, symObjAddr: 0x20ADC, symBinAddr: 0x10002313C, symSize: 0xB4 }
  - { offsetInCU: 0x62EB7, offset: 0x62EB7, size: 0x8, addend: 0x0, symName: __ZNSt3__116reverse_iteratorINS0_IPNS_9sub_matchIPKcEEEEEC1B7v160006ES6_, symObjAddr: 0x20C00, symBinAddr: 0x100023260, symSize: 0x3C }
  - { offsetInCU: 0x62EEF, offset: 0x62EEF, size: 0x8, addend: 0x0, symName: __ZNSt3__116reverse_iteratorINS0_IPNS_9sub_matchIPKcEEEEEppB7v160006Ev, symObjAddr: 0x20CC0, symBinAddr: 0x100023320, symSize: 0x30 }
  - { offsetInCU: 0x62F15, offset: 0x62F15, size: 0x8, addend: 0x0, symName: __ZNKSt3__116reverse_iteratorINS0_IPNS_9sub_matchIPKcEEEEE4baseB7v160006Ev, symObjAddr: 0x20CF0, symBinAddr: 0x100023350, symSize: 0x24 }
  - { offsetInCU: 0x62F41, offset: 0x62F41, size: 0x8, addend: 0x0, symName: __ZNSt3__119__to_address_helperINS_16reverse_iteratorINS1_IPNS_9sub_matchIPKcEEEEEEvE6__callB7v160006ERKS8_, symObjAddr: 0x20D14, symBinAddr: 0x100023374, symSize: 0x38 }
  - { offsetInCU: 0x62F64, offset: 0x62F64, size: 0x8, addend: 0x0, symName: __ZNKSt3__116reverse_iteratorINS0_IPNS_9sub_matchIPKcEEEEEptB7v160006Ev, symObjAddr: 0x20D4C, symBinAddr: 0x1000233AC, symSize: 0x4C }
  - { offsetInCU: 0x62F8A, offset: 0x62F8A, size: 0x8, addend: 0x0, symName: __ZNSt3__116reverse_iteratorIPNS_9sub_matchIPKcEEEpLB7v160006El, symObjAddr: 0x20E74, symBinAddr: 0x1000234D4, symSize: 0x30 }
  - { offsetInCU: 0x62FBE, offset: 0x62FBE, size: 0x8, addend: 0x0, symName: __ZNSt3__116reverse_iteratorIPNS_9sub_matchIPKcEEEmmB7v160006Ev, symObjAddr: 0x20EA4, symBinAddr: 0x100023504, symSize: 0x20 }
  - { offsetInCU: 0x62FE4, offset: 0x62FE4, size: 0x8, addend: 0x0, symName: __ZNSt3__116reverse_iteratorINS0_IPNS_9sub_matchIPKcEEEEEC2B7v160006ES6_, symObjAddr: 0x20EC4, symBinAddr: 0x100023524, symSize: 0x2C }
  - { offsetInCU: 0x6301C, offset: 0x6301C, size: 0x8, addend: 0x0, symName: __ZNSt3__116reverse_iteratorIPNS_9sub_matchIPKcEEEC2B7v160006ES5_, symObjAddr: 0x20EF0, symBinAddr: 0x100023550, symSize: 0x28 }
  - { offsetInCU: 0x63054, offset: 0x63054, size: 0x8, addend: 0x0, symName: __ZNSt3__114__split_bufferINS_9sub_matchIPKcEERNS_9allocatorIS4_EEED2Ev, symObjAddr: 0x20F18, symBinAddr: 0x100023578, symSize: 0x8C }
  - { offsetInCU: 0x63080, offset: 0x63080, size: 0x8, addend: 0x0, symName: __ZNSt3__114__split_bufferINS_9sub_matchIPKcEERNS_9allocatorIS4_EEE5clearB7v160006Ev, symObjAddr: 0x20FA4, symBinAddr: 0x100023604, symSize: 0x28 }
  - { offsetInCU: 0x630A6, offset: 0x630A6, size: 0x8, addend: 0x0, symName: __ZNKSt3__114__split_bufferINS_9sub_matchIPKcEERNS_9allocatorIS4_EEE8capacityB7v160006Ev, symObjAddr: 0x20FCC, symBinAddr: 0x10002362C, symSize: 0x40 }
  - { offsetInCU: 0x630CC, offset: 0x630CC, size: 0x8, addend: 0x0, symName: __ZNSt3__114__split_bufferINS_9sub_matchIPKcEERNS_9allocatorIS4_EEE17__destruct_at_endB7v160006EPS4_, symObjAddr: 0x2100C, symBinAddr: 0x10002366C, symSize: 0x2C }
  - { offsetInCU: 0x63100, offset: 0x63100, size: 0x8, addend: 0x0, symName: __ZNSt3__114__split_bufferINS_9sub_matchIPKcEERNS_9allocatorIS4_EEE17__destruct_at_endB7v160006EPS4_NS_17integral_constantIbLb0EEE, symObjAddr: 0x21038, symBinAddr: 0x100023698, symSize: 0x80 }
  - { offsetInCU: 0x63140, offset: 0x63140, size: 0x8, addend: 0x0, symName: __ZNKSt3__114__split_bufferINS_9sub_matchIPKcEERNS_9allocatorIS4_EEE9__end_capB7v160006Ev, symObjAddr: 0x210B8, symBinAddr: 0x100023718, symSize: 0x28 }
  - { offsetInCU: 0x63166, offset: 0x63166, size: 0x8, addend: 0x0, symName: __ZNKSt3__117__compressed_pairIPNS_9sub_matchIPKcEERNS_9allocatorIS4_EEE5firstB7v160006Ev, symObjAddr: 0x210E0, symBinAddr: 0x100023740, symSize: 0x24 }
  - { offsetInCU: 0x6318C, offset: 0x6318C, size: 0x8, addend: 0x0, symName: __ZNSt3__16vectorINS_4pairImPKcEENS_9allocatorIS4_EEE8__appendEm, symObjAddr: 0x21104, symBinAddr: 0x100023764, symSize: 0x108 }
  - { offsetInCU: 0x631E7, offset: 0x631E7, size: 0x8, addend: 0x0, symName: __ZNSt3__16vectorINS_4pairImPKcEENS_9allocatorIS4_EEE17__destruct_at_endB7v160006EPS4_, symObjAddr: 0x2120C, symBinAddr: 0x10002386C, symSize: 0x60 }
  - { offsetInCU: 0x6322B, offset: 0x6322B, size: 0x8, addend: 0x0, symName: __ZNSt3__16vectorINS_4pairImPKcEENS_9allocatorIS4_EEE18__construct_at_endEm, symObjAddr: 0x2126C, symBinAddr: 0x1000238CC, symSize: 0xC8 }
  - { offsetInCU: 0x6329E, offset: 0x6329E, size: 0x8, addend: 0x0, symName: __ZNKSt3__16vectorINS_4pairImPKcEENS_9allocatorIS4_EEE11__recommendB7v160006Em, symObjAddr: 0x21334, symBinAddr: 0x100023994, symSize: 0xB4 }
  - { offsetInCU: 0x632F3, offset: 0x632F3, size: 0x8, addend: 0x0, symName: __ZNSt3__114__split_bufferINS_4pairImPKcEERNS_9allocatorIS4_EEEC1EmmS7_, symObjAddr: 0x213E8, symBinAddr: 0x100023A48, symSize: 0x44 }
  - { offsetInCU: 0x63349, offset: 0x63349, size: 0x8, addend: 0x0, symName: __ZNSt3__114__split_bufferINS_4pairImPKcEERNS_9allocatorIS4_EEE18__construct_at_endEm, symObjAddr: 0x2142C, symBinAddr: 0x100023A8C, symSize: 0xB4 }
  - { offsetInCU: 0x6338C, offset: 0x6338C, size: 0x8, addend: 0x0, symName: __ZNSt3__114__split_bufferINS_4pairImPKcEERNS_9allocatorIS4_EEED1Ev, symObjAddr: 0x215F8, symBinAddr: 0x100023C58, symSize: 0x2C }
  - { offsetInCU: 0x633D4, offset: 0x633D4, size: 0x8, addend: 0x0, symName: __ZNSt3__16vectorINS_4pairImPKcEENS_9allocatorIS4_EEE21_ConstructTransactionC1B7v160006ERS7_m, symObjAddr: 0x21624, symBinAddr: 0x100023C84, symSize: 0x3C }
  - { offsetInCU: 0x6341C, offset: 0x6341C, size: 0x8, addend: 0x0, symName: __ZNSt3__116allocator_traitsINS_9allocatorINS_4pairImPKcEEEEE9constructB7v160006IS5_JEvvEEvRS6_PT_DpOT0_, symObjAddr: 0x21660, symBinAddr: 0x100023CC0, symSize: 0x28 }
  - { offsetInCU: 0x6345C, offset: 0x6345C, size: 0x8, addend: 0x0, symName: __ZNSt3__16vectorINS_4pairImPKcEENS_9allocatorIS4_EEE21_ConstructTransactionD1B7v160006Ev, symObjAddr: 0x21688, symBinAddr: 0x100023CE8, symSize: 0x2C }
  - { offsetInCU: 0x63486, offset: 0x63486, size: 0x8, addend: 0x0, symName: __ZNSt3__16vectorINS_4pairImPKcEENS_9allocatorIS4_EEE21_ConstructTransactionC2B7v160006ERS7_m, symObjAddr: 0x216B4, symBinAddr: 0x100023D14, symSize: 0x44 }
  - { offsetInCU: 0x634CE, offset: 0x634CE, size: 0x8, addend: 0x0, symName: __ZNSt3__14pairImPKcEC1B7v160006ILb1ELPv0EEEv, symObjAddr: 0x2172C, symBinAddr: 0x100023D8C, symSize: 0x2C }
  - { offsetInCU: 0x63508, offset: 0x63508, size: 0x8, addend: 0x0, symName: __ZNSt3__14pairImPKcEC2B7v160006ILb1ELPv0EEEv, symObjAddr: 0x21758, symBinAddr: 0x100023DB8, symSize: 0x1C }
  - { offsetInCU: 0x63542, offset: 0x63542, size: 0x8, addend: 0x0, symName: __ZNSt3__16vectorINS_4pairImPKcEENS_9allocatorIS4_EEE21_ConstructTransactionD2B7v160006Ev, symObjAddr: 0x21774, symBinAddr: 0x100023DD4, symSize: 0x20 }
  - { offsetInCU: 0x6356C, offset: 0x6356C, size: 0x8, addend: 0x0, symName: __ZNKSt3__16vectorINS_4pairImPKcEENS_9allocatorIS4_EEE8max_sizeEv, symObjAddr: 0x21794, symBinAddr: 0x100023DF4, symSize: 0x60 }
  - { offsetInCU: 0x63594, offset: 0x63594, size: 0x8, addend: 0x0, symName: __ZNKSt3__16vectorINS_4pairImPKcEENS_9allocatorIS4_EEE20__throw_length_errorB7v160006Ev, symObjAddr: 0x217F4, symBinAddr: 0x100023E54, symSize: 0x1C }
  - { offsetInCU: 0x635C5, offset: 0x635C5, size: 0x8, addend: 0x0, symName: __ZNSt3__116allocator_traitsINS_9allocatorINS_4pairImPKcEEEEE8max_sizeB7v160006IS6_vvEEmRKS6_, symObjAddr: 0x21810, symBinAddr: 0x100023E70, symSize: 0x28 }
  - { offsetInCU: 0x635F1, offset: 0x635F1, size: 0x8, addend: 0x0, symName: __ZNKSt3__16vectorINS_4pairImPKcEENS_9allocatorIS4_EEE7__allocB7v160006Ev, symObjAddr: 0x21838, symBinAddr: 0x100023E98, symSize: 0x28 }
  - { offsetInCU: 0x63617, offset: 0x63617, size: 0x8, addend: 0x0, symName: __ZNKSt3__117__compressed_pairIPNS_4pairImPKcEENS_9allocatorIS4_EEE6secondB7v160006Ev, symObjAddr: 0x21860, symBinAddr: 0x100023EC0, symSize: 0x24 }
  - { offsetInCU: 0x6363D, offset: 0x6363D, size: 0x8, addend: 0x0, symName: __ZNKSt3__122__compressed_pair_elemINS_9allocatorINS_4pairImPKcEEEELi1ELb1EE5__getB7v160006Ev, symObjAddr: 0x21884, symBinAddr: 0x100023EE4, symSize: 0x14 }
  - { offsetInCU: 0x63663, offset: 0x63663, size: 0x8, addend: 0x0, symName: __ZNSt3__114__split_bufferINS_4pairImPKcEERNS_9allocatorIS4_EEEC2EmmS7_, symObjAddr: 0x21898, symBinAddr: 0x100023EF8, symSize: 0xD4 }
  - { offsetInCU: 0x636D7, offset: 0x636D7, size: 0x8, addend: 0x0, symName: __ZNSt3__117__compressed_pairIPNS_4pairImPKcEERNS_9allocatorIS4_EEEC1B7v160006IDnS8_EEOT_OT0_, symObjAddr: 0x2196C, symBinAddr: 0x100023FCC, symSize: 0x3C }
  - { offsetInCU: 0x6372F, offset: 0x6372F, size: 0x8, addend: 0x0, symName: __ZNSt3__114__split_bufferINS_4pairImPKcEERNS_9allocatorIS4_EEE7__allocB7v160006Ev, symObjAddr: 0x219E8, symBinAddr: 0x100024048, symSize: 0x28 }
  - { offsetInCU: 0x63755, offset: 0x63755, size: 0x8, addend: 0x0, symName: __ZNSt3__114__split_bufferINS_4pairImPKcEERNS_9allocatorIS4_EEE9__end_capB7v160006Ev, symObjAddr: 0x21A10, symBinAddr: 0x100024070, symSize: 0x28 }
  - { offsetInCU: 0x6377B, offset: 0x6377B, size: 0x8, addend: 0x0, symName: __ZNSt3__117__compressed_pairIPNS_4pairImPKcEERNS_9allocatorIS4_EEEC2B7v160006IDnS8_EEOT_OT0_, symObjAddr: 0x21A38, symBinAddr: 0x100024098, symSize: 0x48 }
  - { offsetInCU: 0x637D3, offset: 0x637D3, size: 0x8, addend: 0x0, symName: __ZNSt3__122__compressed_pair_elemIRNS_9allocatorINS_4pairImPKcEEEELi1ELb0EEC2B7v160006IS7_vEEOT_, symObjAddr: 0x21A80, symBinAddr: 0x1000240E0, symSize: 0x20 }
  - { offsetInCU: 0x63815, offset: 0x63815, size: 0x8, addend: 0x0, symName: __ZNSt3__19allocatorINS_4pairImPKcEEE8allocateB7v160006Em, symObjAddr: 0x21AA0, symBinAddr: 0x100024100, symSize: 0x58 }
  - { offsetInCU: 0x63849, offset: 0x63849, size: 0x8, addend: 0x0, symName: __ZNSt3__117__compressed_pairIPNS_4pairImPKcEERNS_9allocatorIS4_EEE6secondB7v160006Ev, symObjAddr: 0x21AF8, symBinAddr: 0x100024158, symSize: 0x28 }
  - { offsetInCU: 0x6386F, offset: 0x6386F, size: 0x8, addend: 0x0, symName: __ZNSt3__122__compressed_pair_elemIRNS_9allocatorINS_4pairImPKcEEEELi1ELb0EE5__getB7v160006Ev, symObjAddr: 0x21B20, symBinAddr: 0x100024180, symSize: 0x18 }
  - { offsetInCU: 0x63895, offset: 0x63895, size: 0x8, addend: 0x0, symName: __ZNSt3__117__compressed_pairIPNS_4pairImPKcEERNS_9allocatorIS4_EEE5firstB7v160006Ev, symObjAddr: 0x21B38, symBinAddr: 0x100024198, symSize: 0x24 }
  - { offsetInCU: 0x638C7, offset: 0x638C7, size: 0x8, addend: 0x0, symName: __ZNSt3__114__split_bufferINS_4pairImPKcEERNS_9allocatorIS4_EEE21_ConstructTransactionC1B7v160006EPPS4_m, symObjAddr: 0x21B5C, symBinAddr: 0x1000241BC, symSize: 0x3C }
  - { offsetInCU: 0x6390D, offset: 0x6390D, size: 0x8, addend: 0x0, symName: __ZNSt3__114__split_bufferINS_4pairImPKcEERNS_9allocatorIS4_EEE21_ConstructTransactionD1B7v160006Ev, symObjAddr: 0x21B98, symBinAddr: 0x1000241F8, symSize: 0x2C }
  - { offsetInCU: 0x63937, offset: 0x63937, size: 0x8, addend: 0x0, symName: __ZNSt3__114__split_bufferINS_4pairImPKcEERNS_9allocatorIS4_EEE21_ConstructTransactionC2B7v160006EPPS4_m, symObjAddr: 0x21BC4, symBinAddr: 0x100024224, symSize: 0x44 }
  - { offsetInCU: 0x6397D, offset: 0x6397D, size: 0x8, addend: 0x0, symName: __ZNSt3__114__split_bufferINS_4pairImPKcEERNS_9allocatorIS4_EEE21_ConstructTransactionD2B7v160006Ev, symObjAddr: 0x21C08, symBinAddr: 0x100024268, symSize: 0x20 }
  - { offsetInCU: 0x639A7, offset: 0x639A7, size: 0x8, addend: 0x0, symName: __ZNSt3__116reverse_iteratorIPNS_4pairImPKcEEEC1B7v160006ES5_, symObjAddr: 0x21D54, symBinAddr: 0x1000243B4, symSize: 0x34 }
  - { offsetInCU: 0x639DF, offset: 0x639DF, size: 0x8, addend: 0x0, symName: __ZNKSt3__116reverse_iteratorIPNS_4pairImPKcEEE4baseB7v160006Ev, symObjAddr: 0x21D88, symBinAddr: 0x1000243E8, symSize: 0x18 }
  - { offsetInCU: 0x63A05, offset: 0x63A05, size: 0x8, addend: 0x0, symName: __ZNKSt3__16vectorINS_4pairImPKcEENS_9allocatorIS4_EEE14__annotate_newB7v160006Em, symObjAddr: 0x21DDC, symBinAddr: 0x10002443C, symSize: 0xAC }
  - { offsetInCU: 0x63A3A, offset: 0x63A3A, size: 0x8, addend: 0x0, symName: __ZNSt3__129_AllocatorDestroyRangeReverseINS_9allocatorINS_4pairImPKcEEEENS_16reverse_iteratorIPS5_EEEC1B7v160006ERS6_RS9_SC_, symObjAddr: 0x21EE4, symBinAddr: 0x100024544, symSize: 0x44 }
  - { offsetInCU: 0x63A91, offset: 0x63A91, size: 0x8, addend: 0x0, symName: __ZNSt3__116allocator_traitsINS_9allocatorINS_4pairImPKcEEEEE9constructB7v160006IS5_JS5_EvvEEvRS6_PT_DpOT0_, symObjAddr: 0x21F70, symBinAddr: 0x1000245D0, symSize: 0x30 }
  - { offsetInCU: 0x63AE6, offset: 0x63AE6, size: 0x8, addend: 0x0, symName: __ZNKSt3__116reverse_iteratorIPNS_4pairImPKcEEEdeB7v160006Ev, symObjAddr: 0x21FC4, symBinAddr: 0x100024624, symSize: 0x28 }
  - { offsetInCU: 0x63B1A, offset: 0x63B1A, size: 0x8, addend: 0x0, symName: __ZNSt3__116reverse_iteratorIPNS_4pairImPKcEEEppB7v160006Ev, symObjAddr: 0x21FEC, symBinAddr: 0x10002464C, symSize: 0x20 }
  - { offsetInCU: 0x63B40, offset: 0x63B40, size: 0x8, addend: 0x0, symName: __ZNSt3__128__exception_guard_exceptionsINS_29_AllocatorDestroyRangeReverseINS_9allocatorINS_4pairImPKcEEEENS_16reverse_iteratorIPS6_EEEEE10__completeB7v160006Ev, symObjAddr: 0x2200C, symBinAddr: 0x10002466C, symSize: 0x1C }
  - { offsetInCU: 0x63B66, offset: 0x63B66, size: 0x8, addend: 0x0, symName: __ZNSt3__128__exception_guard_exceptionsINS_29_AllocatorDestroyRangeReverseINS_9allocatorINS_4pairImPKcEEEENS_16reverse_iteratorIPS6_EEEEED1B7v160006Ev, symObjAddr: 0x22028, symBinAddr: 0x100024688, symSize: 0x2C }
  - { offsetInCU: 0x63B90, offset: 0x63B90, size: 0x8, addend: 0x0, symName: __ZNSt3__128__exception_guard_exceptionsINS_29_AllocatorDestroyRangeReverseINS_9allocatorINS_4pairImPKcEEEENS_16reverse_iteratorIPS6_EEEEEC1B7v160006ESB_, symObjAddr: 0x22054, symBinAddr: 0x1000246B4, symSize: 0x34 }
  - { offsetInCU: 0x63BC9, offset: 0x63BC9, size: 0x8, addend: 0x0, symName: __ZNSt3__128__exception_guard_exceptionsINS_29_AllocatorDestroyRangeReverseINS_9allocatorINS_4pairImPKcEEEENS_16reverse_iteratorIPS6_EEEEEC2B7v160006ESB_, symObjAddr: 0x22088, symBinAddr: 0x1000246E8, symSize: 0x30 }
  - { offsetInCU: 0x63C02, offset: 0x63C02, size: 0x8, addend: 0x0, symName: __ZNSt3__129_AllocatorDestroyRangeReverseINS_9allocatorINS_4pairImPKcEEEENS_16reverse_iteratorIPS5_EEEC2B7v160006ERS6_RS9_SC_, symObjAddr: 0x220B8, symBinAddr: 0x100024718, symSize: 0x38 }
  - { offsetInCU: 0x63C5F, offset: 0x63C5F, size: 0x8, addend: 0x0, symName: __ZNSt3__119__to_address_helperINS_16reverse_iteratorIPNS_4pairImPKcEEEEvE6__callB7v160006ERKS7_, symObjAddr: 0x2211C, symBinAddr: 0x10002477C, symSize: 0x38 }
  - { offsetInCU: 0x63C82, offset: 0x63C82, size: 0x8, addend: 0x0, symName: __ZNKSt3__116reverse_iteratorIPNS_4pairImPKcEEEptB7v160006Ev, symObjAddr: 0x22154, symBinAddr: 0x1000247B4, symSize: 0x2C }
  - { offsetInCU: 0x63CA8, offset: 0x63CA8, size: 0x8, addend: 0x0, symName: __ZNSt3__128__exception_guard_exceptionsINS_29_AllocatorDestroyRangeReverseINS_9allocatorINS_4pairImPKcEEEENS_16reverse_iteratorIPS6_EEEEED2B7v160006Ev, symObjAddr: 0x22248, symBinAddr: 0x1000248A8, symSize: 0x50 }
  - { offsetInCU: 0x63CD2, offset: 0x63CD2, size: 0x8, addend: 0x0, symName: __ZNKSt3__129_AllocatorDestroyRangeReverseINS_9allocatorINS_4pairImPKcEEEENS_16reverse_iteratorIPS5_EEEclB7v160006Ev, symObjAddr: 0x22298, symBinAddr: 0x1000248F8, symSize: 0xB4 }
  - { offsetInCU: 0x63CF9, offset: 0x63CF9, size: 0x8, addend: 0x0, symName: __ZNSt3__116reverse_iteratorINS0_IPNS_4pairImPKcEEEEEC1B7v160006ES6_, symObjAddr: 0x223BC, symBinAddr: 0x100024A1C, symSize: 0x3C }
  - { offsetInCU: 0x63D31, offset: 0x63D31, size: 0x8, addend: 0x0, symName: __ZNSt3__116reverse_iteratorINS0_IPNS_4pairImPKcEEEEEppB7v160006Ev, symObjAddr: 0x2247C, symBinAddr: 0x100024ADC, symSize: 0x30 }
  - { offsetInCU: 0x63D57, offset: 0x63D57, size: 0x8, addend: 0x0, symName: __ZNKSt3__116reverse_iteratorINS0_IPNS_4pairImPKcEEEEE4baseB7v160006Ev, symObjAddr: 0x224AC, symBinAddr: 0x100024B0C, symSize: 0x24 }
  - { offsetInCU: 0x63D83, offset: 0x63D83, size: 0x8, addend: 0x0, symName: __ZNSt3__119__to_address_helperINS_16reverse_iteratorINS1_IPNS_4pairImPKcEEEEEEvE6__callB7v160006ERKS8_, symObjAddr: 0x224D0, symBinAddr: 0x100024B30, symSize: 0x38 }
  - { offsetInCU: 0x63DA6, offset: 0x63DA6, size: 0x8, addend: 0x0, symName: __ZNKSt3__116reverse_iteratorINS0_IPNS_4pairImPKcEEEEEptB7v160006Ev, symObjAddr: 0x22508, symBinAddr: 0x100024B68, symSize: 0x4C }
  - { offsetInCU: 0x63DCC, offset: 0x63DCC, size: 0x8, addend: 0x0, symName: __ZNSt3__116reverse_iteratorIPNS_4pairImPKcEEEpLB7v160006El, symObjAddr: 0x22630, symBinAddr: 0x100024C90, symSize: 0x30 }
  - { offsetInCU: 0x63E00, offset: 0x63E00, size: 0x8, addend: 0x0, symName: __ZNSt3__116reverse_iteratorIPNS_4pairImPKcEEEmmB7v160006Ev, symObjAddr: 0x22660, symBinAddr: 0x100024CC0, symSize: 0x20 }
  - { offsetInCU: 0x63E26, offset: 0x63E26, size: 0x8, addend: 0x0, symName: __ZNSt3__116reverse_iteratorINS0_IPNS_4pairImPKcEEEEEC2B7v160006ES6_, symObjAddr: 0x22680, symBinAddr: 0x100024CE0, symSize: 0x2C }
  - { offsetInCU: 0x63E5E, offset: 0x63E5E, size: 0x8, addend: 0x0, symName: __ZNSt3__116reverse_iteratorIPNS_4pairImPKcEEEC2B7v160006ES5_, symObjAddr: 0x226AC, symBinAddr: 0x100024D0C, symSize: 0x28 }
  - { offsetInCU: 0x63E96, offset: 0x63E96, size: 0x8, addend: 0x0, symName: __ZNSt3__114__split_bufferINS_4pairImPKcEERNS_9allocatorIS4_EEED2Ev, symObjAddr: 0x226D4, symBinAddr: 0x100024D34, symSize: 0x8C }
  - { offsetInCU: 0x63EC2, offset: 0x63EC2, size: 0x8, addend: 0x0, symName: __ZNSt3__114__split_bufferINS_4pairImPKcEERNS_9allocatorIS4_EEE5clearB7v160006Ev, symObjAddr: 0x22760, symBinAddr: 0x100024DC0, symSize: 0x28 }
  - { offsetInCU: 0x63EE8, offset: 0x63EE8, size: 0x8, addend: 0x0, symName: __ZNKSt3__114__split_bufferINS_4pairImPKcEERNS_9allocatorIS4_EEE8capacityB7v160006Ev, symObjAddr: 0x22788, symBinAddr: 0x100024DE8, symSize: 0x40 }
  - { offsetInCU: 0x63F0E, offset: 0x63F0E, size: 0x8, addend: 0x0, symName: __ZNSt3__114__split_bufferINS_4pairImPKcEERNS_9allocatorIS4_EEE17__destruct_at_endB7v160006EPS4_, symObjAddr: 0x227C8, symBinAddr: 0x100024E28, symSize: 0x2C }
  - { offsetInCU: 0x63F42, offset: 0x63F42, size: 0x8, addend: 0x0, symName: __ZNSt3__114__split_bufferINS_4pairImPKcEERNS_9allocatorIS4_EEE17__destruct_at_endB7v160006EPS4_NS_17integral_constantIbLb0EEE, symObjAddr: 0x227F4, symBinAddr: 0x100024E54, symSize: 0x80 }
  - { offsetInCU: 0x63F82, offset: 0x63F82, size: 0x8, addend: 0x0, symName: __ZNKSt3__114__split_bufferINS_4pairImPKcEERNS_9allocatorIS4_EEE9__end_capB7v160006Ev, symObjAddr: 0x22874, symBinAddr: 0x100024ED4, symSize: 0x28 }
  - { offsetInCU: 0x63FA8, offset: 0x63FA8, size: 0x8, addend: 0x0, symName: __ZNKSt3__117__compressed_pairIPNS_4pairImPKcEERNS_9allocatorIS4_EEE5firstB7v160006Ev, symObjAddr: 0x2289C, symBinAddr: 0x100024EFC, symSize: 0x24 }
  - { offsetInCU: 0x63FCE, offset: 0x63FCE, size: 0x8, addend: 0x0, symName: __ZNSt3__16vectorINS_4pairImPKcEENS_9allocatorIS4_EEE27__invalidate_iterators_pastB7v160006EPS4_, symObjAddr: 0x228C0, symBinAddr: 0x100024F20, symSize: 0x14 }
  - { offsetInCU: 0x64005, offset: 0x64005, size: 0x8, addend: 0x0, symName: __ZNKSt3__16vectorINS_4pairImPKcEENS_9allocatorIS4_EEE17__annotate_shrinkB7v160006Em, symObjAddr: 0x228D4, symBinAddr: 0x100024F34, symSize: 0xB4 }
  - { offsetInCU: 0x6403A, offset: 0x6403A, size: 0x8, addend: 0x0, symName: __ZNSt3__16vectorINS_7__stateIcEENS_9allocatorIS2_EEE17__destruct_at_endB7v160006EPS2_, symObjAddr: 0x22988, symBinAddr: 0x100024FE8, symSize: 0x60 }
  - { offsetInCU: 0x6407E, offset: 0x6407E, size: 0x8, addend: 0x0, symName: __ZNSt3__16vectorINS_7__stateIcEENS_9allocatorIS2_EEE27__invalidate_iterators_pastB7v160006EPS2_, symObjAddr: 0x229E8, symBinAddr: 0x100025048, symSize: 0x14 }
  - { offsetInCU: 0x640B5, offset: 0x640B5, size: 0x8, addend: 0x0, symName: __ZNSt3__16vectorINS_7__stateIcEENS_9allocatorIS2_EEE22__base_destruct_at_endB7v160006EPS2_, symObjAddr: 0x229FC, symBinAddr: 0x10002505C, symSize: 0x8C }
  - { offsetInCU: 0x640F9, offset: 0x640F9, size: 0x8, addend: 0x0, symName: __ZNKSt3__16vectorINS_7__stateIcEENS_9allocatorIS2_EEE17__annotate_shrinkB7v160006Em, symObjAddr: 0x22A88, symBinAddr: 0x1000250E8, symSize: 0xD0 }
  - { offsetInCU: 0x6412E, offset: 0x6412E, size: 0x8, addend: 0x0, symName: __ZNSt3__17__stateIcEC2ERKS1_, symObjAddr: 0x22B58, symBinAddr: 0x1000251B8, symSize: 0xA4 }
  - { offsetInCU: 0x64164, offset: 0x64164, size: 0x8, addend: 0x0, symName: __ZNSt3__16vectorINS_9sub_matchIPKcEENS_9allocatorIS4_EEEC1ERKS7_, symObjAddr: 0x22BFC, symBinAddr: 0x10002525C, symSize: 0x34 }
  - { offsetInCU: 0x6419F, offset: 0x6419F, size: 0x8, addend: 0x0, symName: __ZNSt3__16vectorINS_4pairImPKcEENS_9allocatorIS4_EEEC1ERKS7_, symObjAddr: 0x22C30, symBinAddr: 0x100025290, symSize: 0x34 }
  - { offsetInCU: 0x641DA, offset: 0x641DA, size: 0x8, addend: 0x0, symName: __ZNSt3__16vectorINS_9sub_matchIPKcEENS_9allocatorIS4_EEEC2ERKS7_, symObjAddr: 0x22C64, symBinAddr: 0x1000252C4, symSize: 0x110 }
  - { offsetInCU: 0x64239, offset: 0x64239, size: 0x8, addend: 0x0, symName: __ZNSt3__116allocator_traitsINS_9allocatorINS_9sub_matchIPKcEEEEE37select_on_container_copy_constructionB7v160006IS6_vvEES6_RKS6_, symObjAddr: 0x22D74, symBinAddr: 0x1000253D4, symSize: 0x10 }
  - { offsetInCU: 0x64268, offset: 0x64268, size: 0x8, addend: 0x0, symName: __ZNSt3__16vectorINS_9sub_matchIPKcEENS_9allocatorIS4_EEE18__construct_at_endIPS4_Li0EEEvT_SA_m, symObjAddr: 0x22DC4, symBinAddr: 0x100025424, symSize: 0x8C }
  - { offsetInCU: 0x642DB, offset: 0x642DB, size: 0x8, addend: 0x0, symName: __ZNSt3__128__exception_guard_exceptionsINS_6vectorINS_9sub_matchIPKcEENS_9allocatorIS5_EEE16__destroy_vectorEE10__completeB7v160006Ev, symObjAddr: 0x22E50, symBinAddr: 0x1000254B0, symSize: 0x1C }
  - { offsetInCU: 0x64301, offset: 0x64301, size: 0x8, addend: 0x0, symName: __ZNSt3__128__exception_guard_exceptionsINS_6vectorINS_9sub_matchIPKcEENS_9allocatorIS5_EEE16__destroy_vectorEED1B7v160006Ev, symObjAddr: 0x22E6C, symBinAddr: 0x1000254CC, symSize: 0x2C }
  - { offsetInCU: 0x6432B, offset: 0x6432B, size: 0x8, addend: 0x0, symName: __ZNSt3__128__exception_guard_exceptionsINS_6vectorINS_9sub_matchIPKcEENS_9allocatorIS5_EEE16__destroy_vectorEEC1B7v160006ES9_, symObjAddr: 0x22E98, symBinAddr: 0x1000254F8, symSize: 0x34 }
  - { offsetInCU: 0x64363, offset: 0x64363, size: 0x8, addend: 0x0, symName: __ZNSt3__128__exception_guard_exceptionsINS_6vectorINS_9sub_matchIPKcEENS_9allocatorIS5_EEE16__destroy_vectorEEC2B7v160006ES9_, symObjAddr: 0x22ECC, symBinAddr: 0x10002552C, symSize: 0x24 }
  - { offsetInCU: 0x6439B, offset: 0x6439B, size: 0x8, addend: 0x0, symName: __ZNSt3__129_AllocatorDestroyRangeReverseINS_9allocatorINS_9sub_matchIPKcEEEEPS5_EC1B7v160006ERS6_RS7_SA_, symObjAddr: 0x23030, symBinAddr: 0x100025690, symSize: 0x44 }
  - { offsetInCU: 0x643F2, offset: 0x643F2, size: 0x8, addend: 0x0, symName: __ZNSt3__116allocator_traitsINS_9allocatorINS_9sub_matchIPKcEEEEE9constructB7v160006IS5_JRS5_EvvEEvRS6_PT_DpOT0_, symObjAddr: 0x23074, symBinAddr: 0x1000256D4, symSize: 0x30 }
  - { offsetInCU: 0x64447, offset: 0x64447, size: 0x8, addend: 0x0, symName: __ZNSt3__128__exception_guard_exceptionsINS_29_AllocatorDestroyRangeReverseINS_9allocatorINS_9sub_matchIPKcEEEEPS6_EEE10__completeB7v160006Ev, symObjAddr: 0x230A4, symBinAddr: 0x100025704, symSize: 0x1C }
  - { offsetInCU: 0x6446D, offset: 0x6446D, size: 0x8, addend: 0x0, symName: __ZNSt3__128__exception_guard_exceptionsINS_29_AllocatorDestroyRangeReverseINS_9allocatorINS_9sub_matchIPKcEEEEPS6_EEED1B7v160006Ev, symObjAddr: 0x230C0, symBinAddr: 0x100025720, symSize: 0x2C }
  - { offsetInCU: 0x64497, offset: 0x64497, size: 0x8, addend: 0x0, symName: __ZNSt3__128__exception_guard_exceptionsINS_29_AllocatorDestroyRangeReverseINS_9allocatorINS_9sub_matchIPKcEEEEPS6_EEEC1B7v160006ES9_, symObjAddr: 0x230EC, symBinAddr: 0x10002574C, symSize: 0x34 }
  - { offsetInCU: 0x644D0, offset: 0x644D0, size: 0x8, addend: 0x0, symName: __ZNSt3__128__exception_guard_exceptionsINS_29_AllocatorDestroyRangeReverseINS_9allocatorINS_9sub_matchIPKcEEEEPS6_EEEC2B7v160006ES9_, symObjAddr: 0x23120, symBinAddr: 0x100025780, symSize: 0x30 }
  - { offsetInCU: 0x64509, offset: 0x64509, size: 0x8, addend: 0x0, symName: __ZNSt3__129_AllocatorDestroyRangeReverseINS_9allocatorINS_9sub_matchIPKcEEEEPS5_EC2B7v160006ERS6_RS7_SA_, symObjAddr: 0x23150, symBinAddr: 0x1000257B0, symSize: 0x38 }
  - { offsetInCU: 0x64560, offset: 0x64560, size: 0x8, addend: 0x0, symName: __ZNSt3__128__exception_guard_exceptionsINS_29_AllocatorDestroyRangeReverseINS_9allocatorINS_9sub_matchIPKcEEEEPS6_EEED2B7v160006Ev, symObjAddr: 0x231BC, symBinAddr: 0x10002581C, symSize: 0x50 }
  - { offsetInCU: 0x6458A, offset: 0x6458A, size: 0x8, addend: 0x0, symName: __ZNKSt3__129_AllocatorDestroyRangeReverseINS_9allocatorINS_9sub_matchIPKcEEEEPS5_EclB7v160006Ev, symObjAddr: 0x2320C, symBinAddr: 0x10002586C, symSize: 0x68 }
  - { offsetInCU: 0x645B0, offset: 0x645B0, size: 0x8, addend: 0x0, symName: __ZNSt3__128__exception_guard_exceptionsINS_6vectorINS_9sub_matchIPKcEENS_9allocatorIS5_EEE16__destroy_vectorEED2B7v160006Ev, symObjAddr: 0x232E4, symBinAddr: 0x100025944, symSize: 0x50 }
